; ModuleID = '/home/trungnguyen/SDSoC/workspace/correlation_ver1/correlation_ver1_standard_alone/src/main.cpp'
target datalayout = "e-m:e-p:32:32-i64:64-v128:64:128-n32-S64"
target triple = "armv7-xilinx--eabi"

%"class.std::ios_base::Init" = type { i8 }

@_ZStL8__ioinit = internal global %"class.std::ios_base::Init" zeroinitializer, align 1
@__dso_handle = external global i8
@_ZZ18correlation_goldenPfiiS_E9weightSum = internal global float 0.000000e+00, align 4
@.str = private unnamed_addr constant [52 x i8] c"ERROR!  correlation kernel - pointer A, B is NULL\0D\0A\00", align 1
@.str1 = private unnamed_addr constant [22 x i8] c"Number of indices: \0D\0A\00", align 1
@.str2 = private unnamed_addr constant [3 x i8] c"%d\00", align 1
@.str3 = private unnamed_addr constant [3 x i8] c"\0D\0A\00", align 1
@.str4 = private unnamed_addr constant [44 x i8] c"Time in second for hardware version: %llf \0A\00", align 1
@.str5 = private unnamed_addr constant [42 x i8] c"Time in second for golden version: %llf \0A\00", align 1
@.str6 = private unnamed_addr constant [27 x i8] c"%d:  hw: %.6f - sw: %.6f\0D\0A\00", align 1
@.str7 = private unnamed_addr constant [18 x i8] c"TEST FAILED !!!\0D\0A\00", align 1
@.str8 = private unnamed_addr constant [18 x i8] c"TEST PASSED !!!\0D\0A\00", align 1
@_ZZL12indices_initmE9inputData = private unnamed_addr constant [1260 x float] [float 0x40851C1480000000, float 0x40855B70A0000000, float 0x40855E7AE0000000, float 0x4085671EC0000000, float 0x408566B860000000, float 0x40854F8520000000, float 0x40855BC280000000, float 0x408556A3E0000000, float 0x4085A28F60000000, float 0x40859547A0000000, float 0x4085948F60000000, float 0x40859A1480000000, float 0x40858EB860000000, float 6.920000e+02, float 0x4085A03D80000000, float 0x408596E140000000, float 0x40857D99A0000000, float 0x40857399A0000000, float 0x40854970A0000000, float 0x4085462900000000, float 0x4085381480000000, float 0x4085291EC0000000, float 0x4085246660000000, float 0x4084D11EC0000000, float 0x4084CD1EC0000000, float 0x4084B26660000000, float 0x4084ADEB80000000, float 0x4084C399A0000000, float 0x4084BC51E0000000, float 0x4084BE2900000000, float 0x4084CC51E0000000, float 0x4084ADD700000000, float 0x40849C51E0000000, float 0x4084CCB860000000, float 0x4084CD0A40000000, float 0x40849B70A0000000, float 0x408488B860000000, float 0x4084648F60000000, float 0x40845A7AE0000000, float 0x40845B5C20000000, float 0x40844AA3E0000000, float 0x40843F70A0000000, float 0x40842FD700000000, float 0x408419EB80000000, float 0x40841C8F60000000, float 0x4083FB3340000000, float 0x4083F451E0000000, float 0x4083FBC280000000, float 0x4083D8B860000000, float 0x4083D7AE20000000, float 0x4083AEB860000000, float 6.280000e+02, float 0x40838F0A40000000, float 0x4083895C20000000, float 0x4083978520000000, float 0x40839851E0000000, float 0x4083878520000000, float 0x40837F1EC0000000, float 0x40836AE140000000, float 0x4083686660000000, float 0x40836BC280000000, float 0x40834D5C20000000, float 0x40835D47A0000000, float 0x40834FAE20000000, float 0x40831F0A40000000, float 6.125000e+02, float 0x408303EB80000000, float 0x4083091EC0000000, float 0x408302E140000000, float 0x4083063D80000000, float 0x4083063D80000000, float 0x4082FD0A40000000, float 0x4082E1AE20000000, float 0x4082FFEB80000000, float 0x4082F28F60000000, float 0x4082F31EC0000000, float 0x4083023D80000000, float 0x4082FB3340000000, float 0x4082F3C280000000, float 0x4082E4A3E0000000, float 0x4082E570A0000000, float 0x4082E3AE20000000, float 0x4082E4B860000000, float 0x4082E33340000000, float 0x4082F78520000000, float 0x4082F70A40000000, float 0x4082EEE140000000, float 0x4082E33340000000, float 0x4082DE3D80000000, float 0x4082EDD700000000, float 0x4082F3AE20000000, float 0x4082EBC280000000, float 0x4082F01480000000, float 6.040000e+02, float 0x4082EAA3E0000000, float 0x4082E67AE0000000, float 0x4082D5D700000000, float 0x4082D53340000000, float 0x4082D0E140000000, float 0x4082B0B860000000, float 0x4082B0F5C0000000, float 0x4082ACB860000000, float 0x4082ACF5C0000000, float 0x4082AC3D80000000, float 0x4082A9AE20000000, float 0x4082AA51E0000000, float 0x40829570A0000000, float 0x40829AF5C0000000, float 0x40827E1480000000, float 0x40828C1480000000, float 0x40828999A0000000, float 0x4082858520000000, float 0x4082675C20000000, float 0x40826F3340000000, float 0x408273C280000000, float 0x40826CB860000000, float 0x40825E1480000000, float 0x40825A8F60000000, float 0x408270CCC0000000, float 0x408260A3E0000000, float 0x408260B860000000, float 0x40823EB860000000, float 0x408242E140000000, float 0x40824F5C20000000, float 0x40820ACCC0000000, float 0x40820B0A40000000, float 0x4081FDAE20000000, float 0x4081F15C20000000, float 5.557500e+02, float 5.560000e+02, float 0x40815DEB80000000, float 0x40818799A0000000, float 0x4081BCF5C0000000, float 0x4081EC6660000000, float 0x4081E66660000000, float 0x4081E55C20000000, float 0x4081E7AE20000000, float 0x408225EB80000000, float 0x408279EB80000000, float 0x4082923D80000000, float 0x40828E2900000000, float 0x40827D1EC0000000, float 0x408276CCC0000000, float 0x40827347A0000000, float 0x408265EB80000000, float 0x4082643D80000000, float 0x4082721480000000, float 0x40826F5C20000000, float 0x408263EB80000000, float 0x40827EA3E0000000, float 0x40827F99A0000000, float 0x40827E3D80000000, float 0x4082781480000000, float 0x40827A6660000000, float 0x4082581480000000, float 0x408252B860000000, float 0x408245D700000000, float 0x40824251E0000000, float 5.815000e+02, float 0x40824A8F60000000, float 0x408248E140000000, float 0x4082318520000000, float 0x40824770A0000000, float 0x408247D700000000, float 0x4082293340000000, float 0x408225D700000000, float 0x408219D700000000, float 0x4082051EC0000000, float 0x4081EDC280000000, float 0x4081CE7AE0000000, float 0x4081CC3D80000000, float 0x4081B58520000000, float 0x4081B26660000000, float 0x40819AA3E0000000, float 0x4081A38520000000, float 0x4081AA8F60000000, float 0x40818DEB80000000, float 0x40819170A0000000, float 0x4081773340000000, float 0x4081621480000000, float 0x4081653340000000, float 0x408155AE20000000, float 0x40815D47A0000000, float 0x40816199A0000000, float 0x4081AB99A0000000, float 5.657500e+02, float 0x4081CFD700000000, float 0x4081D0CCC0000000, float 0x4081BF1EC0000000, float 0x4081D15C20000000, float 0x4081D42900000000, float 0x4081F0F5C0000000, float 0x4081DEF5C0000000, float 0x4081C970A0000000, float 0x4082073340000000, float 0x40820370A0000000, float 0x4082070A40000000, float 0x40820B1EC0000000, float 0x40821E3D80000000, float 0x40822AB860000000, float 0x40822D3340000000, float 0x4082061480000000, float 0x4081F8E140000000, float 0x4081F1C280000000, float 0x4081DAF5C0000000, float 0x4081DA51E0000000, float 0x4081FB8520000000, float 0x4081FFD700000000, float 0x4081DB3340000000, float 0x4081E3C280000000, float 0x4081ED0A40000000, float 0x4081DB47A0000000, float 0x4081D95C20000000, float 0x4081C63D80000000, float 0x4081CF0A40000000, float 0x4081C970A0000000, float 0x4081B42900000000, float 0x4081AAE140000000, float 0x4081A8E140000000, float 5.632500e+02, float 0x408194B860000000, float 0x408184A3E0000000, float 0x4081831EC0000000, float 0x40817BC280000000, float 0x40815BC280000000, float 0x40814E2900000000, float 0x40814F1EC0000000, float 0x40814CB860000000, float 5.535000e+02, float 0x40814C2900000000, float 0x408145C280000000, float 0x4081538520000000, float 0x4081535C20000000, float 0x40814C2900000000, float 0x4081495C20000000, float 0x40812C3D80000000, float 0x4081315C20000000, float 0x40812651E0000000, float 0x408114E140000000, float 0x408117C280000000, float 0x4081181480000000, float 0x4081170A40000000, float 0x40811BEB80000000, float 0x4081163D80000000, float 0x40812BC280000000, float 0x4081286660000000, float 0x40812D47A0000000, float 0x4081388F60000000, float 0x4081398520000000, float 0x40814199A0000000, float 0x40813D3340000000, float 0x40813799A0000000, float 0x40C2438E20000000, float 0x40C2454660000000, float 0x40C23FE3E0000000, float 0x40C2106900000000, float 0x40C2106900000000, float 0x40C1E4AA40000000, float 0x40C1DE5D80000000, float 0x40C19DFD80000000, float 0x40C1C94660000000, float 0x40C1C94660000000, float 0x40C1B14520000000, float 0x40C1B2F700000000, float 0x40C1B08A40000000, float 0x40C18E6F60000000, float 0x40C18E6F60000000, float 0x40C183CF60000000, float 0x40C17E6E20000000, float 0x40C175F0A0000000, float 0x40C170CCC0000000, float 0x40C170CCC0000000, float 0x40C1684A40000000, float 0x40C14D99A0000000, float 0x40C154F9A0000000, float 0x40C139A7A0000000, float 0x40C139A7A0000000, float 0x40C12C6660000000, float 0x40C1207340000000, float 0x40C13375C0000000, float 0x40C11C4F60000000, float 0x40C11C4F60000000, float 0x40C1001AE0000000, float 0x40C0E80E20000000, float 0x40C0E78140000000, float 0x40C121FEC0000000, float 0x40C121FEC0000000, float 0x40C11C9480000000, float 0x40C10F3EC0000000, float 0x40C10BE3E0000000, float 0x40C11C87A0000000, float 0x40C11C87A0000000, float 0x40C114A3E0000000, float 0x40C0FC31E0000000, float 0x40C103EF60000000, float 0x40C0F2EF60000000, float 0x40C0F2EF60000000, float 8.652500e+03, float 0x40C0D06520000000, float 0x40C0D1E7A0000000, float 0x40C0D50F60000000, float 0x40C0D50F60000000, float 0x40C0CEAB80000000, float 0x40C0A40280000000, float 0x40C0B8EB80000000, float 0x40C0B8EB80000000, float 0x40C09ED700000000, float 0x40C09ED700000000, float 0x40C07C43E0000000, float 0x40C06E2900000000, float 0x40C0608A40000000, float 0x40C061CE20000000, float 0x40C061CE20000000, float 0x40C067D340000000, float 0x40C067B1E0000000, float 0x40C053C660000000, float 0x40C019DEC0000000, float 0x40C019DEC0000000, float 0x40C01390A0000000, float 0x40C0129860000000, float 0x40C04727A0000000, float 0x40C042A3E0000000, float 0x40C042A3E0000000, float 0x40C0365340000000, float 0x40C0353AE0000000, float 0x40C04D5860000000, float 0x40C048E3E0000000, float 0x40C048E3E0000000, float 0x40C048A900000000, float 0x40C053CB80000000, float 0x40C06BF0A0000000, float 0x40C03E9480000000, float 0x40C03E9480000000, float 0x40C034E520000000, float 0x40C044BD80000000, float 0x40C02791E0000000, float 0x40C0236520000000, float 0x40C0236520000000, float 0x40BFFC75C0000000, float 0x40BFEABAE0000000, float 0x40BF89F860000000, float 0x40BF6C7860000000, float 0x40BF6C7860000000, float 0x40BF457D80000000, float 0x40BF249700000000, float 0x40BF7B35C0000000, float 8.170750e+03, float 8.170750e+03, float 0x40BFD64520000000, float 0x40BFCEA900000000, float 8.143750e+03, float 0x40BF2EF340000000, float 0x40BF2EF340000000, float 0x40BF2EF340000000, float 0x40BF2EF340000000, float 0x40BF2EF340000000, float 0x40BF2EF340000000, float 0x40BF2EF340000000, float 0x40BF294280000000, float 0x40BF1975C0000000, float 0x40BF28CCC0000000, float 0x40BF51C520000000, float 0x40BF51C520000000, float 0x40BF4E63E0000000, float 0x40BF488A40000000, float 0x40BF1CE900000000, float 0x40BF2D11E0000000, float 0x40BF2D11E0000000, float 0x40BF4223E0000000, float 0x40BF4370A0000000, float 0x40BF58B5C0000000, float 0x40BF58B5C0000000, float 0x40BF58B5C0000000, float 0x40BF3E35C0000000, float 0x40BF5E9480000000, float 0x40BF869700000000, float 0x40BED5AB80000000, float 0x40BED5AB80000000, float 0x40BEAF30A0000000, float 0x40BEB88F60000000, float 0x40BDDB2140000000, float 0x40BDD24CC0000000, float 0x40BDD24CC0000000, float 0x40BDEEF5C0000000, float 0x40BE97C280000000, float 0x40BEFDF340000000, float 0x40BE568520000000, float 0x40BE568520000000, float 0x40BE4751E0000000, float 0x40BE2AB340000000, float 0x40BF76A660000000, float 0x40C00031E0000000, float 0x40C00031E0000000, float 0x40C00B6CC0000000, float 0x40BFF3E660000000, float 0x40C00599A0000000, float 0x40BFC32900000000, float 0x40BFC32900000000, float 8.085500e+03, float 8.114750e+03, float 0x40BF884CC0000000, float 0x40BF884CC0000000, float 0x40BF884CC0000000, float 0x40BF884CC0000000, float 0x40BF884CC0000000, float 0x40BF884CC0000000, float 0x40BEE6A900000000, float 0x40BEE6A900000000, float 0x40BEEB1C20000000, float 0x40BEB7D480000000, float 0x40BE71FAE0000000, float 0x40BE5A7340000000, float 0x40BE5A7340000000, float 0x40BE5E8280000000, float 0x40BE78EB80000000, float 0x40BE7E07A0000000, float 0x40BDF311E0000000, float 0x40BDF311E0000000, float 7.699250e+03, float 7.703250e+03, float 0x40BE130520000000, float 0x40BE0A6140000000, float 0x40BE0A6140000000, float 0x40BE1A0280000000, float 0x40BE1C8520000000, float 7.695250e+03, float 0x40BDF49480000000, float 0x40BDF49480000000, float 0x40BDA24F60000000, float 0x40BDC4D480000000, float 0x40BD8F6E20000000, float 0x40BD506140000000, float 0x40BD506140000000, float 0x40BD506140000000, float 0x40BD5D5C20000000, float 0x40BD4CB0A0000000, float 0x40BD664280000000, float 0x40BD664280000000, float 0x40BD664280000000, float 0x40BD664A40000000, float 0x40BD275EC0000000, float 0x40BDC7E3E0000000, float 0x40BDC7E3E0000000, float 0x40BDC7E3E0000000, float 0x40BD9F47A0000000, float 7.635750e+03, float 0x40BDBD59A0000000, float 0x40BDBD59A0000000, float 0x40BDBD59A0000000, float 0x40BD98A140000000, float 0x40BD853D80000000, float 0x40BCEC1EC0000000, float 0x40BCEC1EC0000000, float 0x40BCEC1EC0000000, float 7.378000e+03, float 0x40BC9EEE20000000, float 0x40BCC32140000000, float 0x40BCC32140000000, float 0x40BCC32140000000, float 0x40BCBB4520000000, float 0x40BBEB6B80000000, float 0x40BBEB6B80000000, float 0x40BBEB6B80000000, float 0x40BBE34CC0000000, float 7.158750e+03, float 0x40BC264520000000, float 0x40BC264520000000, float 0x40BC0E7AE0000000, float 0x40BC152140000000, float 0x40BC0BCCC0000000, float 0x40BC0BCCC0000000, float 0x40BC0BCCC0000000, float 0x40BBFEEE20000000, float 0x40BBD7AE20000000, float 0x40BBD7AE20000000, float 0x40BBD7AE20000000, float 0x40BBD46660000000, float 0x40BBD44CC0000000, float 0x40BB940A40000000, float 0x40BB940A40000000, float 0x40BB940A40000000, float 0x40BBB8FD80000000, float 0x40BBE999A0000000, float 0x40BC45D1E0000000, float 0x40BC45D1E0000000, float 0x40BC45D1E0000000, float 0x40BC164F60000000, float 0x40BBF88520000000, float 0x40BC0A19A0000000, float 0x40BC0A19A0000000, float 0x40BC0A19A0000000, float 0x40BC0491E0000000, float 0x40BC099EC0000000, float 0x40BC099EC0000000, float 0x40BC08E140000000, float 0x40BBFAE3E0000000, float 0x40BBB77AE0000000, float 0x40BBB77AE0000000, float 0x40BBB77AE0000000, float 0x40BBA40A40000000, float 0x40BB9170A0000000, float 0x40BB715EC0000000, float 0x40BB715EC0000000, float 0x40BB715EC0000000, float 0x3FD11098E0000000, float 0x3FD110B640000000, float 0x3FD1107B80000000, float 0x3FD1107B80000000, float 0x3FD110B640000000, float 0x3FD11098E0000000, float 0x3FD110D380000000, float 0x3FD110B640000000, float 0x3FD11098E0000000, float 0x3FD11098E0000000, float 0x3FD110B640000000, float 0x3FD110B640000000, float 0x3FD11098E0000000, float 0x3FD11098E0000000, float 0x3FD11098E0000000, float 0x3FD110B640000000, float 0x3FD110B640000000, float 0x3FD110B640000000, float 0x3FD110B640000000, float 0x3FD110B640000000, float 0x3FD11098E0000000, float 0x3FD110B640000000, float 0x3FD1105E20000000, float 0x3FD110B640000000, float 0x3FD110B640000000, float 0x3FD11098E0000000, float 0x3FD11040C0000000, float 0x3FD11098E0000000, float 0x3FD11098E0000000, float 0x3FD1105E20000000, float 0x3FD11098E0000000, float 0x3FD1107B80000000, float 0x3FD1107B80000000, float 0x3FD11098E0000000, float 0x3FD1107B80000000, float 0x3FD1107B80000000, float 0x3FD1105E20000000, float 0x3FD110B640000000, float 0x3FD11098E0000000, float 0x3FD110B640000000, float 0x3FD1105E20000000, float 0x3FD1105E20000000, float 0x3FD1102360000000, float 0x3FD11098E0000000, float 0x3FD1107B80000000, float 0x3FD1107B80000000, float 0x3FD1107B80000000, float 0x3FD11098E0000000, float 0x3FD1105E20000000, float 0x3FD1105E20000000, float 0x3FD1107B80000000, float 0x3FD11040C0000000, float 0x3FD11098E0000000, float 0x3FD11098E0000000, float 0x3FD1107B80000000, float 0x3FD11098E0000000, float 0x3FD11098E0000000, float 0x3FD11098E0000000, float 0x3FD11098E0000000, float 0x3FD110B640000000, float 0x3FD1107B80000000, float 0x3FD11098E0000000, float 0x3FD110B640000000, float 0x3FD1107B80000000, float 0x3FD1100600000000, float 0x3FD1107B80000000, float 0x3FD11098E0000000, float 0x3FD1107B80000000, float 0x3FD1107B80000000, float 0x3FD110B640000000, float 0x3FD11098E0000000, float 0x3FD11098E0000000, float 0x3FD11098E0000000, float 0x3FD110B640000000, float 0x3FD11098E0000000, float 0x3FD110B640000000, float 0x3FD110B640000000, float 0x3FD110B640000000, float 0x3FD1107B80000000, float 0x3FD110B640000000, float 0x3FD110B640000000, float 0x3FD110B640000000, float 0x3FD110B640000000, float 0x3FD110B640000000, float 0x3FD1107B80000000, float 0x3FD11098E0000000, float 0x3FD11098E0000000, float 0x3FD11098E0000000, float 0x3FD110B640000000, float 0x3FD110B640000000, float 0x3FD110B640000000, float 0x3FD11098E0000000, float 0x3FD110B640000000, float 0x3FD1107B80000000, float 0x3FD11098E0000000, float 0x3FD11098E0000000, float 0x3FD1107B80000000, float 0x3FD1107B80000000, float 0x3FD110B640000000, float 0x3FD11098E0000000, float 0x3FD1107B80000000, float 0x3FD1107B80000000, float 0x3FD1107B80000000, float 0x3FD110D380000000, float 0x3FD110D380000000, float 0x3FD110D380000000, float 0x3FD110D380000000, float 0x3FD110D380000000, float 0x3FD110B640000000, float 0x3FD110D380000000, float 0x3FD110B640000000, float 0x3FD110B640000000, float 0x3FD110D380000000, float 0x3FD110D380000000, float 0x3FD110B640000000, float 0x3FD110B640000000, float 0x3FD110D380000000, float 0x3FD110D380000000, float 0x3FD110B640000000, float 0x3FD110D380000000, float 0x3FD110B640000000, float 0x3FD110B640000000, float 0x3FD1107B80000000, float 0x3FD11098E0000000, float 0x3FD1107B80000000, float 0x3FD1105E20000000, float 0x3FD1107B80000000, float 0x3FD1105E20000000, float 0x3FD1100600000000, float 0x3FD1105E20000000, float 0x3FD1105E20000000, float 0x3FD1107B80000000, float 0x3FD1107B80000000, float 0x3FD1107B80000000, float 0x3FD1107B80000000, float 0x3FD1107B80000000, float 0x3FD1107B80000000, float 0x3FD110D380000000, float 0x3FD1107B80000000, float 0x3FD110D380000000, float 0x3FD110D380000000, float 0x3FD110B640000000, float 0x3FD110D380000000, float 0x3FD110B640000000, float 0x3FD11098E0000000, float 0x3FD110B640000000, float 0x3FD110B640000000, float 0x3FD110B640000000, float 0x3FD110B640000000, float 0x3FD11098E0000000, float 0x3FD1105E20000000, float 0x3FD1107B80000000, float 0x3FD110B640000000, float 0x3FD110B640000000, float 0x3FD1107B80000000, float 0x3FD110B640000000, float 0x3FD110B640000000, float 0x3FD110B640000000, float 0x3FD110D380000000, float 0x3FD110B640000000, float 0x3FD1107B80000000, float 0x3FD1105E20000000, float 0x3FD11098E0000000, float 0x3FD11098E0000000, float 0x3FD1107B80000000, float 0x3FD11098E0000000, float 0x3FD10FA9C0000000, float 0x3FD1105E20000000, float 0x3FD1105E20000000, float 0x3FD1107B80000000, float 0x3FD1105E20000000, float 0x3FD110D380000000, float 0x3FD110B640000000, float 0x3FD11098E0000000, float 0x3FD1107B80000000, float 0x3FD110D380000000, float 0x3FD1102360000000, float 0x3FD11098E0000000, float 0x3FD110D380000000, float 0x3FD110B640000000, float 0x3FD11098E0000000, float 0x3FD10FC720000000, float 0x3FD11098E0000000, float 0x3FD1107B80000000, float 0x3FD1107B80000000, float 0x3FD11098E0000000, float 0x3FD11098E0000000, float 0x3FD1105E20000000, float 0x3FD11098E0000000, float 0x3FD110F520000000, float 0x3FD110B640000000, float 0x3FD110F520000000, float 0x3FD110B640000000, float 0x3FD110B640000000, float 0x3FD110B640000000, float 0x3FD110B640000000, float 0x3FD110B640000000, float 0x3FD110B640000000, float 0x3FD11098E0000000, float 0x3FD1105E20000000, float 0x3FD110B640000000, float 0x3FD1107B80000000, float 0x3FD110B640000000, float 0x3FD110D380000000, float 0x3FD110B640000000, float 0x3FD110B640000000, float 0x3FD110B640000000, float 0x3FD1107B80000000, float 0x3FD110B640000000, float 0x3FD110B640000000, float 0x3FD110B640000000, float 0x3FD110B640000000, float 0x3FD11098E0000000, float 0x3FD110B640000000, float 0x3FD110B640000000, float 0x3FD110B640000000, float 0x3FD110D380000000, float 0x3FD110B640000000, float 0x3FD110D380000000, float 0x3FD110B640000000, float 0x3FD110D380000000, float 0x3FD110D380000000, float 0x3FD110B640000000, float 0x3FD110D380000000, float 0x3FD110D380000000, float 0x3FD110D380000000, float 0x3FD110B640000000, float 0x3FD110D380000000, float 0x3FD110D380000000, float 0x3FD110D380000000, float 0x3FD110D380000000, float 0x3FD110D380000000, float 0x3FD110B640000000, float 0x3FD110D380000000, float 0x3FD110B640000000, float 0x3FD110D380000000, float 0x3FD110D380000000, float 0x3FD110B640000000, float 0x3FD110B640000000, float 0x3FD110D380000000, float 0x3FD110D380000000, float 0x3FD11098E0000000, float 0x3FD110D380000000, float 0x3FD1107B80000000, float 0x3FD110B640000000, float 0x3FD110B640000000, float 0x3FD110B640000000, float 0x3FD110D380000000, float 0x3FD110B640000000, float 0x3FD110D380000000, float 0x3FD110D380000000, float 0x3FD110D380000000, float 0x3FF63EAB40000000, float 0x3FF62D0E60000000, float 0x3FF63404E0000000, float 0x3FF6333340000000, float 0x3FF62D7740000000, float 0x3FF5F90960000000, float 0x3FF5FD2200000000, float 0x3FF5F9DB20000000, float 0x3FF6154CA0000000, float 0x3FF5EF9DC0000000, float 0x3FF5E63200000000, float 0x3FF5FDF3C0000000, float 0x3FF5F9DB20000000, float 0x3FF5FE5CA0000000, float 0x3FF5F34D60000000, float 0x3FF5F90960000000, float 0x3FF603AFC0000000, float 0x3FF5EE6320000000, float 0x3FF5E8A720000000, float 0x3FF5E3BCE0000000, float 0x3FF5BFB160000000, float 0x3FF5D22000000000, float 0x3FF5D566C0000000, float 0x3FF5D0E560000000, float 0x3FF5BE76C0000000, float 0x3FF5A71DE0000000, float 0x3FF5A161E0000000, float 0x3FF5A3D700000000, float 0x3FF593DDA0000000, float 0x3FF5B020C0000000, float 0x3FF5DC5D60000000, float 0x3FF5DFA440000000, float 0x3FF5E07600000000, float 0x3FF5E28240000000, float 0x3FF5E9E1C0000000, float 0x3FF5ACD9E0000000, float 0x3FF5B295E0000000, float 0x3FF5AEE640000000, float 0x3FF5AA64C0000000, float 0x3FF5CAC080000000, float 0x3FF5C49BA0000000, float 0x3FF5E2EB20000000, float 0x3FF5DFA440000000, float 0x3FF5DF3B60000000, float 0x3FF5C5D640000000, float 0x3FF5B8BAC0000000, float 0x3FF5C91D20000000, float 0x3FF5CE7040000000, float 0x3FF5BE0DE0000000, float 0x3FF5E00D20000000, float 0x3FF6055320000000, float 0x3FF614E3C0000000, float 0x3FF5FF9720000000, float 0x3FF5E9E1C0000000, float 0x3FF5E07600000000, float 0x3FF5DB8BA0000000, float 0x3FF5E56040000000, float 0x3FF6075F60000000, float 0x3FF6048160000000, float 0x3FF5FCB920000000, float 0x3FF6013AA0000000, float 0x3FF60EBEE0000000, float 0x3FF6048160000000, float 0x3FF5FB7EA0000000, float 0x3FF5EDFA40000000, float 0x3FF5DE00E0000000, float 0x3FF5BFB160000000, float 0x3FF5BDA520000000, float 0x3FF5AACDA0000000, float 0x3FF5BEDFA0000000, float 0x3FF5C50480000000, float 0x3FF5B9F560000000, float 0x3FF5B71760000000, float 0x3FF5A09020000000, float 0x3FF5B15B60000000, float 0x3FF5923A20000000, float 0x3FF5809D40000000, float 0x3FF5A92A40000000, float 0x3FF59C0EC0000000, float 0x3FF597F620000000, float 0x3FF589A020000000, float 0x3FF5944680000000, float 0x3FF57F62C0000000, float 0x3FF57381E0000000, float 0x3FF5631F80000000, float 0x3FF5786C20000000, float 0x3FF59EECC0000000, float 0x3FF58EF340000000, float 0x3FF59F55A0000000, float 0x3FF5944680000000, float 0x3FF5BC01A0000000, float 0x3FF5FA4400000000, float 0x3FF5FDF3C0000000, float 0x3FF60E5600000000, float 0x3FF6154CA0000000, float 0x3FF614E3C0000000, float 0x3FF60AA640000000, float 0x3FF60CB2A0000000, float 0x3FF5E3BCE0000000, float 0x3FF5E63200000000, float 0x3FF5E147A0000000, float 0x3FF5A786C0000000, float 0x3FF5A36E20000000, float 0x3FF5B295E0000000, float 0x3FF5AB9F60000000, float 0x3FF5A1CAC0000000, float 0x3FF5A36E20000000, float 0x3FF5B78040000000, float 0x3FF5BAC720000000, float 0x3FF5B15B60000000, float 0x3FF5CA57A0000000, float 0x3FF5B9F560000000, float 0x3FF5A43FE0000000, float 0x3FF5A4A8C0000000, float 0x3FF5A29C80000000, float 0x3FF5951820000000, float 0x3FF5A43FE0000000, float 0x3FF58EF340000000, float 0x3FF596BBA0000000, float 0x3FF5A36E20000000, float 0x3FF5A5E360000000, float 0x3FF5A233A0000000, float 0x3FF55FD8A0000000, float 0x3FF5559B40000000, float 0x3FF54538E0000000, float 0x3FF5474540000000, float 0x3FF54C2F80000000, float 0x3FF53A92A0000000, float 0x3FF5353F80000000, float 0x3FF515B580000000, float 0x3FF4FDF3C0000000, float 0x3FF5219660000000, float 0x3FF5126EA0000000, float 0x3FF51B7180000000, float 0x3FF527BB20000000, float 0x3FF52F8380000000, float 0x3FF5581060000000, float 0x3FF56DC5E0000000, float 0x3FF5638860000000, float 0x3FF569AD40000000, float 0x3FF55E9E20000000, float 0x3FF55E3540000000, float 0x3FF5779A60000000, float 0x3FF5560420000000, float 0x3FF5538F00000000, float 0x3FF55AEE60000000, float 0x3FF5353F80000000, float 0x3FF5388660000000, float 0x3FF547AE20000000, float 0x3FF558E220000000, float 0x3FF568DB80000000, float 0x3FF5566D00000000, float 0x3FF549BA60000000, float 0x3FF5367A00000000, float 0x3FF53DD980000000, float 0x3FF5219660000000, float 0x3FF5487FC0000000, float 0x3FF5388660000000, float 0x3FF5381D80000000, float 0x3FF53F1420000000, float 0x3FF53E4260000000, float 0x3FF51F2120000000, float 0x3FF5282400000000, float 0x3FF518FC60000000, float 0x3FF5075F60000000, float 0x3FF4F97240000000, float 1.312500e+00, float 0x3FF50F27C0000000, float 0x3FF4E63200000000, float 0x3FF4E83E40000000, float 0x3FF4F48800000000, float 0x3FF4C3C9E0000000, float 0x3FF4731900000000, float 0x3FF4978D40000000, float 0x3FF486C220000000, float 0x3FF4A99300000000, float 0x3FF4D07C80000000, float 0x3FF4C432C0000000, float 0x3FF4E703A0000000, float 0x3FF4D0E560000000, float 0x3FF4DC5D60000000, float 0x3FF4D1B720000000, float 0x3FF4EC56E0000000, float 0x3FF4FDF3C0000000, float 0x3FF4FEC560000000, float 0x3FF526E980000000, float 0x3FF545A1C0000000, float 0x3FF56D5D00000000, float 0x3FF5631F80000000, float 0x3FF55AEE60000000, float 0x3FF5666660000000, float 0x3FF556D5C0000000, float 0x3FF54D0140000000, float 0x3FF5361140000000, float 0x3FF52617C0000000, float 0x3FF5318FC0000000, float 0x3FF4F2E480000000, float 0x3FF4EDFA40000000, float 0x3FF4EBEE00000000, float 0x3FF4CC6400000000, float 0x3FF4E147A0000000, float 0x3FF4B4A240000000, float 0x3FF491D140000000, float 0x3FF4B089A0000000, float 0x3FF4B0F280000000, float 0x3FF4B1C440000000, float 0x3FF492A300000000, float 0x3FF4A64C20000000, float 0x3FF48ADAC0000000, float 0x3FF49C77A0000000, float 0x3FF49E83E0000000, float 0x3FF4AC0840000000, float 0x3FF4C28F60000000, float 0x3FF4C84B60000000, float 0x3FF50B7800000000, float 0x3FF4ED2880000000, float 0x3FF4EBEE00000000, float 0x3FF4FB7EA0000000, float 0x3FF4E76C80000000, float 0x3FF5119CE0000000, float 0x3FF4F559C0000000, float 0x3FF4D91680000000, float 0x3FF4D14E40000000, float 0x3FF4D2F1A0000000, float 0x3FF4CB2960000000, float 0x3FF4E7D560000000, float 0x3FF4E21960000000, float 0x3FF4E1B080000000, float 0x3FF4D9E840000000, float 0x3FF5154CA0000000, float 0x3FF4DB8BA0000000, float 0x3FF4FB15C0000000, float 0x3FF4F559C0000000, float 0x3FF4E978E0000000, float 0x3FF4EECC00000000, float 0x3FF4D07C80000000, float 0x3FF4C91D20000000, float 0x3FF4B295E0000000, float 0x3FF48F5C20000000, float 0x3FF4831260000000, float 0x3FF4816F00000000, float 0x3FF472B020000000, float 0x3FF493DDA0000000, float 0x3FF49096C0000000, float 0x3FF4C84B60000000, float 0x3FF4A36E20000000, float 0x3FF4B15B60000000, float 0x3FF49C77A0000000, float 0x3FF4BB2FE0000000, float 0x3FF4EBEE00000000, float 0x3FF4CED920000000, float 0x3FF4BCD360000000, float 0x3FF000D1C0000000, float 0x3FF0013AA0000000, float 0x3FF001A360000000, float 0x3FF0020C40000000, float 0x3FF0027520000000, float 0x3FF002DE00000000, float 0x3FF00346E0000000, float 0x3FF003AFC0000000, float 0x3FF00418A0000000, float 0x3FF0048160000000, float 0x3FF004EA40000000, float 0x3FF0055320000000, float 0x3FF005BC00000000, float 0x3FF00624E0000000, float 0x3FF0068DC0000000, float 0x3FF006F6A0000000, float 0x3FF0075F60000000, float 0x3FF007C840000000, float 0x3FF0083120000000, float 0x3FF0089A00000000, float 0x3FF00902E0000000, float 0x3FF0096BC0000000, float 0x3FF009D4A0000000, float 0x3FF00A3D80000000, float 0x3FF00AA640000000, float 0x3FF00B0F20000000, float 0x3FF00B7800000000, float 0x3FF00BE0E0000000, float 0x3FF00C49C0000000, float 0x3FF00CB2A0000000, float 0x3FF00D1B80000000, float 0x3FF00D8440000000, float 0x3FF00DED20000000, float 0x3FF00E5600000000, float 0x3FF00EBEE0000000, float 0x3FF00F27C0000000, float 0x3FF00F90A0000000, float 0x3FF00FF980000000, float 0x3FF0106240000000, float 0x3FF010CB20000000, float 0x3FF0113400000000, float 0x3FF0119CE0000000, float 0x3FF01205C0000000, float 0x3FF0126EA0000000, float 0x3FF012D780000000, float 0x3FF0134040000000, float 0x3FF013A920000000, float 0x3FF0141200000000, float 0x3FF0147AE0000000, float 0x3FF014E3C0000000, float 0x3FF0154CA0000000, float 0x3FF0161E40000000, float 0x3FF0168720000000, float 0x3FF0182AA0000000, float 0x3FF0189380000000, float 0x3FF018FC60000000, float 0x3FF0196520000000, float 0x3FF019CE00000000, float 0x3FF01A36E0000000, float 0x3FF01A9FC0000000, float 0x3FF01B08A0000000, float 0x3FF01B7180000000, float 0x3FF01BDA60000000, float 0x3FF01C4320000000, float 0x3FF01CAC00000000, float 0x3FF01D14E0000000, float 0x3FF01D7DC0000000, float 0x3FF01DE6A0000000, float 0x3FF01E4F80000000, float 0x3FF01EB860000000, float 0x3FF01F2120000000, float 0x3FF01F8A00000000, float 0x3FF01FF2E0000000, float 0x3FF0205BC0000000, float 0x3FF020C4A0000000, float 0x3FF0212D80000000, float 0x3FF0219660000000, float 0x3FF021FF20000000, float 0x3FF0226800000000, float 0x3FF022D0E0000000, float 0x3FF02339C0000000, float 0x3FF023A2A0000000, float 0x3FF0240B80000000, float 0x3FF0247460000000, float 0x3FF024DD20000000, float 0x3FF0254600000000, float 0x3FF025AEE0000000, float 0x3FF02617C0000000, float 0x3FF02680A0000000, float 0x3FF026E980000000, float 0x3FF0275260000000, float 0x3FF027BB20000000, float 0x3FF0282400000000, float 0x3FF0288CE0000000, float 0x3FF028F5C0000000, float 0x3FF0295EA0000000, float 0x3FF029C780000000, float 0x3FF02A3060000000, float 0x3FF02A9940000000, float 0x3FF02B0200000000, float 0x3FF02B6AE0000000, float 0x3FF02BD3C0000000, float 0x3FF02C3CA0000000, float 0x3FF02CA580000000, float 0x3FF02D0E60000000, float 0x3FF02D7740000000, float 0x3FF02DE000000000, float 0x3FF02E48E0000000, float 0x3FF02EB1C0000000, float 0x3FF02F1AA0000000, float 0x3FF02F8380000000, float 0x3FF02FEC60000000, float 0x3FF0305540000000, float 0x3FF030BE00000000, float 0x3FF03126E0000000, float 0x3FF0318FC0000000, float 0x3FF031F8A0000000, float 0x3FF0326180000000, float 0x3FF032CA60000000, float 0x3FF0333340000000, float 0x3FF0339C00000000, float 0x3FF03404E0000000, float 0x3FF0346DC0000000, float 0x3FF034D6A0000000, float 0x3FF0353F80000000, float 0x3FF035A860000000, float 0x3FF0361140000000, float 0x3FF0367A00000000, float 0x3FF036E2E0000000, float 0x3FF0374BC0000000, float 0x3FF037B4A0000000, float 0x3FF0381D80000000, float 0x3FF0388660000000, float 0x3FF038EF40000000, float 0x3FF0395820000000, float 0x3FF039C0E0000000, float 0x3FF03A29C0000000, float 0x3FF03A92A0000000, float 0x3FF03AFB80000000, float 0x3FF03B6460000000, float 0x3FF03BCD40000000, float 0x3FF03C3620000000, float 0x3FF03C9EE0000000, float 0x3FF03D07C0000000, float 0x3FF03D70A0000000, float 0x3FF03DD980000000, float 0x3FF03E4260000000, float 0x3FF03EAB40000000, float 0x3FF03F1420000000, float 0x3FF03F7CE0000000, float 0x3FF03FE5C0000000, float 0x3FF0404EA0000000, float 0x3FF040B780000000, float 0x3FF0412060000000, float 0x3FF0418940000000, float 0x3FF041F220000000, float 0x3FF0425AE0000000, float 0x3FF042C3C0000000, float 0x3FF0432CA0000000, float 0x3FF0439580000000, float 0x3FF043FE60000000, float 0x3FF0446740000000, float 0x3FF044D020000000, float 0x3FF04538E0000000, float 0x3FF045A1C0000000, float 0x3FF0460AA0000000, float 0x3FF0467380000000, float 0x3FF046DC60000000, float 0x3FF0474540000000, float 0x3FF047AE20000000, float 0x3FF0481700000000, float 0x3FF0487FC0000000, float 0x3FF048E8A0000000, float 0x3FF0495180000000, float 0x3FF049BA60000000, float 0x3FF04A2340000000, float 0x3FF04A8C20000000, float 0x3FF04AF500000000, float 0x3FF04B5DC0000000, float 0x3FF04BC6A0000000, float 0x3FF04C2F80000000, float 0x3FF04C9860000000, float 0x3FF04D0140000000, float 0x3FF04D6A20000000, float 0x3FF04DD300000000, float 0x3FF04E3BC0000000, float 0x3FF04EA4A0000000, float 0x3FF04F0D80000000, float 0x3FF04F7660000000, float 0x3FF04FDF40000000, float 0x3FF0504820000000, float 0x3FF050B100000000, float 0x3FF05119C0000000, float 0x3FF05182A0000000, float 0x3FF051EB80000000, float 0x3FF0525460000000, float 0x3FF052BD40000000, float 0x3FF0532620000000, float 0x3FF0538F00000000, float 0x3FF053F7C0000000, float 0x3FF05460A0000000, float 0x3FF054C980000000, float 0x3FF0553260000000, float 0x3FF0559B40000000, float 0x3FF0560420000000, float 0x3FF0566D00000000, float 0x3FF056D5C0000000, float 0x3FF0573EA0000000, float 0x3FF0581060000000, float 0x3FF0587940000000, float 0x3FF058E220000000, float 0x3FF0594B00000000, float 0x3FF059B3E0000000, float 0x3FF05A1CA0000000, float 0x3FF05AEE60000000, float 0x3FF05B5740000000, float 0x3FF05BC020000000, float 0x3FF05C2900000000, float 0x3FF05C91E0000000, float 0x3FF05D6380000000, float 0x3FF05DCC60000000, float 0x3FF05E3540000000, float 0x3FF05E9E20000000, float 0x3FF05F0700000000, float 0x3FF05F6FE0000000, float 0x3FF05FD8A0000000, float 0x3FF0604180000000, float 0x3FF060AA60000000, float 0x3FF0611340000000, float 0x3FF0617C20000000, float 0x3FF061E500000000, float 0x3FF0624DE0000000, float 0x3FF062B6A0000000, float 0x3FF0631F80000000, float 0x3FF0638860000000, float 0x3FF063F140000000, float 0x3FF0645A20000000, float 0x3FF064C300000000, float 0x3FF0652BE0000000, float 0x3FF06594A0000000, float 0x3FF066CF40000000, float 0x3FF0673820000000, float 0x3FF067A100000000, float 0x3FF06809E0000000, float 0x3FF06872C0000000, float 0x3FF068DB80000000, float 0x3FF0694460000000, float 0x3FF069AD40000000, float 0x3FF06A1620000000, float 0x3FF06A7F00000000, float 0x3FF06AE7E0000000, float 0x3FF06B50C0000000], align 4
@.str9 = private unnamed_addr constant [16 x i8] c"Error memcpy!\0D\0A\00", align 1
@llvm.global_ctors = appending global [1 x { i32, void ()*, i8* }] [{ i32, void ()*, i8* } { i32 65535, void ()* @_GLOBAL__sub_I_main.cpp, i8* null }]

define internal void @__cxx_global_var_init() {
  %1 = call %"class.std::ios_base::Init"* @_ZNSt8ios_base4InitC1Ev(%"class.std::ios_base::Init"* @_ZStL8__ioinit), !dbg !160
  %2 = call i32 @__cxa_atexit(void (i8*)* bitcast (%"class.std::ios_base::Init"* (%"class.std::ios_base::Init"*)* @_ZNSt8ios_base4InitD1Ev to void (i8*)*), i8* getelementptr inbounds (%"class.std::ios_base::Init"* @_ZStL8__ioinit, i32 0, i32 0), i8* @__dso_handle) #1, !dbg !160
  ret void, !dbg !160
}

declare %"class.std::ios_base::Init"* @_ZNSt8ios_base4InitC1Ev(%"class.std::ios_base::Init"* returned) #0

declare %"class.std::ios_base::Init"* @_ZNSt8ios_base4InitD1Ev(%"class.std::ios_base::Init"* returned) #0

; Function Attrs: nounwind
declare i32 @__cxa_atexit(void (i8*)*, i8*, i8*) #1

; Function Attrs: nounwind
define float @_Z21correlationComp_v1_swPfS_S_iS_(float* %indexA, float* %indexB, float* %weight, i32 %size, float* %weightSum) #2 {
  %1 = alloca float*, align 4
  %2 = alloca float*, align 4
  %3 = alloca float*, align 4
  %4 = alloca i32, align 4
  %5 = alloca float*, align 4
  %6 = alloca i8*
  %meanReturnA = alloca float, align 4
  %meanReturnB = alloca float, align 4
  %i = alloca i32, align 4
  %accumA = alloca float, align 4
  %accumB = alloca float, align 4
  %accumCov = alloca float, align 4
  %volatilityA = alloca float, align 4
  %volatilityB = alloca float, align 4
  %i_sw = alloca i32, align 4
  %covariance = alloca float, align 4
  %7 = alloca i32
  store float* %indexA, float** %1, align 4
  call void @llvm.dbg.declare(metadata !{float** %1}, metadata !161), !dbg !162
  store float* %indexB, float** %2, align 4
  call void @llvm.dbg.declare(metadata !{float** %2}, metadata !163), !dbg !164
  store float* %weight, float** %3, align 4
  call void @llvm.dbg.declare(metadata !{float** %3}, metadata !165), !dbg !166
  store i32 %size, i32* %4, align 4
  call void @llvm.dbg.declare(metadata !{i32* %4}, metadata !167), !dbg !168
  store float* %weightSum, float** %5, align 4
  call void @llvm.dbg.declare(metadata !{float** %5}, metadata !169), !dbg !170
  %8 = load i32* %4, align 4, !dbg !171
  %9 = sub nsw i32 %8, 1, !dbg !171
  %10 = call i8* @llvm.stacksave(), !dbg !171
  store i8* %10, i8** %6, !dbg !171
  %11 = alloca float, i32 %9, align 4, !dbg !171
  call void @llvm.dbg.declare(metadata !{float* %11}, metadata !172), !dbg !176
  %12 = load i32* %4, align 4, !dbg !177
  %13 = sub nsw i32 %12, 1, !dbg !177
  %14 = alloca float, i32 %13, align 4, !dbg !177
  call void @llvm.dbg.declare(metadata !{float* %14}, metadata !178), !dbg !179
  call void @llvm.dbg.declare(metadata !{float* %meanReturnA}, metadata !180), !dbg !181
  store float 0.000000e+00, float* %meanReturnA, align 4, !dbg !182
  call void @llvm.dbg.declare(metadata !{float* %meanReturnB}, metadata !183), !dbg !184
  store float 0.000000e+00, float* %meanReturnB, align 4, !dbg !185
  call void @llvm.dbg.declare(metadata !{i32* %i}, metadata !186), !dbg !187
  store i32 0, i32* %i, align 4, !dbg !188
  br label %15, !dbg !188

; <label>:15                                      ; preds = %65, %0
  %16 = load i32* %i, align 4, !dbg !190
  %17 = load i32* %4, align 4, !dbg !190
  %18 = sub nsw i32 %17, 1, !dbg !190
  %19 = icmp slt i32 %16, %18, !dbg !190
  br i1 %19, label %20, label %68, !dbg !190

; <label>:20                                      ; preds = %15
  %21 = load i32* %i, align 4, !dbg !193
  %22 = load float** %1, align 4, !dbg !193
  %23 = getelementptr inbounds float* %22, i32 %21, !dbg !193
  %24 = load float* %23, align 4, !dbg !193
  %25 = load i32* %i, align 4, !dbg !193
  %26 = add nsw i32 %25, 1, !dbg !193
  %27 = load float** %1, align 4, !dbg !193
  %28 = getelementptr inbounds float* %27, i32 %26, !dbg !193
  %29 = load float* %28, align 4, !dbg !193
  %30 = fdiv float %24, %29, !dbg !193
  %31 = call float @logf(float %30) #1, !dbg !193
  %32 = load i32* %i, align 4, !dbg !193
  %33 = getelementptr inbounds float* %11, i32 %32, !dbg !193
  store float %31, float* %33, align 4, !dbg !193
  %34 = load i32* %i, align 4, !dbg !195
  %35 = load float** %2, align 4, !dbg !195
  %36 = getelementptr inbounds float* %35, i32 %34, !dbg !195
  %37 = load float* %36, align 4, !dbg !195
  %38 = load i32* %i, align 4, !dbg !195
  %39 = add nsw i32 %38, 1, !dbg !195
  %40 = load float** %2, align 4, !dbg !195
  %41 = getelementptr inbounds float* %40, i32 %39, !dbg !195
  %42 = load float* %41, align 4, !dbg !195
  %43 = fdiv float %37, %42, !dbg !195
  %44 = call float @logf(float %43) #1, !dbg !195
  %45 = load i32* %i, align 4, !dbg !195
  %46 = getelementptr inbounds float* %14, i32 %45, !dbg !195
  store float %44, float* %46, align 4, !dbg !195
  %47 = load i32* %i, align 4, !dbg !196
  %48 = getelementptr inbounds float* %11, i32 %47, !dbg !196
  %49 = load float* %48, align 4, !dbg !196
  %50 = load i32* %4, align 4, !dbg !196
  %51 = sub nsw i32 %50, 1, !dbg !196
  %52 = sitofp i32 %51 to float, !dbg !196
  %53 = fdiv float %49, %52, !dbg !196
  %54 = load float* %meanReturnA, align 4, !dbg !196
  %55 = fadd float %54, %53, !dbg !196
  store float %55, float* %meanReturnA, align 4, !dbg !196
  %56 = load i32* %i, align 4, !dbg !197
  %57 = getelementptr inbounds float* %14, i32 %56, !dbg !197
  %58 = load float* %57, align 4, !dbg !197
  %59 = load i32* %4, align 4, !dbg !197
  %60 = sub nsw i32 %59, 1, !dbg !197
  %61 = sitofp i32 %60 to float, !dbg !197
  %62 = fdiv float %58, %61, !dbg !197
  %63 = load float* %meanReturnB, align 4, !dbg !197
  %64 = fadd float %63, %62, !dbg !197
  store float %64, float* %meanReturnB, align 4, !dbg !197
  br label %65, !dbg !198

; <label>:65                                      ; preds = %20
  %66 = load i32* %i, align 4, !dbg !199
  %67 = add nsw i32 %66, 1, !dbg !199
  store i32 %67, i32* %i, align 4, !dbg !199
  br label %15, !dbg !199

; <label>:68                                      ; preds = %15
  %69 = load i32* %4, align 4, !dbg !200
  %70 = sub nsw i32 %69, 1, !dbg !200
  %71 = alloca float, i32 %70, align 4, !dbg !200
  call void @llvm.dbg.declare(metadata !{float* %71}, metadata !201), !dbg !202
  %72 = load i32* %4, align 4, !dbg !200
  %73 = sub nsw i32 %72, 1, !dbg !200
  %74 = alloca float, i32 %73, align 4, !dbg !200
  call void @llvm.dbg.declare(metadata !{float* %74}, metadata !203), !dbg !204
  call void @llvm.dbg.declare(metadata !{float* %accumA}, metadata !205), !dbg !206
  store float 0.000000e+00, float* %accumA, align 4, !dbg !207
  call void @llvm.dbg.declare(metadata !{float* %accumB}, metadata !208), !dbg !209
  store float 0.000000e+00, float* %accumB, align 4, !dbg !210
  call void @llvm.dbg.declare(metadata !{float* %accumCov}, metadata !211), !dbg !212
  store float 0.000000e+00, float* %accumCov, align 4, !dbg !213
  call void @llvm.dbg.declare(metadata !{float* %volatilityA}, metadata !214), !dbg !215
  call void @llvm.dbg.declare(metadata !{float* %volatilityB}, metadata !216), !dbg !217
  call void @llvm.dbg.declare(metadata !{i32* %i_sw}, metadata !218), !dbg !219
  store i32 0, i32* %i_sw, align 4, !dbg !220
  br label %75, !dbg !220

; <label>:75                                      ; preds = %137, %68
  %76 = load i32* %i_sw, align 4, !dbg !222
  %77 = load i32* %4, align 4, !dbg !222
  %78 = sub nsw i32 %77, 1, !dbg !222
  %79 = icmp slt i32 %76, %78, !dbg !222
  br i1 %79, label %80, label %140, !dbg !222

; <label>:80                                      ; preds = %75
  %81 = load i32* %i_sw, align 4, !dbg !225
  %82 = getelementptr inbounds float* %11, i32 %81, !dbg !225
  %83 = load float* %82, align 4, !dbg !225
  %84 = load float* %meanReturnA, align 4, !dbg !225
  %85 = fsub float %83, %84, !dbg !225
  %86 = load i32* %i_sw, align 4, !dbg !225
  %87 = getelementptr inbounds float* %71, i32 %86, !dbg !225
  store float %85, float* %87, align 4, !dbg !225
  %88 = load i32* %i_sw, align 4, !dbg !227
  %89 = getelementptr inbounds float* %14, i32 %88, !dbg !227
  %90 = load float* %89, align 4, !dbg !227
  %91 = load float* %meanReturnB, align 4, !dbg !227
  %92 = fsub float %90, %91, !dbg !227
  %93 = load i32* %i_sw, align 4, !dbg !227
  %94 = getelementptr inbounds float* %74, i32 %93, !dbg !227
  store float %92, float* %94, align 4, !dbg !227
  %95 = load i32* %i_sw, align 4, !dbg !228
  %96 = getelementptr inbounds float* %71, i32 %95, !dbg !228
  %97 = load float* %96, align 4, !dbg !228
  %98 = load i32* %i_sw, align 4, !dbg !228
  %99 = getelementptr inbounds float* %71, i32 %98, !dbg !228
  %100 = load float* %99, align 4, !dbg !228
  %101 = fmul float %97, %100, !dbg !228
  %102 = load i32* %i_sw, align 4, !dbg !228
  %103 = load float** %3, align 4, !dbg !228
  %104 = getelementptr inbounds float* %103, i32 %102, !dbg !228
  %105 = load float* %104, align 4, !dbg !228
  %106 = fmul float %101, %105, !dbg !228
  %107 = load float* %accumA, align 4, !dbg !228
  %108 = fadd float %107, %106, !dbg !228
  store float %108, float* %accumA, align 4, !dbg !228
  %109 = load i32* %i_sw, align 4, !dbg !229
  %110 = getelementptr inbounds float* %74, i32 %109, !dbg !229
  %111 = load float* %110, align 4, !dbg !229
  %112 = load i32* %i_sw, align 4, !dbg !229
  %113 = getelementptr inbounds float* %74, i32 %112, !dbg !229
  %114 = load float* %113, align 4, !dbg !229
  %115 = fmul float %111, %114, !dbg !229
  %116 = load i32* %i_sw, align 4, !dbg !229
  %117 = load float** %3, align 4, !dbg !229
  %118 = getelementptr inbounds float* %117, i32 %116, !dbg !229
  %119 = load float* %118, align 4, !dbg !229
  %120 = fmul float %115, %119, !dbg !229
  %121 = load float* %accumB, align 4, !dbg !229
  %122 = fadd float %121, %120, !dbg !229
  store float %122, float* %accumB, align 4, !dbg !229
  %123 = load i32* %i_sw, align 4, !dbg !230
  %124 = getelementptr inbounds float* %71, i32 %123, !dbg !230
  %125 = load float* %124, align 4, !dbg !230
  %126 = load i32* %i_sw, align 4, !dbg !230
  %127 = getelementptr inbounds float* %74, i32 %126, !dbg !230
  %128 = load float* %127, align 4, !dbg !230
  %129 = fmul float %125, %128, !dbg !230
  %130 = load i32* %i_sw, align 4, !dbg !230
  %131 = load float** %3, align 4, !dbg !230
  %132 = getelementptr inbounds float* %131, i32 %130, !dbg !230
  %133 = load float* %132, align 4, !dbg !230
  %134 = fmul float %129, %133, !dbg !230
  %135 = load float* %accumCov, align 4, !dbg !230
  %136 = fadd float %135, %134, !dbg !230
  store float %136, float* %accumCov, align 4, !dbg !230
  br label %137, !dbg !231

; <label>:137                                     ; preds = %80
  %138 = load i32* %i_sw, align 4, !dbg !232
  %139 = add nsw i32 %138, 1, !dbg !232
  store i32 %139, i32* %i_sw, align 4, !dbg !232
  br label %75, !dbg !232

; <label>:140                                     ; preds = %75
  %141 = load float* %accumA, align 4, !dbg !233
  %142 = load float** %5, align 4, !dbg !233
  %143 = load float* %142, align 4, !dbg !233
  %144 = fdiv float %141, %143, !dbg !233
  %145 = call float @sqrtf(float %144) #1, !dbg !233
  store float %145, float* %volatilityA, align 4, !dbg !233
  %146 = load float* %accumB, align 4, !dbg !234
  %147 = load float** %5, align 4, !dbg !234
  %148 = load float* %147, align 4, !dbg !234
  %149 = fdiv float %146, %148, !dbg !234
  %150 = call float @sqrtf(float %149) #1, !dbg !234
  store float %150, float* %volatilityB, align 4, !dbg !234
  call void @llvm.dbg.declare(metadata !{float* %covariance}, metadata !235), !dbg !236
  %151 = load float* %accumCov, align 4, !dbg !237
  %152 = load float** %5, align 4, !dbg !237
  %153 = load float* %152, align 4, !dbg !237
  %154 = fdiv float %151, %153, !dbg !237
  store float %154, float* %covariance, align 4, !dbg !237
  %155 = load float* %covariance, align 4, !dbg !238
  %156 = load float* %volatilityA, align 4, !dbg !238
  %157 = load float* %volatilityB, align 4, !dbg !238
  %158 = fmul float %156, %157, !dbg !238
  %159 = fdiv float %155, %158, !dbg !238
  store i32 1, i32* %7
  %160 = load i8** %6, !dbg !239
  call void @llvm.stackrestore(i8* %160), !dbg !239
  ret float %159, !dbg !239
}

; Function Attrs: nounwind readnone
declare void @llvm.dbg.declare(metadata, metadata) #3

; Function Attrs: nounwind
declare i8* @llvm.stacksave() #1

; Function Attrs: nounwind
declare float @logf(float) #2

; Function Attrs: nounwind
declare float @sqrtf(float) #2

; Function Attrs: nounwind
declare void @llvm.stackrestore(i8*) #1

; Function Attrs: nounwind
define float @_Z21correlationComp_v2_swPfS_S_iS_(float* %indexA, float* %indexB, float* %weight, i32 %size, float* %weightSum) #2 {
  %1 = alloca float*, align 4
  %2 = alloca float*, align 4
  %3 = alloca float*, align 4
  %4 = alloca i32, align 4
  %5 = alloca float*, align 4
  %lnReturnA = alloca float, align 4
  %lnReturnB = alloca float, align 4
  %meanReturnA = alloca float, align 4
  %meanReturnB = alloca float, align 4
  %sumLogReturnA = alloca float, align 4
  %sumWeightRetA = alloca float, align 4
  %sumWeightRet2A = alloca float, align 4
  %sumLogReturnB = alloca float, align 4
  %sumWeightRetB = alloca float, align 4
  %sumWeightRet2B = alloca float, align 4
  %sumWeightRetARetB = alloca float, align 4
  %i = alloca i32, align 4
  %volatilityA = alloca float, align 4
  %volatilityB = alloca float, align 4
  %covariance = alloca float, align 4
  store float* %indexA, float** %1, align 4
  call void @llvm.dbg.declare(metadata !{float** %1}, metadata !240), !dbg !241
  store float* %indexB, float** %2, align 4
  call void @llvm.dbg.declare(metadata !{float** %2}, metadata !242), !dbg !243
  store float* %weight, float** %3, align 4
  call void @llvm.dbg.declare(metadata !{float** %3}, metadata !244), !dbg !245
  store i32 %size, i32* %4, align 4
  call void @llvm.dbg.declare(metadata !{i32* %4}, metadata !246), !dbg !247
  store float* %weightSum, float** %5, align 4
  call void @llvm.dbg.declare(metadata !{float** %5}, metadata !248), !dbg !249
  call void @llvm.dbg.declare(metadata !{float* %lnReturnA}, metadata !250), !dbg !251
  call void @llvm.dbg.declare(metadata !{float* %lnReturnB}, metadata !252), !dbg !253
  call void @llvm.dbg.declare(metadata !{float* %meanReturnA}, metadata !254), !dbg !255
  store float 0.000000e+00, float* %meanReturnA, align 4, !dbg !256
  call void @llvm.dbg.declare(metadata !{float* %meanReturnB}, metadata !257), !dbg !258
  store float 0.000000e+00, float* %meanReturnB, align 4, !dbg !259
  call void @llvm.dbg.declare(metadata !{float* %sumLogReturnA}, metadata !260), !dbg !261
  store float 0.000000e+00, float* %sumLogReturnA, align 4, !dbg !262
  call void @llvm.dbg.declare(metadata !{float* %sumWeightRetA}, metadata !263), !dbg !264
  store float 0.000000e+00, float* %sumWeightRetA, align 4, !dbg !265
  call void @llvm.dbg.declare(metadata !{float* %sumWeightRet2A}, metadata !266), !dbg !267
  store float 0.000000e+00, float* %sumWeightRet2A, align 4, !dbg !268
  call void @llvm.dbg.declare(metadata !{float* %sumLogReturnB}, metadata !269), !dbg !270
  store float 0.000000e+00, float* %sumLogReturnB, align 4, !dbg !271
  call void @llvm.dbg.declare(metadata !{float* %sumWeightRetB}, metadata !272), !dbg !273
  store float 0.000000e+00, float* %sumWeightRetB, align 4, !dbg !274
  call void @llvm.dbg.declare(metadata !{float* %sumWeightRet2B}, metadata !275), !dbg !276
  store float 0.000000e+00, float* %sumWeightRet2B, align 4, !dbg !277
  call void @llvm.dbg.declare(metadata !{float* %sumWeightRetARetB}, metadata !278), !dbg !279
  store float 0.000000e+00, float* %sumWeightRetARetB, align 4, !dbg !280
  call void @llvm.dbg.declare(metadata !{i32* %i}, metadata !281), !dbg !282
  store i32 0, i32* %i, align 4, !dbg !283
  br label %6, !dbg !283

; <label>:6                                       ; preds = %86, %0
  %7 = load i32* %i, align 4, !dbg !285
  %8 = load i32* %4, align 4, !dbg !285
  %9 = sub nsw i32 %8, 1, !dbg !285
  %10 = icmp slt i32 %7, %9, !dbg !285
  br i1 %10, label %11, label %89, !dbg !285

; <label>:11                                      ; preds = %6
  %12 = load i32* %i, align 4, !dbg !288
  %13 = load float** %1, align 4, !dbg !288
  %14 = getelementptr inbounds float* %13, i32 %12, !dbg !288
  %15 = load float* %14, align 4, !dbg !288
  %16 = load i32* %i, align 4, !dbg !288
  %17 = add nsw i32 %16, 1, !dbg !288
  %18 = load float** %1, align 4, !dbg !288
  %19 = getelementptr inbounds float* %18, i32 %17, !dbg !288
  %20 = load float* %19, align 4, !dbg !288
  %21 = fdiv float %15, %20, !dbg !288
  %22 = call float @logf(float %21) #1, !dbg !288
  store float %22, float* %lnReturnA, align 4, !dbg !288
  %23 = load i32* %i, align 4, !dbg !290
  %24 = load float** %2, align 4, !dbg !290
  %25 = getelementptr inbounds float* %24, i32 %23, !dbg !290
  %26 = load float* %25, align 4, !dbg !290
  %27 = load i32* %i, align 4, !dbg !290
  %28 = add nsw i32 %27, 1, !dbg !290
  %29 = load float** %2, align 4, !dbg !290
  %30 = getelementptr inbounds float* %29, i32 %28, !dbg !290
  %31 = load float* %30, align 4, !dbg !290
  %32 = fdiv float %26, %31, !dbg !290
  %33 = call float @logf(float %32) #1, !dbg !290
  store float %33, float* %lnReturnB, align 4, !dbg !290
  %34 = load float* %lnReturnA, align 4, !dbg !291
  %35 = load float* %sumLogReturnA, align 4, !dbg !291
  %36 = fadd float %35, %34, !dbg !291
  store float %36, float* %sumLogReturnA, align 4, !dbg !291
  %37 = load i32* %i, align 4, !dbg !292
  %38 = load float** %3, align 4, !dbg !292
  %39 = getelementptr inbounds float* %38, i32 %37, !dbg !292
  %40 = load float* %39, align 4, !dbg !292
  %41 = load float* %lnReturnA, align 4, !dbg !292
  %42 = fmul float %40, %41, !dbg !292
  %43 = load float* %sumWeightRetA, align 4, !dbg !292
  %44 = fadd float %43, %42, !dbg !292
  store float %44, float* %sumWeightRetA, align 4, !dbg !292
  %45 = load i32* %i, align 4, !dbg !293
  %46 = load float** %3, align 4, !dbg !293
  %47 = getelementptr inbounds float* %46, i32 %45, !dbg !293
  %48 = load float* %47, align 4, !dbg !293
  %49 = load float* %lnReturnA, align 4, !dbg !293
  %50 = fmul float %48, %49, !dbg !293
  %51 = load float* %lnReturnA, align 4, !dbg !293
  %52 = fmul float %50, %51, !dbg !293
  %53 = load float* %sumWeightRet2A, align 4, !dbg !293
  %54 = fadd float %53, %52, !dbg !293
  store float %54, float* %sumWeightRet2A, align 4, !dbg !293
  %55 = load float* %lnReturnB, align 4, !dbg !294
  %56 = load float* %sumLogReturnB, align 4, !dbg !294
  %57 = fadd float %56, %55, !dbg !294
  store float %57, float* %sumLogReturnB, align 4, !dbg !294
  %58 = load i32* %i, align 4, !dbg !295
  %59 = load float** %3, align 4, !dbg !295
  %60 = getelementptr inbounds float* %59, i32 %58, !dbg !295
  %61 = load float* %60, align 4, !dbg !295
  %62 = load float* %lnReturnB, align 4, !dbg !295
  %63 = fmul float %61, %62, !dbg !295
  %64 = load float* %sumWeightRetB, align 4, !dbg !295
  %65 = fadd float %64, %63, !dbg !295
  store float %65, float* %sumWeightRetB, align 4, !dbg !295
  %66 = load i32* %i, align 4, !dbg !296
  %67 = load float** %3, align 4, !dbg !296
  %68 = getelementptr inbounds float* %67, i32 %66, !dbg !296
  %69 = load float* %68, align 4, !dbg !296
  %70 = load float* %lnReturnB, align 4, !dbg !296
  %71 = fmul float %69, %70, !dbg !296
  %72 = load float* %lnReturnB, align 4, !dbg !296
  %73 = fmul float %71, %72, !dbg !296
  %74 = load float* %sumWeightRet2B, align 4, !dbg !296
  %75 = fadd float %74, %73, !dbg !296
  store float %75, float* %sumWeightRet2B, align 4, !dbg !296
  %76 = load i32* %i, align 4, !dbg !297
  %77 = load float** %3, align 4, !dbg !297
  %78 = getelementptr inbounds float* %77, i32 %76, !dbg !297
  %79 = load float* %78, align 4, !dbg !297
  %80 = load float* %lnReturnA, align 4, !dbg !297
  %81 = fmul float %79, %80, !dbg !297
  %82 = load float* %lnReturnB, align 4, !dbg !297
  %83 = fmul float %81, %82, !dbg !297
  %84 = load float* %sumWeightRetARetB, align 4, !dbg !297
  %85 = fadd float %84, %83, !dbg !297
  store float %85, float* %sumWeightRetARetB, align 4, !dbg !297
  br label %86, !dbg !298

; <label>:86                                      ; preds = %11
  %87 = load i32* %i, align 4, !dbg !299
  %88 = add nsw i32 %87, 1, !dbg !299
  store i32 %88, i32* %i, align 4, !dbg !299
  br label %6, !dbg !299

; <label>:89                                      ; preds = %6
  %90 = load float* %sumLogReturnA, align 4, !dbg !300
  %91 = load i32* %4, align 4, !dbg !300
  %92 = sub nsw i32 %91, 1, !dbg !300
  %93 = sitofp i32 %92 to float, !dbg !300
  %94 = fdiv float %90, %93, !dbg !300
  store float %94, float* %meanReturnA, align 4, !dbg !300
  %95 = load float* %sumLogReturnB, align 4, !dbg !301
  %96 = load i32* %4, align 4, !dbg !301
  %97 = sub nsw i32 %96, 1, !dbg !301
  %98 = sitofp i32 %97 to float, !dbg !301
  %99 = fdiv float %95, %98, !dbg !301
  store float %99, float* %meanReturnB, align 4, !dbg !301
  call void @llvm.dbg.declare(metadata !{float* %volatilityA}, metadata !302), !dbg !303
  call void @llvm.dbg.declare(metadata !{float* %volatilityB}, metadata !304), !dbg !305
  %100 = load float* %sumWeightRet2A, align 4, !dbg !306
  %101 = load float* %sumWeightRetA, align 4, !dbg !306
  %102 = fmul float 2.000000e+00, %101, !dbg !306
  %103 = load float* %meanReturnA, align 4, !dbg !306
  %104 = fmul float %102, %103, !dbg !306
  %105 = fsub float %100, %104, !dbg !306
  %106 = load float** %5, align 4, !dbg !306
  %107 = load float* %106, align 4, !dbg !306
  %108 = fdiv float %105, %107, !dbg !306
  %109 = load float* %meanReturnA, align 4, !dbg !306
  %110 = load float* %meanReturnA, align 4, !dbg !306
  %111 = fmul float %109, %110, !dbg !306
  %112 = fadd float %108, %111, !dbg !306
  %113 = call float @sqrtf(float %112) #1, !dbg !306
  store float %113, float* %volatilityA, align 4, !dbg !306
  %114 = load float* %sumWeightRet2B, align 4, !dbg !307
  %115 = load float* %sumWeightRetB, align 4, !dbg !307
  %116 = fmul float 2.000000e+00, %115, !dbg !307
  %117 = load float* %meanReturnB, align 4, !dbg !307
  %118 = fmul float %116, %117, !dbg !307
  %119 = fsub float %114, %118, !dbg !307
  %120 = load float** %5, align 4, !dbg !307
  %121 = load float* %120, align 4, !dbg !307
  %122 = fdiv float %119, %121, !dbg !307
  %123 = load float* %meanReturnB, align 4, !dbg !307
  %124 = load float* %meanReturnB, align 4, !dbg !307
  %125 = fmul float %123, %124, !dbg !307
  %126 = fadd float %122, %125, !dbg !307
  %127 = call float @sqrtf(float %126) #1, !dbg !307
  store float %127, float* %volatilityB, align 4, !dbg !307
  call void @llvm.dbg.declare(metadata !{float* %covariance}, metadata !308), !dbg !309
  %128 = load float* %sumWeightRetARetB, align 4, !dbg !310
  %129 = load float* %sumWeightRetA, align 4, !dbg !310
  %130 = load float* %meanReturnB, align 4, !dbg !310
  %131 = fmul float %129, %130, !dbg !310
  %132 = fsub float %128, %131, !dbg !310
  %133 = load float* %sumWeightRetB, align 4, !dbg !310
  %134 = load float* %meanReturnA, align 4, !dbg !310
  %135 = fmul float %133, %134, !dbg !310
  %136 = fsub float %132, %135, !dbg !310
  %137 = load float** %5, align 4, !dbg !310
  %138 = load float* %137, align 4, !dbg !310
  %139 = fdiv float %136, %138, !dbg !310
  %140 = load float* %meanReturnA, align 4, !dbg !310
  %141 = load float* %meanReturnB, align 4, !dbg !310
  %142 = fmul float %140, %141, !dbg !310
  %143 = fadd float %139, %142, !dbg !310
  store float %143, float* %covariance, align 4, !dbg !310
  %144 = load float* %covariance, align 4, !dbg !311
  %145 = load float* %volatilityA, align 4, !dbg !311
  %146 = load float* %volatilityB, align 4, !dbg !311
  %147 = fmul float %145, %146, !dbg !311
  %148 = fdiv float %144, %147, !dbg !311
  ret float %148, !dbg !311
}

define void @_Z18correlation_goldenPfiiS_(float* %indices, i32 %number_of_indices, i32 %number_of_days_per_index, float* %correlation) #0 {
  %1 = alloca float*, align 4
  %2 = alloca i32, align 4
  %3 = alloca i32, align 4
  %4 = alloca float*, align 4
  %rom_size = alloca i32, align 4
  %5 = alloca i8*
  %index = alloca i32, align 4
  %i = alloca i32, align 4
  %j = alloca i32, align 4
  %indexA = alloca float*, align 4
  %indexB = alloca float*, align 4
  %correlation_temp = alloca float, align 4
  store float* %indices, float** %1, align 4
  call void @llvm.dbg.declare(metadata !{float** %1}, metadata !312), !dbg !313
  store i32 %number_of_indices, i32* %2, align 4
  call void @llvm.dbg.declare(metadata !{i32* %2}, metadata !314), !dbg !315
  store i32 %number_of_days_per_index, i32* %3, align 4
  call void @llvm.dbg.declare(metadata !{i32* %3}, metadata !316), !dbg !317
  store float* %correlation, float** %4, align 4
  call void @llvm.dbg.declare(metadata !{float** %4}, metadata !318), !dbg !319
  call void @llvm.dbg.declare(metadata !{i32* %rom_size}, metadata !320), !dbg !321
  %6 = load i32* %3, align 4, !dbg !322
  %7 = sub nsw i32 %6, 1, !dbg !322
  store i32 %7, i32* %rom_size, align 4, !dbg !322
  %8 = load i32* %rom_size, align 4, !dbg !323
  %9 = call i8* @llvm.stacksave(), !dbg !323
  store i8* %9, i8** %5, !dbg !323
  %10 = alloca float, i32 %8, align 4, !dbg !323
  call void @llvm.dbg.declare(metadata !{float* %10}, metadata !324), !dbg !325
  %11 = load i32* %3, align 4, !dbg !326
  call void @_ZL10weightCompPfiS_(float* %10, i32 %11, float* @_ZZ18correlation_goldenPfiiS_E9weightSum), !dbg !326
  call void @llvm.dbg.declare(metadata !{i32* %index}, metadata !327), !dbg !328
  store i32 0, i32* %index, align 4, !dbg !329
  call void @llvm.dbg.declare(metadata !{i32* %i}, metadata !330), !dbg !331
  store i32 0, i32* %i, align 4, !dbg !332
  br label %12, !dbg !332

; <label>:12                                      ; preds = %57, %0
  %13 = load i32* %i, align 4, !dbg !334
  %14 = load i32* %2, align 4, !dbg !334
  %15 = sub nsw i32 %14, 1, !dbg !334
  %16 = icmp slt i32 %13, %15, !dbg !334
  br i1 %16, label %17, label %60, !dbg !334

; <label>:17                                      ; preds = %12
  call void @llvm.dbg.declare(metadata !{i32* %j}, metadata !337), !dbg !339
  %18 = load i32* %i, align 4, !dbg !340
  %19 = add nsw i32 %18, 1, !dbg !340
  store i32 %19, i32* %j, align 4, !dbg !340
  br label %20, !dbg !340

; <label>:20                                      ; preds = %53, %17
  %21 = load i32* %j, align 4, !dbg !342
  %22 = load i32* %2, align 4, !dbg !342
  %23 = icmp slt i32 %21, %22, !dbg !342
  br i1 %23, label %24, label %56, !dbg !342

; <label>:24                                      ; preds = %20
  call void @llvm.dbg.declare(metadata !{float** %indexA}, metadata !345), !dbg !347
  %25 = load float** %1, align 4, !dbg !348
  %26 = load i32* %i, align 4, !dbg !348
  %27 = load i32* %3, align 4, !dbg !348
  %28 = mul nsw i32 %26, %27, !dbg !348
  %29 = getelementptr inbounds float* %25, i32 %28, !dbg !348
  store float* %29, float** %indexA, align 4, !dbg !348
  call void @llvm.dbg.declare(metadata !{float** %indexB}, metadata !349), !dbg !350
  %30 = load float** %1, align 4, !dbg !351
  %31 = load i32* %j, align 4, !dbg !351
  %32 = load i32* %3, align 4, !dbg !351
  %33 = mul nsw i32 %31, %32, !dbg !351
  %34 = getelementptr inbounds float* %30, i32 %33, !dbg !351
  store float* %34, float** %indexB, align 4, !dbg !351
  %35 = load float** %indexA, align 4, !dbg !352
  %36 = icmp eq float* %35, null, !dbg !352
  br i1 %36, label %40, label %37, !dbg !352

; <label>:37                                      ; preds = %24
  %38 = load float** %indexB, align 4, !dbg !354
  %39 = icmp eq float* %38, null, !dbg !354
  br i1 %39, label %40, label %42, !dbg !354

; <label>:40                                      ; preds = %37, %24
  %41 = call i32 (i8*, ...)* @printf(i8* getelementptr inbounds ([52 x i8]* @.str, i32 0, i32 0)), !dbg !356
  br label %42, !dbg !358

; <label>:42                                      ; preds = %40, %37
  call void @llvm.dbg.declare(metadata !{float* %correlation_temp}, metadata !359), !dbg !360
  %43 = load float** %indexA, align 4, !dbg !361
  %44 = load float** %indexB, align 4, !dbg !361
  %45 = load i32* %3, align 4, !dbg !361
  %46 = call float @_Z21correlationComp_v2_swPfS_S_iS_(float* %43, float* %44, float* %10, i32 %45, float* @_ZZ18correlation_goldenPfiiS_E9weightSum), !dbg !361
  store float %46, float* %correlation_temp, align 4, !dbg !361
  %47 = load float* %correlation_temp, align 4, !dbg !362
  %48 = load float** %4, align 4, !dbg !362
  %49 = load i32* %index, align 4, !dbg !362
  %50 = getelementptr inbounds float* %48, i32 %49, !dbg !362
  store float %47, float* %50, align 4, !dbg !362
  %51 = load i32* %index, align 4, !dbg !363
  %52 = add nsw i32 %51, 1, !dbg !363
  store i32 %52, i32* %index, align 4, !dbg !363
  br label %53, !dbg !364

; <label>:53                                      ; preds = %42
  %54 = load i32* %j, align 4, !dbg !365
  %55 = add nsw i32 %54, 1, !dbg !365
  store i32 %55, i32* %j, align 4, !dbg !365
  br label %20, !dbg !365

; <label>:56                                      ; preds = %20
  br label %57, !dbg !366

; <label>:57                                      ; preds = %56
  %58 = load i32* %i, align 4, !dbg !367
  %59 = add nsw i32 %58, 1, !dbg !367
  store i32 %59, i32* %i, align 4, !dbg !367
  br label %12, !dbg !367

; <label>:60                                      ; preds = %12
  %61 = load i8** %5, !dbg !368
  call void @llvm.stackrestore(i8* %61), !dbg !368
  ret void, !dbg !368
}

; Function Attrs: nounwind
define internal void @_ZL10weightCompPfiS_(float* %weight, i32 %size, float* %weightSum) #2 {
  %1 = alloca float*, align 4
  %2 = alloca i32, align 4
  %3 = alloca float*, align 4
  %i = alloca i32, align 4
  store float* %weight, float** %1, align 4
  call void @llvm.dbg.declare(metadata !{float** %1}, metadata !369), !dbg !370
  store i32 %size, i32* %2, align 4
  call void @llvm.dbg.declare(metadata !{i32* %2}, metadata !371), !dbg !372
  store float* %weightSum, float** %3, align 4
  call void @llvm.dbg.declare(metadata !{float** %3}, metadata !373), !dbg !374
  %4 = load float** %1, align 4, !dbg !375
  %5 = getelementptr inbounds float* %4, i32 0, !dbg !375
  store float 1.000000e+00, float* %5, align 4, !dbg !375
  %6 = load float** %3, align 4, !dbg !376
  store float 1.000000e+00, float* %6, align 4, !dbg !376
  call void @llvm.dbg.declare(metadata !{i32* %i}, metadata !377), !dbg !378
  store i32 1, i32* %i, align 4, !dbg !379
  br label %7, !dbg !379

; <label>:7                                       ; preds = %31, %0
  %8 = load i32* %i, align 4, !dbg !381
  %9 = load i32* %2, align 4, !dbg !381
  %10 = sub nsw i32 %9, 1, !dbg !381
  %11 = icmp slt i32 %8, %10, !dbg !381
  br i1 %11, label %12, label %34, !dbg !381

; <label>:12                                      ; preds = %7
  %13 = load i32* %i, align 4, !dbg !384
  %14 = sub nsw i32 %13, 1, !dbg !384
  %15 = load float** %1, align 4, !dbg !384
  %16 = getelementptr inbounds float* %15, i32 %14, !dbg !384
  %17 = load float* %16, align 4, !dbg !384
  %18 = fpext float %17 to double, !dbg !384
  %19 = fmul double %18, 9.400000e-01, !dbg !384
  %20 = fptrunc double %19 to float, !dbg !384
  %21 = load i32* %i, align 4, !dbg !384
  %22 = load float** %1, align 4, !dbg !384
  %23 = getelementptr inbounds float* %22, i32 %21, !dbg !384
  store float %20, float* %23, align 4, !dbg !384
  %24 = load i32* %i, align 4, !dbg !386
  %25 = load float** %1, align 4, !dbg !386
  %26 = getelementptr inbounds float* %25, i32 %24, !dbg !386
  %27 = load float* %26, align 4, !dbg !386
  %28 = load float** %3, align 4, !dbg !386
  %29 = load float* %28, align 4, !dbg !386
  %30 = fadd float %29, %27, !dbg !386
  store float %30, float* %28, align 4, !dbg !386
  br label %31, !dbg !387

; <label>:31                                      ; preds = %12
  %32 = load i32* %i, align 4, !dbg !388
  %33 = add nsw i32 %32, 1, !dbg !388
  store i32 %33, i32* %i, align 4, !dbg !388
  br label %7, !dbg !388

; <label>:34                                      ; preds = %7
  ret void, !dbg !389
}

declare i32 @printf(i8*, ...) #0

define i32 @main(i32 %argc, i8** %argv) #0 {
  %1 = alloca i32, align 4
  %2 = alloca i32, align 4
  %3 = alloca i8**, align 4
  %number_of_days_per_index = alloca i32, align 4
  %all_indices_size = alloca i32, align 4
  %indices_buff = alloca float*, align 4
  %correlation_buff = alloca float*, align 4
  %correlation_sw = alloca float*, align 4
  %number_of_indices = alloca i32, align 4
  %clock_start = alloca i64, align 8
  %clock_end = alloca i64, align 8
  %number_of_result = alloca i32, align 4
  %status = alloca i8, align 1
  store i32 0, i32* %1
  store i32 %argc, i32* %2, align 4
  call void @llvm.dbg.declare(metadata !{i32* %2}, metadata !390), !dbg !391
  store i8** %argv, i8*** %3, align 4
  call void @llvm.dbg.declare(metadata !{i8*** %3}, metadata !392), !dbg !393
  call void @Xil_DCacheEnable(), !dbg !394
  call void @llvm.dbg.declare(metadata !{i32* %number_of_days_per_index}, metadata !395), !dbg !396
  store i32 252, i32* %number_of_days_per_index, align 4, !dbg !397
  call void @llvm.dbg.declare(metadata !{i32* %all_indices_size}, metadata !398), !dbg !399
  %4 = load i32* %number_of_days_per_index, align 4, !dbg !400
  %5 = mul nsw i32 10000, %4, !dbg !400
  %6 = mul i32 %5, 4, !dbg !400
  store i32 %6, i32* %all_indices_size, align 4, !dbg !400
  call void @llvm.dbg.declare(metadata !{float** %indices_buff}, metadata !401), !dbg !402
  store float* null, float** %indices_buff, align 4, !dbg !403
  %7 = load i32* %all_indices_size, align 4, !dbg !404
  %8 = load float** %indices_buff, align 4, !dbg !404
  %9 = bitcast float* %8 to i8*, !dbg !404
  %10 = call i8* @sds_mmap(i8* inttoptr (i32 285212672 to i8*), i32 %7, i8* %9), !dbg !404
  %11 = bitcast i8* %10 to float*, !dbg !404
  store float* %11, float** %indices_buff, align 4, !dbg !404
  call void @llvm.dbg.declare(metadata !{float** %correlation_buff}, metadata !405), !dbg !406
  store float* null, float** %correlation_buff, align 4, !dbg !407
  %12 = load float** %correlation_buff, align 4, !dbg !408
  %13 = bitcast float* %12 to i8*, !dbg !408
  %14 = call i8* @sds_mmap(i8* inttoptr (i32 16777216 to i8*), i32 199980000, i8* %13), !dbg !408
  %15 = bitcast i8* %14 to float*, !dbg !408
  store float* %15, float** %correlation_buff, align 4, !dbg !408
  call void @llvm.dbg.declare(metadata !{float** %correlation_sw}, metadata !409), !dbg !410
  store float* null, float** %correlation_sw, align 4, !dbg !411
  %16 = load float** %correlation_sw, align 4, !dbg !412
  %17 = bitcast float* %16 to i8*, !dbg !412
  %18 = call i8* @sds_mmap(i8* inttoptr (i32 335544320 to i8*), i32 1998000, i8* %17), !dbg !412
  %19 = bitcast i8* %18 to float*, !dbg !412
  store float* %19, float** %correlation_sw, align 4, !dbg !412
  %20 = load float** %indices_buff, align 4, !dbg !413
  %21 = ptrtoint float* %20 to i32, !dbg !413
  %22 = call zeroext i1 @_ZL12indices_initm(i32 %21), !dbg !413
  %23 = load float** %indices_buff, align 4, !dbg !414
  %24 = ptrtoint float* %23 to i32, !dbg !414
  %25 = load i32* %all_indices_size, align 4, !dbg !414
  call void @Xil_DCacheFlushRange(i32 %24, i32 %25), !dbg !414
  call void @llvm.dbg.declare(metadata !{i32* %number_of_indices}, metadata !415), !dbg !416
  %26 = call i32 (i8*, ...)* @printf(i8* getelementptr inbounds ([22 x i8]* @.str1, i32 0, i32 0)), !dbg !417
  %27 = call i32 (i8*, ...)* @scanf(i8* getelementptr inbounds ([3 x i8]* @.str2, i32 0, i32 0), i32* %number_of_indices), !dbg !418
  %28 = call i32 (i8*, ...)* @printf(i8* getelementptr inbounds ([3 x i8]* @.str3, i32 0, i32 0)), !dbg !419
  call void @llvm.dbg.declare(metadata !{i64* %clock_start}, metadata !420), !dbg !422
  call void @llvm.dbg.declare(metadata !{i64* %clock_end}, metadata !423), !dbg !422
  %29 = call i64 @sds_clock_counter(), !dbg !422
  store i64 %29, i64* %clock_start, align 8, !dbg !422
  %30 = load i32* %number_of_days_per_index, align 4, !dbg !424
  %31 = load i32* %number_of_indices, align 4, !dbg !424
  %32 = load float** %indices_buff, align 4, !dbg !424
  %33 = load float** %correlation_buff, align 4, !dbg !424
  %34 = call i32 @_Z20correlation_accel_v1iiPfS_(i32 %30, i32 %31, float* %32, float* %33), !dbg !424
  %35 = call i64 @sds_clock_counter(), !dbg !425
  store i64 %35, i64* %clock_end, align 8, !dbg !425
  %36 = load i64* %clock_end, align 8, !dbg !425
  %37 = load i64* %clock_start, align 8, !dbg !425
  %38 = sub i64 %36, %37, !dbg !425
  %39 = uitofp i64 %38 to float, !dbg !425
  %40 = fdiv float %39, 6.670000e+08, !dbg !425
  %41 = fpext float %40 to double, !dbg !425
  %42 = call i32 (i8*, ...)* @printf(i8* getelementptr inbounds ([44 x i8]* @.str4, i32 0, i32 0), double %41), !dbg !425
  %43 = call i64 @sds_clock_counter(), !dbg !425
  store i64 %43, i64* %clock_start, align 8, !dbg !425
  %44 = load float** %indices_buff, align 4, !dbg !427
  %45 = load i32* %number_of_indices, align 4, !dbg !427
  %46 = load i32* %number_of_days_per_index, align 4, !dbg !427
  %47 = load float** %correlation_sw, align 4, !dbg !427
  call void @_Z18correlation_goldenPfiiS_(float* %44, i32 %45, i32 %46, float* %47), !dbg !427
  %48 = call i64 @sds_clock_counter(), !dbg !428
  store i64 %48, i64* %clock_end, align 8, !dbg !428
  %49 = load i64* %clock_end, align 8, !dbg !428
  %50 = load i64* %clock_start, align 8, !dbg !428
  %51 = sub i64 %49, %50, !dbg !428
  %52 = uitofp i64 %51 to float, !dbg !428
  %53 = fdiv float %52, 6.670000e+08, !dbg !428
  %54 = fpext float %53 to double, !dbg !428
  %55 = call i32 (i8*, ...)* @printf(i8* getelementptr inbounds ([42 x i8]* @.str5, i32 0, i32 0), double %54), !dbg !428
  call void @llvm.dbg.declare(metadata !{i32* %number_of_result}, metadata !430), !dbg !431
  %56 = load i32* %number_of_indices, align 4, !dbg !432
  %57 = load i32* %number_of_indices, align 4, !dbg !432
  %58 = sub nsw i32 %57, 1, !dbg !432
  %59 = mul nsw i32 %56, %58, !dbg !432
  %60 = sdiv i32 %59, 2, !dbg !432
  store i32 %60, i32* %number_of_result, align 4, !dbg !432
  call void @llvm.dbg.declare(metadata !{i8* %status}, metadata !433), !dbg !434
  %61 = load float** %correlation_buff, align 4, !dbg !435
  %62 = load float** %correlation_sw, align 4, !dbg !435
  %63 = load i32* %number_of_result, align 4, !dbg !435
  %64 = call zeroext i1 @_ZL11checkResultPfS_if(float* %61, float* %62, i32 %63, float 0x3EE4F8B580000000), !dbg !435
  %65 = zext i1 %64 to i8, !dbg !435
  store i8 %65, i8* %status, align 1, !dbg !435
  call void @Xil_DCacheDisable(), !dbg !436
  ret i32 0, !dbg !437
}

declare void @Xil_DCacheEnable() #0

declare i8* @sds_mmap(i8*, i32, i8*) #0

define internal zeroext i1 @_ZL12indices_initm(i32 %TX_BUFFER_BASE) #0 {
  %1 = alloca i32, align 4
  %NUM_OF_INDICES_IN_MEM = alloca i32, align 4
  %NUM_OF_DAYS_PER_INDEX = alloca i32, align 4
  %UPPER_BOUND = alloca i32, align 4
  %inputData = alloca [1260 x float], align 4
  %j = alloca i32, align 4
  %errorCount = alloca i32, align 4
  %status = alloca i32, align 4
  %j1 = alloca i32, align 4
  store i32 %TX_BUFFER_BASE, i32* %1, align 4
  call void @llvm.dbg.declare(metadata !{i32* %1}, metadata !438), !dbg !439
  call void @llvm.dbg.declare(metadata !{i32* %NUM_OF_INDICES_IN_MEM}, metadata !440), !dbg !441
  store i32 10000, i32* %NUM_OF_INDICES_IN_MEM, align 4, !dbg !442
  call void @llvm.dbg.declare(metadata !{i32* %NUM_OF_DAYS_PER_INDEX}, metadata !443), !dbg !444
  store i32 252, i32* %NUM_OF_DAYS_PER_INDEX, align 4, !dbg !445
  call void @llvm.dbg.declare(metadata !{i32* %UPPER_BOUND}, metadata !446), !dbg !447
  %2 = load i32* %NUM_OF_INDICES_IN_MEM, align 4, !dbg !448
  %3 = sdiv i32 %2, 10, !dbg !448
  store i32 %3, i32* %UPPER_BOUND, align 4, !dbg !448
  call void @llvm.dbg.declare(metadata !{[1260 x float]* %inputData}, metadata !449), !dbg !453
  %4 = bitcast [1260 x float]* %inputData to i8*, !dbg !454
  call void @llvm.memcpy.p0i8.p0i8.i32(i8* %4, i8* bitcast ([1260 x float]* @_ZZL12indices_initmE9inputData to i8*), i32 5040, i32 4, i1 false), !dbg !454
  %5 = load i32* %1, align 4, !dbg !455
  %6 = inttoptr i32 %5 to float*, !dbg !455
  %7 = bitcast float* %6 to i8*, !dbg !455
  %8 = getelementptr inbounds [1260 x float]* %inputData, i32 0, i32 0, !dbg !455
  %9 = bitcast float* %8 to i8*, !dbg !455
  %10 = load i32* %NUM_OF_DAYS_PER_INDEX, align 4, !dbg !455
  %11 = mul nsw i32 20, %10, !dbg !455
  call void @llvm.memcpy.p0i8.p0i8.i32(i8* %7, i8* %9, i32 %11, i32 4, i1 false), !dbg !455
  %12 = load i32* %1, align 4, !dbg !456
  %13 = inttoptr i32 %12 to float*, !dbg !456
  %14 = load i32* %NUM_OF_DAYS_PER_INDEX, align 4, !dbg !456
  %15 = mul nsw i32 %14, 5, !dbg !456
  %16 = getelementptr inbounds float* %13, i32 %15, !dbg !456
  %17 = bitcast float* %16 to i8*, !dbg !456
  %18 = getelementptr inbounds [1260 x float]* %inputData, i32 0, i32 0, !dbg !456
  %19 = bitcast float* %18 to i8*, !dbg !456
  %20 = load i32* %NUM_OF_DAYS_PER_INDEX, align 4, !dbg !456
  %21 = mul nsw i32 20, %20, !dbg !456
  call void @llvm.memcpy.p0i8.p0i8.i32(i8* %17, i8* %19, i32 %21, i32 4, i1 false), !dbg !456
  call void @llvm.dbg.declare(metadata !{i32* %j}, metadata !457), !dbg !459
  store i32 1, i32* %j, align 4, !dbg !460
  br label %22, !dbg !460

; <label>:22                                      ; preds = %42, %0
  %23 = load i32* %j, align 4, !dbg !461
  %24 = load i32* %UPPER_BOUND, align 4, !dbg !461
  %25 = icmp slt i32 %23, %24, !dbg !461
  br i1 %25, label %26, label %45, !dbg !461

; <label>:26                                      ; preds = %22
  %27 = load i32* %1, align 4, !dbg !464
  %28 = inttoptr i32 %27 to float*, !dbg !464
  %29 = load i32* %NUM_OF_DAYS_PER_INDEX, align 4, !dbg !464
  %30 = mul nsw i32 %29, 5, !dbg !464
  %31 = mul nsw i32 %30, 2, !dbg !464
  %32 = load i32* %j, align 4, !dbg !464
  %33 = mul nsw i32 %31, %32, !dbg !464
  %34 = getelementptr inbounds float* %28, i32 %33, !dbg !464
  %35 = bitcast float* %34 to i8*, !dbg !464
  %36 = load i32* %1, align 4, !dbg !464
  %37 = inttoptr i32 %36 to float*, !dbg !464
  %38 = bitcast float* %37 to i8*, !dbg !464
  %39 = load i32* %NUM_OF_DAYS_PER_INDEX, align 4, !dbg !464
  %40 = mul nsw i32 20, %39, !dbg !464
  %41 = mul nsw i32 %40, 2, !dbg !464
  call void @llvm.memcpy.p0i8.p0i8.i32(i8* %35, i8* %38, i32 %41, i32 4, i1 false), !dbg !464
  br label %42, !dbg !466

; <label>:42                                      ; preds = %26
  %43 = load i32* %j, align 4, !dbg !467
  %44 = add nsw i32 %43, 1, !dbg !467
  store i32 %44, i32* %j, align 4, !dbg !467
  br label %22, !dbg !467

; <label>:45                                      ; preds = %22
  call void @llvm.dbg.declare(metadata !{i32* %errorCount}, metadata !468), !dbg !469
  store i32 0, i32* %errorCount, align 4, !dbg !470
  call void @llvm.dbg.declare(metadata !{i32* %status}, metadata !471), !dbg !472
  call void @llvm.dbg.declare(metadata !{i32* %j1}, metadata !473), !dbg !475
  store i32 0, i32* %j1, align 4, !dbg !476
  br label %46, !dbg !476

; <label>:46                                      ; preds = %69, %45
  %47 = load i32* %j1, align 4, !dbg !477
  %48 = load i32* %UPPER_BOUND, align 4, !dbg !477
  %49 = mul nsw i32 %48, 2, !dbg !477
  %50 = icmp slt i32 %47, %49, !dbg !477
  br i1 %50, label %51, label %72, !dbg !477

; <label>:51                                      ; preds = %46
  %52 = load i32* %1, align 4, !dbg !480
  %53 = inttoptr i32 %52 to float*, !dbg !480
  %54 = load i32* %NUM_OF_DAYS_PER_INDEX, align 4, !dbg !480
  %55 = mul nsw i32 %54, 5, !dbg !480
  %56 = load i32* %j1, align 4, !dbg !480
  %57 = mul nsw i32 %55, %56, !dbg !480
  %58 = getelementptr inbounds float* %53, i32 %57, !dbg !480
  %59 = bitcast float* %58 to i8*, !dbg !480
  %60 = getelementptr inbounds [1260 x float]* %inputData, i32 0, i32 0, !dbg !480
  %61 = bitcast float* %60 to i8*, !dbg !480
  %62 = call i32 @memcmp(i8* %59, i8* %61, i32 5040), !dbg !480
  store i32 %62, i32* %status, align 4, !dbg !480
  %63 = load i32* %status, align 4, !dbg !482
  %64 = icmp ne i32 %63, 0, !dbg !482
  br i1 %64, label %65, label %68, !dbg !482

; <label>:65                                      ; preds = %51
  %66 = load i32* %errorCount, align 4, !dbg !484
  %67 = add nsw i32 %66, 1, !dbg !484
  store i32 %67, i32* %errorCount, align 4, !dbg !484
  br label %68, !dbg !486

; <label>:68                                      ; preds = %65, %51
  br label %69, !dbg !487

; <label>:69                                      ; preds = %68
  %70 = load i32* %j1, align 4, !dbg !488
  %71 = add nsw i32 %70, 1, !dbg !488
  store i32 %71, i32* %j1, align 4, !dbg !488
  br label %46, !dbg !488

; <label>:72                                      ; preds = %46
  %73 = load i32* %errorCount, align 4, !dbg !489
  %74 = icmp ne i32 %73, 0, !dbg !489
  br i1 %74, label %75, label %77, !dbg !489

; <label>:75                                      ; preds = %72
  %76 = call i32 (i8*, ...)* @printf(i8* getelementptr inbounds ([16 x i8]* @.str9, i32 0, i32 0)), !dbg !491
  ret i1 false, !dbg !493

; <label>:77                                      ; preds = %72
  call void @llvm.trap(), !dbg !494
  unreachable, !dbg !494
}

declare void @Xil_DCacheFlushRange(i32, i32) #0

declare i32 @scanf(i8*, ...) #0

declare i64 @sds_clock_counter() #0

declare i32 @_Z20correlation_accel_v1iiPfS_(i32, i32, float*, float*) #0

define internal zeroext i1 @_ZL11checkResultPfS_if(float* %hw_result, float* %sw_result, i32 %number_of_result, float %allowErrorThreshold) #0 {
  %1 = alloca i1, align 1
  %2 = alloca float*, align 4
  %3 = alloca float*, align 4
  %4 = alloca i32, align 4
  %5 = alloca float, align 4
  %i = alloca i32, align 4
  %errorCount_in = alloca i32, align 4
  %sw_result_temp = alloca float, align 4
  %hw_result_temp = alloca float, align 4
  store float* %hw_result, float** %2, align 4
  call void @llvm.dbg.declare(metadata !{float** %2}, metadata !496), !dbg !497
  store float* %sw_result, float** %3, align 4
  call void @llvm.dbg.declare(metadata !{float** %3}, metadata !498), !dbg !499
  store i32 %number_of_result, i32* %4, align 4
  call void @llvm.dbg.declare(metadata !{i32* %4}, metadata !500), !dbg !501
  store float %allowErrorThreshold, float* %5, align 4
  call void @llvm.dbg.declare(metadata !{float* %5}, metadata !502), !dbg !503
  call void @llvm.dbg.declare(metadata !{i32* %i}, metadata !504), !dbg !505
  call void @llvm.dbg.declare(metadata !{i32* %errorCount_in}, metadata !506), !dbg !507
  store i32 0, i32* %errorCount_in, align 4, !dbg !508
  %6 = load float** %2, align 4, !dbg !509
  %7 = ptrtoint float* %6 to i32, !dbg !509
  %8 = load i32* %4, align 4, !dbg !509
  %9 = mul nsw i32 %8, 4, !dbg !509
  call void @Xil_DCacheInvalidateRange(i32 %7, i32 %9), !dbg !509
  %10 = load float** %3, align 4, !dbg !510
  %11 = ptrtoint float* %10 to i32, !dbg !510
  %12 = load i32* %4, align 4, !dbg !510
  %13 = mul nsw i32 %12, 4, !dbg !510
  call void @Xil_DCacheInvalidateRange(i32 %11, i32 %13), !dbg !510
  store i32 0, i32* %i, align 4, !dbg !511
  br label %14, !dbg !511

; <label>:14                                      ; preds = %45, %0
  %15 = load i32* %i, align 4, !dbg !513
  %16 = load i32* %4, align 4, !dbg !513
  %17 = icmp slt i32 %15, %16, !dbg !513
  br i1 %17, label %18, label %48, !dbg !513

; <label>:18                                      ; preds = %14
  call void @llvm.dbg.declare(metadata !{float* %sw_result_temp}, metadata !516), !dbg !518
  %19 = load i32* %i, align 4, !dbg !519
  %20 = load float** %3, align 4, !dbg !519
  %21 = getelementptr inbounds float* %20, i32 %19, !dbg !519
  %22 = load float* %21, align 4, !dbg !519
  store float %22, float* %sw_result_temp, align 4, !dbg !519
  call void @llvm.dbg.declare(metadata !{float* %hw_result_temp}, metadata !520), !dbg !521
  %23 = load i32* %i, align 4, !dbg !522
  %24 = load float** %2, align 4, !dbg !522
  %25 = getelementptr inbounds float* %24, i32 %23, !dbg !522
  %26 = load float* %25, align 4, !dbg !522
  store float %26, float* %hw_result_temp, align 4, !dbg !522
  %27 = load float* %sw_result_temp, align 4, !dbg !523
  %28 = load float* %hw_result_temp, align 4, !dbg !523
  %29 = fsub float %27, %28, !dbg !523
  %30 = fptosi float %29 to i32, !dbg !523
  %31 = call i32 @abs(i32 %30) #3, !dbg !523
  %32 = sitofp i32 %31 to float, !dbg !523
  %33 = load float* %5, align 4, !dbg !523
  %34 = fcmp ogt float %32, %33, !dbg !523
  br i1 %34, label %35, label %44, !dbg !523

; <label>:35                                      ; preds = %18
  %36 = load i32* %errorCount_in, align 4, !dbg !525
  %37 = add nsw i32 %36, 1, !dbg !525
  store i32 %37, i32* %errorCount_in, align 4, !dbg !525
  %38 = load i32* %i, align 4, !dbg !527
  %39 = load float* %hw_result_temp, align 4, !dbg !527
  %40 = fpext float %39 to double, !dbg !527
  %41 = load float* %sw_result_temp, align 4, !dbg !527
  %42 = fpext float %41 to double, !dbg !527
  %43 = call i32 (i8*, ...)* @printf(i8* getelementptr inbounds ([27 x i8]* @.str6, i32 0, i32 0), i32 %38, double %40, double %42), !dbg !527
  br label %44, !dbg !528

; <label>:44                                      ; preds = %35, %18
  br label %45, !dbg !529

; <label>:45                                      ; preds = %44
  %46 = load i32* %i, align 4, !dbg !530
  %47 = add nsw i32 %46, 1, !dbg !530
  store i32 %47, i32* %i, align 4, !dbg !530
  br label %14, !dbg !530

; <label>:48                                      ; preds = %14
  %49 = load i32* %errorCount_in, align 4, !dbg !531
  %50 = icmp sgt i32 %49, 0, !dbg !531
  br i1 %50, label %51, label %53, !dbg !531

; <label>:51                                      ; preds = %48
  %52 = call i32 (i8*, ...)* @printf(i8* getelementptr inbounds ([18 x i8]* @.str7, i32 0, i32 0)), !dbg !533
  store i1 false, i1* %1, !dbg !535
  br label %55, !dbg !535

; <label>:53                                      ; preds = %48
  %54 = call i32 (i8*, ...)* @printf(i8* getelementptr inbounds ([18 x i8]* @.str8, i32 0, i32 0)), !dbg !536
  store i1 true, i1* %1, !dbg !538
  br label %55, !dbg !538

; <label>:55                                      ; preds = %53, %51
  %56 = load i1* %1, !dbg !539
  ret i1 %56, !dbg !539
}

declare void @Xil_DCacheDisable() #0

declare void @Xil_DCacheInvalidateRange(i32, i32) #0

; Function Attrs: nounwind readnone
declare i32 @abs(i32) #4

; Function Attrs: nounwind
declare void @llvm.memcpy.p0i8.p0i8.i32(i8* nocapture, i8* nocapture readonly, i32, i32, i1) #1

declare i32 @memcmp(i8*, i8*, i32) #0

; Function Attrs: noreturn nounwind
declare void @llvm.trap() #5

define internal void @_GLOBAL__sub_I_main.cpp() {
  call void @__cxx_global_var_init(), !dbg !540
  ret void, !dbg !540
}

attributes #0 = { "less-precise-fpmad"="false" "no-frame-pointer-elim"="true" "no-frame-pointer-elim-non-leaf" "no-infs-fp-math"="false" "no-nans-fp-math"="false" "stack-protector-buffer-size"="8" "unsafe-fp-math"="false" "use-soft-float"="false" }
attributes #1 = { nounwind }
attributes #2 = { nounwind "less-precise-fpmad"="false" "no-frame-pointer-elim"="true" "no-frame-pointer-elim-non-leaf" "no-infs-fp-math"="false" "no-nans-fp-math"="false" "stack-protector-buffer-size"="8" "unsafe-fp-math"="false" "use-soft-float"="false" }
attributes #3 = { nounwind readnone }
attributes #4 = { nounwind readnone "less-precise-fpmad"="false" "no-frame-pointer-elim"="true" "no-frame-pointer-elim-non-leaf" "no-infs-fp-math"="false" "no-nans-fp-math"="false" "stack-protector-buffer-size"="8" "unsafe-fp-math"="false" "use-soft-float"="false" }
attributes #5 = { noreturn nounwind }

!llvm.dbg.cu = !{!0}
!xidane.function_declaration_type = !{!108, !109, !110, !109, !111, !112, !113, !114, !115, !114, !116, !112, !117, !118, !119, !120, !121, !122, !123, !124, !125, !109, !126, !127, !128, !129, !130, !131, !132, !122, !133, !134, !135, !136, !137, !138, !139, !109, !140, !131, !141, !142, !143, !144}
!xidane.function_declaration_filename = !{!108, !145, !110, !145, !111, !146, !113, !147, !115, !147, !116, !146, !117, !146, !119, !146, !121, !148, !123, !146, !125, !149, !126, !150, !128, !146, !130, !149, !132, !148, !133, !150, !135, !151, !137, !146, !139, !149, !140, !149, !141, !152, !143, !153}
!xidane.ExternC = !{!113, !115, !121, !125, !126, !130, !132, !133, !139, !140, !141, !143}
!xidane.function_argument_annotation = !{!135, !154}
!llvm.module.flags = !{!155, !156, !157, !158}
!llvm.ident = !{!159}

!0 = metadata !{i32 786449, metadata !1, i32 4, metadata !"clang version 3.5.0 (tags/RELEASE_350/final)", i1 false, metadata !"", i32 0, metadata !2, metadata !3, metadata !38, metadata !78, metadata !81, metadata !"", i32 1} ; [ DW_TAG_compile_unit ] [/home/trungnguyen/SDSoC/workspace/correlation_ver1/correlation_ver1_standard_alone/SDRelease/../src/main.cpp] [DW_LANG_C_plus_plus]
!1 = metadata !{metadata !"../src/main.cpp", metadata !"/home/trungnguyen/SDSoC/workspace/correlation_ver1/correlation_ver1_standard_alone/SDRelease"}
!2 = metadata !{}
!3 = metadata !{metadata !4, metadata !10, metadata !20, metadata !22, metadata !26}
!4 = metadata !{i32 786451, metadata !5, null, metadata !"", i32 82, i64 64, i64 32, i32 0, i32 0, null, metadata !6, i32 0, null, null, metadata !"_ZTS10_mbstate_t"} ; [ DW_TAG_structure_type ] [line 82, size 64, align 32, offset 0] [def] [from ]
!5 = metadata !{metadata !"/opt/Xilinx/SDSoC/2014.4/SDK/2014.4/gnu/arm/lin/arm-xilinx-eabi/include/sys/_types.h", metadata !"/home/trungnguyen/SDSoC/workspace/correlation_ver1/correlation_ver1_standard_alone/SDRelease"}
!6 = metadata !{metadata !7, metadata !9}
!7 = metadata !{i32 786445, metadata !5, metadata !"_ZTS10_mbstate_t", metadata !"__count", i32 84, i64 32, i64 32, i64 0, i32 0, metadata !8} ; [ DW_TAG_member ] [__count] [line 84, size 32, align 32, offset 0] [from int]
!8 = metadata !{i32 786468, null, null, metadata !"int", i32 0, i64 32, i64 32, i64 0, i32 0, i32 5} ; [ DW_TAG_base_type ] [int] [line 0, size 32, align 32, offset 0, enc DW_ATE_signed]
!9 = metadata !{i32 786445, metadata !5, metadata !"_ZTS10_mbstate_t", metadata !"__value", i32 89, i64 32, i64 32, i64 32, i32 0, metadata !"_ZTSN10_mbstate_tUt_E"} ; [ DW_TAG_member ] [__value] [line 89, size 32, align 32, offset 32] [from _ZTSN10_mbstate_tUt_E]
!10 = metadata !{i32 786455, metadata !5, metadata !"_ZTS10_mbstate_t", metadata !"", i32 85, i64 32, i64 32, i64 0, i32 0, null, metadata !11, i32 0, null, null, metadata !"_ZTSN10_mbstate_tUt_E"} ; [ DW_TAG_union_type ] [line 85, size 32, align 32, offset 0] [def] [from ]
!11 = metadata !{metadata !12, metadata !15}
!12 = metadata !{i32 786445, metadata !5, metadata !"_ZTSN10_mbstate_tUt_E", metadata !"__wch", i32 87, i64 32, i64 32, i64 0, i32 0, metadata !13} ; [ DW_TAG_member ] [__wch] [line 87, size 32, align 32, offset 0] [from wint_t]
!13 = metadata !{i32 786454, metadata !14, null, metadata !"wint_t", i32 353, i64 0, i64 0, i64 0, i32 0, metadata !8} ; [ DW_TAG_typedef ] [wint_t] [line 353, size 0, align 0, offset 0] [from int]
!14 = metadata !{metadata !"/opt/Xilinx/SDSoC/2014.4/SDK/2014.4/gnu/arm/lin/lib/gcc/arm-xilinx-eabi/4.8.3/include/stddef.h", metadata !"/home/trungnguyen/SDSoC/workspace/correlation_ver1/correlation_ver1_standard_alone/SDRelease"}
!15 = metadata !{i32 786445, metadata !5, metadata !"_ZTSN10_mbstate_tUt_E", metadata !"__wchb", i32 88, i64 32, i64 8, i64 0, i32 0, metadata !16} ; [ DW_TAG_member ] [__wchb] [line 88, size 32, align 8, offset 0] [from ]
!16 = metadata !{i32 786433, null, null, metadata !"", i32 0, i64 32, i64 8, i32 0, i32 0, metadata !17, metadata !18, i32 0, null, null, null} ; [ DW_TAG_array_type ] [line 0, size 32, align 8, offset 0] [from unsigned char]
!17 = metadata !{i32 786468, null, null, metadata !"unsigned char", i32 0, i64 8, i64 8, i64 0, i32 0, i32 8} ; [ DW_TAG_base_type ] [unsigned char] [line 0, size 8, align 8, offset 0, enc DW_ATE_unsigned_char]
!18 = metadata !{metadata !19}
!19 = metadata !{i32 786465, i64 0, i64 4}        ; [ DW_TAG_subrange_type ] [0, 3]
!20 = metadata !{i32 786451, metadata !21, null, metadata !"lconv", i32 76, i64 0, i64 0, i32 0, i32 4, null, null, i32 0, null, null, metadata !"_ZTS5lconv"} ; [ DW_TAG_structure_type ] [lconv] [line 76, size 0, align 0, offset 0] [decl] [from ]
!21 = metadata !{metadata !"/opt/Xilinx/SDSoC/2014.4/SDK/2014.4/gnu/arm/lin/arm-xilinx-eabi/include/locale.h", metadata !"/home/trungnguyen/SDSoC/workspace/correlation_ver1/correlation_ver1_standard_alone/SDRelease"}
!22 = metadata !{i32 786434, metadata !23, metadata !24, metadata !"ios_base", i32 199, i64 0, i64 0, i32 0, i32 4, null, null, i32 0, null, null, metadata !"_ZTSSt8ios_base"} ; [ DW_TAG_class_type ] [ios_base] [line 199, size 0, align 0, offset 0] [decl] [from ]
!23 = metadata !{metadata !"/opt/Xilinx/SDSoC/2014.4/SDK/2014.4/gnu/arm/lin/arm-xilinx-eabi/include/c++/4.8.3/bits/ios_base.h", metadata !"/home/trungnguyen/SDSoC/workspace/correlation_ver1/correlation_ver1_standard_alone/SDRelease"}
!24 = metadata !{i32 786489, metadata !25, null, metadata !"std", i32 184} ; [ DW_TAG_namespace ] [std] [line 184]
!25 = metadata !{metadata !"/opt/Xilinx/SDSoC/2014.4/SDK/2014.4/gnu/arm/lin/arm-xilinx-eabi/include/c++/4.8.3/arm-xilinx-eabi/bits/c++config.h", metadata !"/home/trungnguyen/SDSoC/workspace/correlation_ver1/correlation_ver1_standard_alone/SDRelease"}
!26 = metadata !{i32 786434, metadata !23, metadata !"_ZTSSt8ios_base", metadata !"Init", i32 533, i64 8, i64 8, i32 0, i32 0, null, metadata !27, i32 0, null, null, metadata !"_ZTSNSt8ios_base4InitE"} ; [ DW_TAG_class_type ] [Init] [line 533, size 8, align 8, offset 0] [def] [from ]
!27 = metadata !{metadata !28, metadata !31, metadata !33, metadata !37}
!28 = metadata !{i32 786445, metadata !23, metadata !"_ZTSNSt8ios_base4InitE", metadata !"_S_refcount", i32 541, i64 0, i64 0, i64 0, i32 4097, metadata !29, null} ; [ DW_TAG_member ] [_S_refcount] [line 541, size 0, align 0, offset 0] [private] [static] [from _Atomic_word]
!29 = metadata !{i32 786454, metadata !30, null, metadata !"_Atomic_word", i32 32, i64 0, i64 0, i64 0, i32 0, metadata !8} ; [ DW_TAG_typedef ] [_Atomic_word] [line 32, size 0, align 0, offset 0] [from int]
!30 = metadata !{metadata !"/opt/Xilinx/SDSoC/2014.4/SDK/2014.4/gnu/arm/lin/arm-xilinx-eabi/include/c++/4.8.3/arm-xilinx-eabi/bits/atomic_word.h", metadata !"/home/trungnguyen/SDSoC/workspace/correlation_ver1/correlation_ver1_standard_alone/SDRelease"}
!31 = metadata !{i32 786445, metadata !23, metadata !"_ZTSNSt8ios_base4InitE", metadata !"_S_synced_with_stdio", i32 542, i64 0, i64 0, i64 0, i32 4097, metadata !32, null} ; [ DW_TAG_member ] [_S_synced_with_stdio] [line 542, size 0, align 0, offset 0] [private] [static] [from bool]
!32 = metadata !{i32 786468, null, null, metadata !"bool", i32 0, i64 8, i64 8, i64 0, i32 0, i32 2} ; [ DW_TAG_base_type ] [bool] [line 0, size 8, align 8, offset 0, enc DW_ATE_boolean]
!33 = metadata !{i32 786478, metadata !23, metadata !"_ZTSNSt8ios_base4InitE", metadata !"Init", metadata !"Init", metadata !"", i32 537, metadata !34, i1 false, i1 false, i32 0, i32 0, null, i32 256, i1 false, null, null, i32 0, null, i32 537} ; [ DW_TAG_subprogram ] [line 537] [Init]
!34 = metadata !{i32 786453, i32 0, null, metadata !"", i32 0, i64 0, i64 0, i64 0, i32 0, null, metadata !35, i32 0, null, null, null} ; [ DW_TAG_subroutine_type ] [line 0, size 0, align 0, offset 0] [from ]
!35 = metadata !{null, metadata !36}
!36 = metadata !{i32 786447, null, null, metadata !"", i32 0, i64 32, i64 32, i64 0, i32 1088, metadata !"_ZTSNSt8ios_base4InitE"} ; [ DW_TAG_pointer_type ] [line 0, size 32, align 32, offset 0] [artificial] [from _ZTSNSt8ios_base4InitE]
!37 = metadata !{i32 786478, metadata !23, metadata !"_ZTSNSt8ios_base4InitE", metadata !"~Init", metadata !"~Init", metadata !"", i32 538, metadata !34, i1 false, i1 false, i32 0, i32 0, null, i32 256, i1 false, null, null, i32 0, null, i32 538} ; [ DW_TAG_subprogram ] [line 538] [~Init]
!38 = metadata !{metadata !39, metadata !44, metadata !51, metadata !52, metadata !56, metadata !62, metadata !66, metadata !72, metadata !75}
!39 = metadata !{i32 786478, metadata !40, metadata !41, metadata !"__cxx_global_var_init", metadata !"__cxx_global_var_init", metadata !"", i32 74, metadata !42, i1 true, i1 true, i32 0, i32 0, null, i32 256, i1 false, void ()* @__cxx_global_var_init, null, null, metadata !2, i32 74} ; [ DW_TAG_subprogram ] [line 74] [local] [def] [__cxx_global_var_init]
!40 = metadata !{metadata !"/opt/Xilinx/SDSoC/2014.4/SDK/2014.4/gnu/arm/lin/arm-xilinx-eabi/include/c++/4.8.3/iostream", metadata !"/home/trungnguyen/SDSoC/workspace/correlation_ver1/correlation_ver1_standard_alone/SDRelease"}
!41 = metadata !{i32 786473, metadata !40}        ; [ DW_TAG_file_type ] [/home/trungnguyen/SDSoC/workspace/correlation_ver1/correlation_ver1_standard_alone/SDRelease//opt/Xilinx/SDSoC/2014.4/SDK/2014.4/gnu/arm/lin/arm-xilinx-eabi/include/c++/4.8.3/iostream]
!42 = metadata !{i32 786453, i32 0, null, metadata !"", i32 0, i64 0, i64 0, i64 0, i32 0, null, metadata !43, i32 0, null, null, null} ; [ DW_TAG_subroutine_type ] [line 0, size 0, align 0, offset 0] [from ]
!43 = metadata !{null}
!44 = metadata !{i32 786478, metadata !45, metadata !46, metadata !"correlationComp_v1_sw", metadata !"correlationComp_v1_sw", metadata !"_Z21correlationComp_v1_swPfS_S_iS_", i32 110, metadata !47, i1 false, i1 true, i32 0, i32 0, null, i32 256, i1 false, float (float*, float*, float*, i32, float*)* @_Z21correlationComp_v1_swPfS_S_iS_, null, null, metadata !2, i32 111} ; [ DW_TAG_subprogram ] [line 110] [def] [scope 111] [correlationComp_v1_sw]
!45 = metadata !{metadata !"/home/trungnguyen/SDSoC/workspace/correlation_ver1/correlation_ver1_standard_alone/src/main.cpp", metadata !"/home/trungnguyen/SDSoC/workspace/correlation_ver1/correlation_ver1_standard_alone/SDRelease"}
!46 = metadata !{i32 786473, metadata !45}        ; [ DW_TAG_file_type ] [/home/trungnguyen/SDSoC/workspace/correlation_ver1/correlation_ver1_standard_alone/SDRelease//home/trungnguyen/SDSoC/workspace/correlation_ver1/correlation_ver1_standard_alone/src/main.cpp]
!47 = metadata !{i32 786453, i32 0, null, metadata !"", i32 0, i64 0, i64 0, i64 0, i32 0, null, metadata !48, i32 0, null, null, null} ; [ DW_TAG_subroutine_type ] [line 0, size 0, align 0, offset 0] [from ]
!48 = metadata !{metadata !49, metadata !50, metadata !50, metadata !50, metadata !8, metadata !50}
!49 = metadata !{i32 786468, null, null, metadata !"float", i32 0, i64 32, i64 32, i64 0, i32 0, i32 4} ; [ DW_TAG_base_type ] [float] [line 0, size 32, align 32, offset 0, enc DW_ATE_float]
!50 = metadata !{i32 786447, null, null, metadata !"", i32 0, i64 32, i64 32, i64 0, i32 0, metadata !49} ; [ DW_TAG_pointer_type ] [line 0, size 32, align 32, offset 0] [from float]
!51 = metadata !{i32 786478, metadata !45, metadata !46, metadata !"correlationComp_v2_sw", metadata !"correlationComp_v2_sw", metadata !"_Z21correlationComp_v2_swPfS_S_iS_", i32 163, metadata !47, i1 false, i1 true, i32 0, i32 0, null, i32 256, i1 false, float (float*, float*, float*, i32, float*)* @_Z21correlationComp_v2_swPfS_S_iS_, null, null, metadata !2, i32 164} ; [ DW_TAG_subprogram ] [line 163] [def] [scope 164] [correlationComp_v2_sw]
!52 = metadata !{i32 786478, metadata !45, metadata !46, metadata !"correlation_golden", metadata !"correlation_golden", metadata !"_Z18correlation_goldenPfiiS_", i32 242, metadata !53, i1 false, i1 true, i32 0, i32 0, null, i32 256, i1 false, void (float*, i32, i32, float*)* @_Z18correlation_goldenPfiiS_, null, null, metadata !2, i32 247} ; [ DW_TAG_subprogram ] [line 242] [def] [scope 247] [correlation_golden]
!53 = metadata !{i32 786453, i32 0, null, metadata !"", i32 0, i64 0, i64 0, i64 0, i32 0, null, metadata !54, i32 0, null, null, null} ; [ DW_TAG_subroutine_type ] [line 0, size 0, align 0, offset 0] [from ]
!54 = metadata !{null, metadata !50, metadata !55, metadata !55, metadata !50}
!55 = metadata !{i32 786470, null, null, metadata !"", i32 0, i64 0, i64 0, i64 0, i32 0, metadata !8} ; [ DW_TAG_const_type ] [line 0, size 0, align 0, offset 0] [from int]
!56 = metadata !{i32 786478, metadata !45, metadata !46, metadata !"main", metadata !"main", metadata !"", i32 316, metadata !57, i1 false, i1 true, i32 0, i32 0, null, i32 256, i1 false, i32 (i32, i8**)* @main, null, null, metadata !2, i32 317} ; [ DW_TAG_subprogram ] [line 316] [def] [scope 317] [main]
!57 = metadata !{i32 786453, i32 0, null, metadata !"", i32 0, i64 0, i64 0, i64 0, i32 0, null, metadata !58, i32 0, null, null, null} ; [ DW_TAG_subroutine_type ] [line 0, size 0, align 0, offset 0] [from ]
!58 = metadata !{metadata !8, metadata !8, metadata !59}
!59 = metadata !{i32 786447, null, null, metadata !"", i32 0, i64 32, i64 32, i64 0, i32 0, metadata !60} ; [ DW_TAG_pointer_type ] [line 0, size 32, align 32, offset 0] [from ]
!60 = metadata !{i32 786447, null, null, metadata !"", i32 0, i64 32, i64 32, i64 0, i32 0, metadata !61} ; [ DW_TAG_pointer_type ] [line 0, size 32, align 32, offset 0] [from char]
!61 = metadata !{i32 786468, null, null, metadata !"char", i32 0, i64 8, i64 8, i64 0, i32 0, i32 8} ; [ DW_TAG_base_type ] [char] [line 0, size 8, align 8, offset 0, enc DW_ATE_unsigned_char]
!62 = metadata !{i32 786478, metadata !45, metadata !46, metadata !"checkResult", metadata !"checkResult", metadata !"_ZL11checkResultPfS_if", i32 286, metadata !63, i1 true, i1 true, i32 0, i32 0, null, i32 256, i1 false, i1 (float*, float*, i32, float)* @_ZL11checkResultPfS_if, null, null, metadata !2, i32 289} ; [ DW_TAG_subprogram ] [line 286] [local] [def] [scope 289] [checkResult]
!63 = metadata !{i32 786453, i32 0, null, metadata !"", i32 0, i64 0, i64 0, i64 0, i32 0, null, metadata !64, i32 0, null, null, null} ; [ DW_TAG_subroutine_type ] [line 0, size 0, align 0, offset 0] [from ]
!64 = metadata !{metadata !32, metadata !50, metadata !50, metadata !55, metadata !65}
!65 = metadata !{i32 786470, null, null, metadata !"", i32 0, i64 0, i64 0, i64 0, i32 0, metadata !49} ; [ DW_TAG_const_type ] [line 0, size 0, align 0, offset 0] [from float]
!66 = metadata !{i32 786478, metadata !45, metadata !46, metadata !"indices_init", metadata !"indices_init", metadata !"_ZL12indices_initm", i32 57, metadata !67, i1 true, i1 true, i32 0, i32 0, null, i32 256, i1 false, i1 (i32)* @_ZL12indices_initm, null, null, metadata !2, i32 57} ; [ DW_TAG_subprogram ] [line 57] [local] [def] [indices_init]
!67 = metadata !{i32 786453, i32 0, null, metadata !"", i32 0, i64 0, i64 0, i64 0, i32 0, null, metadata !68, i32 0, null, null, null} ; [ DW_TAG_subroutine_type ] [line 0, size 0, align 0, offset 0] [from ]
!68 = metadata !{metadata !32, metadata !69}
!69 = metadata !{i32 786454, metadata !70, null, metadata !"uint32_t", i32 80, i64 0, i64 0, i64 0, i32 0, metadata !71} ; [ DW_TAG_typedef ] [uint32_t] [line 80, size 0, align 0, offset 0] [from long unsigned int]
!70 = metadata !{metadata !"/opt/Xilinx/SDSoC/2014.4/SDK/2014.4/gnu/arm/lin/arm-xilinx-eabi/include/stdint.h", metadata !"/home/trungnguyen/SDSoC/workspace/correlation_ver1/correlation_ver1_standard_alone/SDRelease"}
!71 = metadata !{i32 786468, null, null, metadata !"long unsigned int", i32 0, i64 32, i64 32, i64 0, i32 0, i32 7} ; [ DW_TAG_base_type ] [long unsigned int] [line 0, size 32, align 32, offset 0, enc DW_ATE_unsigned]
!72 = metadata !{i32 786478, metadata !45, metadata !46, metadata !"weightComp", metadata !"weightComp", metadata !"_ZL10weightCompPfiS_", i32 223, metadata !73, i1 true, i1 true, i32 0, i32 0, null, i32 256, i1 false, void (float*, i32, float*)* @_ZL10weightCompPfiS_, null, null, metadata !2, i32 223} ; [ DW_TAG_subprogram ] [line 223] [local] [def] [weightComp]
!73 = metadata !{i32 786453, i32 0, null, metadata !"", i32 0, i64 0, i64 0, i64 0, i32 0, null, metadata !74, i32 0, null, null, null} ; [ DW_TAG_subroutine_type ] [line 0, size 0, align 0, offset 0] [from ]
!74 = metadata !{null, metadata !50, metadata !8, metadata !50}
!75 = metadata !{i32 786478, metadata !1, metadata !76, metadata !"", metadata !"", metadata !"_GLOBAL__sub_I_main.cpp", i32 0, metadata !77, i1 true, i1 true, i32 0, i32 0, null, i32 64, i1 false, void ()* @_GLOBAL__sub_I_main.cpp, null, null, metadata !2, i32 0} ; [ DW_TAG_subprogram ] [line 0] [local] [def]
!76 = metadata !{i32 786473, metadata !1}         ; [ DW_TAG_file_type ] [/home/trungnguyen/SDSoC/workspace/correlation_ver1/correlation_ver1_standard_alone/SDRelease/../src/main.cpp]
!77 = metadata !{i32 786453, i32 0, null, metadata !"", i32 0, i64 0, i64 0, i64 0, i32 0, null, metadata !2, i32 0, null, null, null} ; [ DW_TAG_subroutine_type ] [line 0, size 0, align 0, offset 0] [from ]
!78 = metadata !{metadata !79, metadata !80}
!79 = metadata !{i32 786484, i32 0, metadata !24, metadata !"__ioinit", metadata !"__ioinit", metadata !"_ZStL8__ioinit", metadata !41, i32 74, metadata !"_ZTSNSt8ios_base4InitE", i32 1, i32 1, %"class.std::ios_base::Init"* @_ZStL8__ioinit, null} ; [ DW_TAG_variable ] [__ioinit] [line 74] [local] [def]
!80 = metadata !{i32 786484, i32 0, metadata !52, metadata !"weightSum", metadata !"weightSum", metadata !"", metadata !46, i32 249, metadata !49, i32 1, i32 1, float* @_ZZ18correlation_goldenPfiiS_E9weightSum, null} ; [ DW_TAG_variable ] [weightSum] [line 249] [local] [def]
!81 = metadata !{metadata !82, metadata !86, metadata !91, metadata !93, metadata !97, metadata !98, metadata !99, metadata !102, metadata !104, metadata !105}
!82 = metadata !{i32 786490, metadata !83, metadata !85, i32 56} ; [ DW_TAG_imported_module ]
!83 = metadata !{i32 786489, metadata !84, null, metadata !"__gnu_debug", i32 54} ; [ DW_TAG_namespace ] [__gnu_debug] [line 54]
!84 = metadata !{metadata !"/opt/Xilinx/SDSoC/2014.4/SDK/2014.4/gnu/arm/lin/arm-xilinx-eabi/include/c++/4.8.3/debug/debug.h", metadata !"/home/trungnguyen/SDSoC/workspace/correlation_ver1/correlation_ver1_standard_alone/SDRelease"}
!85 = metadata !{i32 786489, metadata !84, metadata !24, metadata !"__debug", i32 48} ; [ DW_TAG_namespace ] [__debug] [line 48]
!86 = metadata !{i32 786440, metadata !87, metadata !89, i32 44} ; [ DW_TAG_imported_declaration ]
!87 = metadata !{i32 786489, metadata !88, null, metadata !"__gnu_cxx", i32 68} ; [ DW_TAG_namespace ] [__gnu_cxx] [line 68]
!88 = metadata !{metadata !"/opt/Xilinx/SDSoC/2014.4/SDK/2014.4/gnu/arm/lin/arm-xilinx-eabi/include/c++/4.8.3/bits/cpp_type_traits.h", metadata !"/home/trungnguyen/SDSoC/workspace/correlation_ver1/correlation_ver1_standard_alone/SDRelease"}
!89 = metadata !{i32 786454, metadata !25, metadata !24, metadata !"size_t", i32 186, i64 0, i64 0, i64 0, i32 0, metadata !90} ; [ DW_TAG_typedef ] [size_t] [line 186, size 0, align 0, offset 0] [from unsigned int]
!90 = metadata !{i32 786468, null, null, metadata !"unsigned int", i32 0, i64 32, i64 32, i64 0, i32 0, i32 7} ; [ DW_TAG_base_type ] [unsigned int] [line 0, size 32, align 32, offset 0, enc DW_ATE_unsigned]
!91 = metadata !{i32 786440, metadata !87, metadata !92, i32 45} ; [ DW_TAG_imported_declaration ]
!92 = metadata !{i32 786454, metadata !25, metadata !24, metadata !"ptrdiff_t", i32 187, i64 0, i64 0, i64 0, i32 0, metadata !8} ; [ DW_TAG_typedef ] [ptrdiff_t] [line 187, size 0, align 0, offset 0] [from int]
!93 = metadata !{i32 786440, metadata !24, metadata !94, i32 64} ; [ DW_TAG_imported_declaration ]
!94 = metadata !{i32 786454, metadata !95, null, metadata !"mbstate_t", i32 52, i64 0, i64 0, i64 0, i32 0, metadata !96} ; [ DW_TAG_typedef ] [mbstate_t] [line 52, size 0, align 0, offset 0] [from _mbstate_t]
!95 = metadata !{metadata !"/opt/Xilinx/SDSoC/2014.4/SDK/2014.4/gnu/arm/lin/arm-xilinx-eabi/include/wchar.h", metadata !"/home/trungnguyen/SDSoC/workspace/correlation_ver1/correlation_ver1_standard_alone/SDRelease"}
!96 = metadata !{i32 786454, metadata !5, null, metadata !"_mbstate_t", i32 90, i64 0, i64 0, i64 0, i32 0, metadata !"_ZTS10_mbstate_t"} ; [ DW_TAG_typedef ] [_mbstate_t] [line 90, size 0, align 0, offset 0] [from _ZTS10_mbstate_t]
!97 = metadata !{i32 786440, metadata !24, metadata !13, i32 139} ; [ DW_TAG_imported_declaration ]
!98 = metadata !{i32 786440, metadata !24, metadata !"_ZTS5lconv", i32 53} ; [ DW_TAG_imported_declaration ]
!99 = metadata !{i32 786440, metadata !24, metadata !100, i32 82} ; [ DW_TAG_imported_declaration ]
!100 = metadata !{i32 786454, metadata !101, null, metadata !"wctrans_t", i32 40, i64 0, i64 0, i64 0, i32 0, metadata !8} ; [ DW_TAG_typedef ] [wctrans_t] [line 40, size 0, align 0, offset 0] [from int]
!101 = metadata !{metadata !"/opt/Xilinx/SDSoC/2014.4/SDK/2014.4/gnu/arm/lin/arm-xilinx-eabi/include/wctype.h", metadata !"/home/trungnguyen/SDSoC/workspace/correlation_ver1/correlation_ver1_standard_alone/SDRelease"}
!102 = metadata !{i32 786440, metadata !24, metadata !103, i32 83} ; [ DW_TAG_imported_declaration ]
!103 = metadata !{i32 786454, metadata !101, null, metadata !"wctype_t", i32 31, i64 0, i64 0, i64 0, i32 0, metadata !8} ; [ DW_TAG_typedef ] [wctype_t] [line 31, size 0, align 0, offset 0] [from int]
!104 = metadata !{i32 786440, metadata !24, metadata !13, i32 84} ; [ DW_TAG_imported_declaration ]
!105 = metadata !{i32 786440, metadata !0, metadata !106, i32 673, metadata !"abi"} ; [ DW_TAG_imported_declaration ]
!106 = metadata !{i32 786489, metadata !107, null, metadata !"__cxxabiv1", i32 39} ; [ DW_TAG_namespace ] [__cxxabiv1] [line 39]
!107 = metadata !{metadata !"/opt/Xilinx/SDSoC/2014.4/SDK/2014.4/gnu/arm/lin/arm-xilinx-eabi/include/c++/4.8.3/bits/cxxabi_forced.h", metadata !"/home/trungnguyen/SDSoC/workspace/correlation_ver1/correlation_ver1_standard_alone/SDRelease"}
!108 = metadata !{%"class.std::ios_base::Init"* (%"class.std::ios_base::Init"*)* @_ZNSt8ios_base4InitC1Ev}
!109 = metadata !{metadata !"void."}
!110 = metadata !{%"class.std::ios_base::Init"* (%"class.std::ios_base::Init"*)* @_ZNSt8ios_base4InitD1Ev}
!111 = metadata !{float (float*, float*, float*, i32, float*)* @_Z21correlationComp_v1_swPfS_S_iS_}
!112 = metadata !{metadata !"float.float *.1.float *.1.float *.1.int.0.float *.1"}
!113 = metadata !{float (float)* @logf}
!114 = metadata !{metadata !"float.float.0"}
!115 = metadata !{float (float)* @sqrtf}
!116 = metadata !{float (float*, float*, float*, i32, float*)* @_Z21correlationComp_v2_swPfS_S_iS_}
!117 = metadata !{void (float*, i32, i32, float*)* @_Z18correlation_goldenPfiiS_}
!118 = metadata !{metadata !"void.float *.1.const int.0.const int.0.float *.1"}
!119 = metadata !{void (float*, i32, float*)* @_ZL10weightCompPfiS_}
!120 = metadata !{metadata !"void.float *.1.int.0.float *.1"}
!121 = metadata !{i32 (i8*, ...)* @printf}
!122 = metadata !{metadata !"int.const char *.1"}
!123 = metadata !{i32 (i32, i8**)* @main}
!124 = metadata !{metadata !"int.int.0.char *[].1"}
!125 = metadata !{void ()* @Xil_DCacheEnable}
!126 = metadata !{i8* (i8*, i32, i8*)* @sds_mmap}
!127 = metadata !{metadata !"void .void *.1.size_t.0.void *.1"}
!128 = metadata !{i1 (i32)* @_ZL12indices_initm}
!129 = metadata !{metadata !"_Bool.uint32_t.0"}
!130 = metadata !{void (i32, i32)* @Xil_DCacheFlushRange}
!131 = metadata !{metadata !"void.unsigned int.0.unsigned int.0"}
!132 = metadata !{i32 (i8*, ...)* @scanf}
!133 = metadata !{i64 ()* @sds_clock_counter}
!134 = metadata !{metadata !"unsigned long long."}
!135 = metadata !{i32 (i32, i32, float*, float*)* @_Z20correlation_accel_v1iiPfS_}
!136 = metadata !{metadata !"int.int.0.int.0.float [2520000].1.float [49995000].1"}
!137 = metadata !{i1 (float*, float*, i32, float)* @_ZL11checkResultPfS_if}
!138 = metadata !{metadata !"_Bool.float *.1.float *.1.const int.0.const float.0"}
!139 = metadata !{void ()* @Xil_DCacheDisable}
!140 = metadata !{void (i32, i32)* @Xil_DCacheInvalidateRange}
!141 = metadata !{i32 (i32)* @abs}
!142 = metadata !{metadata !"int.int.0"}
!143 = metadata !{i32 (i8*, i8*, i32)* @memcmp}
!144 = metadata !{metadata !"int.const void *.1.const void *.1.size_t.0"}
!145 = metadata !{metadata !"/opt/Xilinx/SDSoC/2014.4/SDK/2014.4/gnu/arm/lin/arm-xilinx-eabi/include/c++/4.8.3/bits/ios_base.h"}
!146 = metadata !{metadata !"/home/trungnguyen/SDSoC/workspace/correlation_ver1/correlation_ver1_standard_alone/src/main.cpp"}
!147 = metadata !{metadata !"/opt/Xilinx/SDSoC/2014.4/SDK/2014.4/gnu/arm/lin/arm-xilinx-eabi/include/math.h"}
!148 = metadata !{metadata !"/opt/Xilinx/SDSoC/2014.4/SDK/2014.4/gnu/arm/lin/arm-xilinx-eabi/include/stdio.h"}
!149 = metadata !{metadata !"/opt/Xilinx/SDSoC/2014.4/arm-xilinx-eabi/include/xil_cache.h"}
!150 = metadata !{metadata !"/opt/Xilinx/SDSoC/2014.4/arm-xilinx-eabi/include/sds_lib.h"}
!151 = metadata !{metadata !"../src/correlation_accel_v1.hpp"}
!152 = metadata !{metadata !"/opt/Xilinx/SDSoC/2014.4/SDK/2014.4/gnu/arm/lin/arm-xilinx-eabi/include/stdlib.h"}
!153 = metadata !{metadata !"/opt/Xilinx/SDSoC/2014.4/SDK/2014.4/gnu/arm/lin/arm-xilinx-eabi/include/string.h"}
!154 = metadata !{metadata !"in_indices,,,,,AFI,,, out_correlation,,,,,AFI,,, "}
!155 = metadata !{i32 2, metadata !"Dwarf Version", i32 4}
!156 = metadata !{i32 2, metadata !"Debug Info Version", i32 1}
!157 = metadata !{i32 1, metadata !"wchar_size", i32 4}
!158 = metadata !{i32 1, metadata !"min_enum_size", i32 4}
!159 = metadata !{metadata !"clang version 3.5.0 (tags/RELEASE_350/final)"}
!160 = metadata !{i32 74, i32 25, metadata !39, null}
!161 = metadata !{i32 786689, metadata !44, metadata !"indexA", metadata !46, i32 16777326, metadata !50, i32 0, i32 0} ; [ DW_TAG_arg_variable ] [indexA] [line 110]
!162 = metadata !{i32 110, i32 36, metadata !44, null}
!163 = metadata !{i32 786689, metadata !44, metadata !"indexB", metadata !46, i32 33554542, metadata !50, i32 0, i32 0} ; [ DW_TAG_arg_variable ] [indexB] [line 110]
!164 = metadata !{i32 110, i32 51, metadata !44, null}
!165 = metadata !{i32 786689, metadata !44, metadata !"weight", metadata !46, i32 50331759, metadata !50, i32 0, i32 0} ; [ DW_TAG_arg_variable ] [weight] [line 111]
!166 = metadata !{i32 111, i32 24, metadata !44, null}
!167 = metadata !{i32 786689, metadata !44, metadata !"size", metadata !46, i32 67108975, metadata !8, i32 0, i32 0} ; [ DW_TAG_arg_variable ] [size] [line 111]
!168 = metadata !{i32 111, i32 35, metadata !44, null}
!169 = metadata !{i32 786689, metadata !44, metadata !"weightSum", metadata !46, i32 83886191, metadata !50, i32 0, i32 0} ; [ DW_TAG_arg_variable ] [weightSum] [line 111]
!170 = metadata !{i32 111, i32 48, metadata !44, null}
!171 = metadata !{i32 112, i32 5, metadata !44, null}
!172 = metadata !{i32 786688, metadata !44, metadata !"lnReturnA", metadata !46, i32 112, metadata !173, i32 8192, i32 0} ; [ DW_TAG_auto_variable ] [lnReturnA] [line 112]
!173 = metadata !{i32 786433, null, null, metadata !"", i32 0, i64 0, i64 32, i32 0, i32 0, metadata !49, metadata !174, i32 0, null, null, null} ; [ DW_TAG_array_type ] [line 0, size 0, align 32, offset 0] [from float]
!174 = metadata !{metadata !175}
!175 = metadata !{i32 786465, i64 0, i64 -1}      ; [ DW_TAG_subrange_type ] [unbounded]
!176 = metadata !{i32 112, i32 11, metadata !44, null}
!177 = metadata !{i32 113, i32 5, metadata !44, null}
!178 = metadata !{i32 786688, metadata !44, metadata !"lnReturnB", metadata !46, i32 113, metadata !173, i32 8192, i32 0} ; [ DW_TAG_auto_variable ] [lnReturnB] [line 113]
!179 = metadata !{i32 113, i32 11, metadata !44, null}
!180 = metadata !{i32 786688, metadata !44, metadata !"meanReturnA", metadata !46, i32 114, metadata !49, i32 0, i32 0} ; [ DW_TAG_auto_variable ] [meanReturnA] [line 114]
!181 = metadata !{i32 114, i32 11, metadata !44, null}
!182 = metadata !{i32 114, i32 5, metadata !44, null}
!183 = metadata !{i32 786688, metadata !44, metadata !"meanReturnB", metadata !46, i32 115, metadata !49, i32 0, i32 0} ; [ DW_TAG_auto_variable ] [meanReturnB] [line 115]
!184 = metadata !{i32 115, i32 11, metadata !44, null}
!185 = metadata !{i32 115, i32 5, metadata !44, null}
!186 = metadata !{i32 786688, metadata !44, metadata !"i", metadata !46, i32 118, metadata !8, i32 0, i32 0} ; [ DW_TAG_auto_variable ] [i] [line 118]
!187 = metadata !{i32 118, i32 9, metadata !44, null}
!188 = metadata !{i32 119, i32 9, metadata !189, null}
!189 = metadata !{i32 786443, metadata !45, metadata !44, i32 119, i32 5, i32 0, i32 0} ; [ DW_TAG_lexical_block ] [/home/trungnguyen/SDSoC/workspace/correlation_ver1/correlation_ver1_standard_alone/SDRelease//home/trungnguyen/SDSoC/workspace/correlation_ver1/correlation_ver1_standard_alone/src/main.cpp]
!190 = metadata !{i32 119, i32 9, metadata !191, null}
!191 = metadata !{i32 786443, metadata !45, metadata !192, i32 119, i32 9, i32 2, i32 32} ; [ DW_TAG_lexical_block ] [/home/trungnguyen/SDSoC/workspace/correlation_ver1/correlation_ver1_standard_alone/SDRelease//home/trungnguyen/SDSoC/workspace/correlation_ver1/correlation_ver1_standard_alone/src/main.cpp]
!192 = metadata !{i32 786443, metadata !45, metadata !189, i32 119, i32 9, i32 1, i32 31} ; [ DW_TAG_lexical_block ] [/home/trungnguyen/SDSoC/workspace/correlation_ver1/correlation_ver1_standard_alone/SDRelease//home/trungnguyen/SDSoC/workspace/correlation_ver1/correlation_ver1_standard_alone/src/main.cpp]
!193 = metadata !{i32 120, i32 24, metadata !194, null}
!194 = metadata !{i32 786443, metadata !45, metadata !189, i32 119, i32 34, i32 0, i32 1} ; [ DW_TAG_lexical_block ] [/home/trungnguyen/SDSoC/workspace/correlation_ver1/correlation_ver1_standard_alone/SDRelease//home/trungnguyen/SDSoC/workspace/correlation_ver1/correlation_ver1_standard_alone/src/main.cpp]
!195 = metadata !{i32 121, i32 24, metadata !194, null}
!196 = metadata !{i32 123, i32 9, metadata !194, null}
!197 = metadata !{i32 124, i32 9, metadata !194, null}
!198 = metadata !{i32 125, i32 5, metadata !194, null}
!199 = metadata !{i32 119, i32 30, metadata !189, null}
!200 = metadata !{i32 127, i32 5, metadata !44, null}
!201 = metadata !{i32 786688, metadata !44, metadata !"diffA", metadata !46, i32 127, metadata !173, i32 8192, i32 0} ; [ DW_TAG_auto_variable ] [diffA] [line 127]
!202 = metadata !{i32 127, i32 11, metadata !44, null}
!203 = metadata !{i32 786688, metadata !44, metadata !"diffB", metadata !46, i32 127, metadata !173, i32 8192, i32 0} ; [ DW_TAG_auto_variable ] [diffB] [line 127]
!204 = metadata !{i32 127, i32 27, metadata !44, null}
!205 = metadata !{i32 786688, metadata !44, metadata !"accumA", metadata !46, i32 128, metadata !49, i32 0, i32 0} ; [ DW_TAG_auto_variable ] [accumA] [line 128]
!206 = metadata !{i32 128, i32 11, metadata !44, null}
!207 = metadata !{i32 128, i32 5, metadata !44, null}
!208 = metadata !{i32 786688, metadata !44, metadata !"accumB", metadata !46, i32 129, metadata !49, i32 0, i32 0} ; [ DW_TAG_auto_variable ] [accumB] [line 129]
!209 = metadata !{i32 129, i32 11, metadata !44, null}
!210 = metadata !{i32 129, i32 5, metadata !44, null}
!211 = metadata !{i32 786688, metadata !44, metadata !"accumCov", metadata !46, i32 130, metadata !49, i32 0, i32 0} ; [ DW_TAG_auto_variable ] [accumCov] [line 130]
!212 = metadata !{i32 130, i32 11, metadata !44, null}
!213 = metadata !{i32 130, i32 5, metadata !44, null}
!214 = metadata !{i32 786688, metadata !44, metadata !"volatilityA", metadata !46, i32 133, metadata !49, i32 0, i32 0} ; [ DW_TAG_auto_variable ] [volatilityA] [line 133]
!215 = metadata !{i32 133, i32 11, metadata !44, null}
!216 = metadata !{i32 786688, metadata !44, metadata !"volatilityB", metadata !46, i32 133, metadata !49, i32 0, i32 0} ; [ DW_TAG_auto_variable ] [volatilityB] [line 133]
!217 = metadata !{i32 133, i32 24, metadata !44, null}
!218 = metadata !{i32 786688, metadata !44, metadata !"i_sw", metadata !46, i32 134, metadata !8, i32 0, i32 0} ; [ DW_TAG_auto_variable ] [i_sw] [line 134]
!219 = metadata !{i32 134, i32 9, metadata !44, null}
!220 = metadata !{i32 135, i32 9, metadata !221, null}
!221 = metadata !{i32 786443, metadata !45, metadata !44, i32 135, i32 5, i32 0, i32 2} ; [ DW_TAG_lexical_block ] [/home/trungnguyen/SDSoC/workspace/correlation_ver1/correlation_ver1_standard_alone/SDRelease//home/trungnguyen/SDSoC/workspace/correlation_ver1/correlation_ver1_standard_alone/src/main.cpp]
!222 = metadata !{i32 135, i32 9, metadata !223, null}
!223 = metadata !{i32 786443, metadata !45, metadata !224, i32 135, i32 9, i32 2, i32 34} ; [ DW_TAG_lexical_block ] [/home/trungnguyen/SDSoC/workspace/correlation_ver1/correlation_ver1_standard_alone/SDRelease//home/trungnguyen/SDSoC/workspace/correlation_ver1/correlation_ver1_standard_alone/src/main.cpp]
!224 = metadata !{i32 786443, metadata !45, metadata !221, i32 135, i32 9, i32 1, i32 33} ; [ DW_TAG_lexical_block ] [/home/trungnguyen/SDSoC/workspace/correlation_ver1/correlation_ver1_standard_alone/SDRelease//home/trungnguyen/SDSoC/workspace/correlation_ver1/correlation_ver1_standard_alone/src/main.cpp]
!225 = metadata !{i32 136, i32 9, metadata !226, null}
!226 = metadata !{i32 786443, metadata !45, metadata !221, i32 135, i32 42, i32 0, i32 3} ; [ DW_TAG_lexical_block ] [/home/trungnguyen/SDSoC/workspace/correlation_ver1/correlation_ver1_standard_alone/SDRelease//home/trungnguyen/SDSoC/workspace/correlation_ver1/correlation_ver1_standard_alone/src/main.cpp]
!227 = metadata !{i32 137, i32 9, metadata !226, null}
!228 = metadata !{i32 138, i32 9, metadata !226, null}
!229 = metadata !{i32 139, i32 9, metadata !226, null}
!230 = metadata !{i32 140, i32 9, metadata !226, null}
!231 = metadata !{i32 141, i32 5, metadata !226, null}
!232 = metadata !{i32 135, i32 35, metadata !221, null}
!233 = metadata !{i32 142, i32 25, metadata !44, null}
!234 = metadata !{i32 143, i32 25, metadata !44, null}
!235 = metadata !{i32 786688, metadata !44, metadata !"covariance", metadata !46, i32 146, metadata !49, i32 0, i32 0} ; [ DW_TAG_auto_variable ] [covariance] [line 146]
!236 = metadata !{i32 146, i32 11, metadata !44, null}
!237 = metadata !{i32 147, i32 5, metadata !44, null}
!238 = metadata !{i32 149, i32 5, metadata !44, null}
!239 = metadata !{i32 150, i32 1, metadata !44, null}
!240 = metadata !{i32 786689, metadata !51, metadata !"indexA", metadata !46, i32 16777379, metadata !50, i32 0, i32 0} ; [ DW_TAG_arg_variable ] [indexA] [line 163]
!241 = metadata !{i32 163, i32 36, metadata !51, null}
!242 = metadata !{i32 786689, metadata !51, metadata !"indexB", metadata !46, i32 33554595, metadata !50, i32 0, i32 0} ; [ DW_TAG_arg_variable ] [indexB] [line 163]
!243 = metadata !{i32 163, i32 51, metadata !51, null}
!244 = metadata !{i32 786689, metadata !51, metadata !"weight", metadata !46, i32 50331812, metadata !50, i32 0, i32 0} ; [ DW_TAG_arg_variable ] [weight] [line 164]
!245 = metadata !{i32 164, i32 24, metadata !51, null}
!246 = metadata !{i32 786689, metadata !51, metadata !"size", metadata !46, i32 67109028, metadata !8, i32 0, i32 0} ; [ DW_TAG_arg_variable ] [size] [line 164]
!247 = metadata !{i32 164, i32 35, metadata !51, null}
!248 = metadata !{i32 786689, metadata !51, metadata !"weightSum", metadata !46, i32 83886244, metadata !50, i32 0, i32 0} ; [ DW_TAG_arg_variable ] [weightSum] [line 164]
!249 = metadata !{i32 164, i32 48, metadata !51, null}
!250 = metadata !{i32 786688, metadata !51, metadata !"lnReturnA", metadata !46, i32 165, metadata !49, i32 0, i32 0} ; [ DW_TAG_auto_variable ] [lnReturnA] [line 165]
!251 = metadata !{i32 165, i32 11, metadata !51, null}
!252 = metadata !{i32 786688, metadata !51, metadata !"lnReturnB", metadata !46, i32 166, metadata !49, i32 0, i32 0} ; [ DW_TAG_auto_variable ] [lnReturnB] [line 166]
!253 = metadata !{i32 166, i32 11, metadata !51, null}
!254 = metadata !{i32 786688, metadata !51, metadata !"meanReturnA", metadata !46, i32 167, metadata !49, i32 0, i32 0} ; [ DW_TAG_auto_variable ] [meanReturnA] [line 167]
!255 = metadata !{i32 167, i32 11, metadata !51, null}
!256 = metadata !{i32 167, i32 5, metadata !51, null}
!257 = metadata !{i32 786688, metadata !51, metadata !"meanReturnB", metadata !46, i32 168, metadata !49, i32 0, i32 0} ; [ DW_TAG_auto_variable ] [meanReturnB] [line 168]
!258 = metadata !{i32 168, i32 11, metadata !51, null}
!259 = metadata !{i32 168, i32 5, metadata !51, null}
!260 = metadata !{i32 786688, metadata !51, metadata !"sumLogReturnA", metadata !46, i32 170, metadata !49, i32 0, i32 0} ; [ DW_TAG_auto_variable ] [sumLogReturnA] [line 170]
!261 = metadata !{i32 170, i32 11, metadata !51, null}
!262 = metadata !{i32 170, i32 5, metadata !51, null}
!263 = metadata !{i32 786688, metadata !51, metadata !"sumWeightRetA", metadata !46, i32 171, metadata !49, i32 0, i32 0} ; [ DW_TAG_auto_variable ] [sumWeightRetA] [line 171]
!264 = metadata !{i32 171, i32 11, metadata !51, null}
!265 = metadata !{i32 171, i32 5, metadata !51, null}
!266 = metadata !{i32 786688, metadata !51, metadata !"sumWeightRet2A", metadata !46, i32 172, metadata !49, i32 0, i32 0} ; [ DW_TAG_auto_variable ] [sumWeightRet2A] [line 172]
!267 = metadata !{i32 172, i32 11, metadata !51, null}
!268 = metadata !{i32 172, i32 5, metadata !51, null}
!269 = metadata !{i32 786688, metadata !51, metadata !"sumLogReturnB", metadata !46, i32 174, metadata !49, i32 0, i32 0} ; [ DW_TAG_auto_variable ] [sumLogReturnB] [line 174]
!270 = metadata !{i32 174, i32 11, metadata !51, null}
!271 = metadata !{i32 174, i32 5, metadata !51, null}
!272 = metadata !{i32 786688, metadata !51, metadata !"sumWeightRetB", metadata !46, i32 175, metadata !49, i32 0, i32 0} ; [ DW_TAG_auto_variable ] [sumWeightRetB] [line 175]
!273 = metadata !{i32 175, i32 11, metadata !51, null}
!274 = metadata !{i32 175, i32 5, metadata !51, null}
!275 = metadata !{i32 786688, metadata !51, metadata !"sumWeightRet2B", metadata !46, i32 176, metadata !49, i32 0, i32 0} ; [ DW_TAG_auto_variable ] [sumWeightRet2B] [line 176]
!276 = metadata !{i32 176, i32 11, metadata !51, null}
!277 = metadata !{i32 176, i32 5, metadata !51, null}
!278 = metadata !{i32 786688, metadata !51, metadata !"sumWeightRetARetB", metadata !46, i32 178, metadata !49, i32 0, i32 0} ; [ DW_TAG_auto_variable ] [sumWeightRetARetB] [line 178]
!279 = metadata !{i32 178, i32 11, metadata !51, null}
!280 = metadata !{i32 178, i32 5, metadata !51, null}
!281 = metadata !{i32 786688, metadata !51, metadata !"i", metadata !46, i32 181, metadata !8, i32 0, i32 0} ; [ DW_TAG_auto_variable ] [i] [line 181]
!282 = metadata !{i32 181, i32 9, metadata !51, null}
!283 = metadata !{i32 182, i32 9, metadata !284, null}
!284 = metadata !{i32 786443, metadata !45, metadata !51, i32 182, i32 5, i32 0, i32 4} ; [ DW_TAG_lexical_block ] [/home/trungnguyen/SDSoC/workspace/correlation_ver1/correlation_ver1_standard_alone/SDRelease//home/trungnguyen/SDSoC/workspace/correlation_ver1/correlation_ver1_standard_alone/src/main.cpp]
!285 = metadata !{i32 182, i32 9, metadata !286, null}
!286 = metadata !{i32 786443, metadata !45, metadata !287, i32 182, i32 9, i32 2, i32 36} ; [ DW_TAG_lexical_block ] [/home/trungnguyen/SDSoC/workspace/correlation_ver1/correlation_ver1_standard_alone/SDRelease//home/trungnguyen/SDSoC/workspace/correlation_ver1/correlation_ver1_standard_alone/src/main.cpp]
!287 = metadata !{i32 786443, metadata !45, metadata !284, i32 182, i32 9, i32 1, i32 35} ; [ DW_TAG_lexical_block ] [/home/trungnguyen/SDSoC/workspace/correlation_ver1/correlation_ver1_standard_alone/SDRelease//home/trungnguyen/SDSoC/workspace/correlation_ver1/correlation_ver1_standard_alone/src/main.cpp]
!288 = metadata !{i32 183, i32 27, metadata !289, null}
!289 = metadata !{i32 786443, metadata !45, metadata !284, i32 182, i32 34, i32 0, i32 5} ; [ DW_TAG_lexical_block ] [/home/trungnguyen/SDSoC/workspace/correlation_ver1/correlation_ver1_standard_alone/SDRelease//home/trungnguyen/SDSoC/workspace/correlation_ver1/correlation_ver1_standard_alone/src/main.cpp]
!290 = metadata !{i32 184, i32 27, metadata !289, null}
!291 = metadata !{i32 186, i32 9, metadata !289, null}
!292 = metadata !{i32 187, i32 9, metadata !289, null}
!293 = metadata !{i32 188, i32 9, metadata !289, null}
!294 = metadata !{i32 190, i32 9, metadata !289, null}
!295 = metadata !{i32 191, i32 9, metadata !289, null}
!296 = metadata !{i32 192, i32 9, metadata !289, null}
!297 = metadata !{i32 194, i32 9, metadata !289, null}
!298 = metadata !{i32 197, i32 5, metadata !289, null}
!299 = metadata !{i32 182, i32 30, metadata !284, null}
!300 = metadata !{i32 199, i32 5, metadata !51, null}
!301 = metadata !{i32 200, i32 5, metadata !51, null}
!302 = metadata !{i32 786688, metadata !51, metadata !"volatilityA", metadata !46, i32 203, metadata !49, i32 0, i32 0} ; [ DW_TAG_auto_variable ] [volatilityA] [line 203]
!303 = metadata !{i32 203, i32 11, metadata !51, null}
!304 = metadata !{i32 786688, metadata !51, metadata !"volatilityB", metadata !46, i32 203, metadata !49, i32 0, i32 0} ; [ DW_TAG_auto_variable ] [volatilityB] [line 203]
!305 = metadata !{i32 203, i32 24, metadata !51, null}
!306 = metadata !{i32 205, i32 25, metadata !51, null}
!307 = metadata !{i32 206, i32 25, metadata !51, null}
!308 = metadata !{i32 786688, metadata !51, metadata !"covariance", metadata !46, i32 209, metadata !49, i32 0, i32 0} ; [ DW_TAG_auto_variable ] [covariance] [line 209]
!309 = metadata !{i32 209, i32 11, metadata !51, null}
!310 = metadata !{i32 210, i32 5, metadata !51, null}
!311 = metadata !{i32 212, i32 5, metadata !51, null}
!312 = metadata !{i32 786689, metadata !52, metadata !"indices", metadata !46, i32 16777459, metadata !50, i32 0, i32 0} ; [ DW_TAG_arg_variable ] [indices] [line 243]
!313 = metadata !{i32 243, i32 38, metadata !52, null}
!314 = metadata !{i32 786689, metadata !52, metadata !"number_of_indices", metadata !46, i32 33554676, metadata !55, i32 0, i32 0} ; [ DW_TAG_arg_variable ] [number_of_indices] [line 244]
!315 = metadata !{i32 244, i32 37, metadata !52, null}
!316 = metadata !{i32 786689, metadata !52, metadata !"number_of_days_per_index", metadata !46, i32 50331893, metadata !55, i32 0, i32 0} ; [ DW_TAG_arg_variable ] [number_of_days_per_index] [line 245]
!317 = metadata !{i32 245, i32 37, metadata !52, null}
!318 = metadata !{i32 786689, metadata !52, metadata !"correlation", metadata !46, i32 67109110, metadata !50, i32 0, i32 0} ; [ DW_TAG_arg_variable ] [correlation] [line 246]
!319 = metadata !{i32 246, i32 38, metadata !52, null}
!320 = metadata !{i32 786688, metadata !52, metadata !"rom_size", metadata !46, i32 248, metadata !8, i32 0, i32 0} ; [ DW_TAG_auto_variable ] [rom_size] [line 248]
!321 = metadata !{i32 248, i32 9, metadata !52, null}
!322 = metadata !{i32 248, i32 5, metadata !52, null}
!323 = metadata !{i32 250, i32 5, metadata !52, null}
!324 = metadata !{i32 786688, metadata !52, metadata !"weightRom", metadata !46, i32 250, metadata !173, i32 8192, i32 0} ; [ DW_TAG_auto_variable ] [weightRom] [line 250]
!325 = metadata !{i32 250, i32 11, metadata !52, null}
!326 = metadata !{i32 251, i32 5, metadata !52, null}
!327 = metadata !{i32 786688, metadata !52, metadata !"index", metadata !46, i32 252, metadata !8, i32 0, i32 0} ; [ DW_TAG_auto_variable ] [index] [line 252]
!328 = metadata !{i32 252, i32 9, metadata !52, null}
!329 = metadata !{i32 252, i32 5, metadata !52, null}
!330 = metadata !{i32 786688, metadata !52, metadata !"i", metadata !46, i32 253, metadata !8, i32 0, i32 0} ; [ DW_TAG_auto_variable ] [i] [line 253]
!331 = metadata !{i32 253, i32 9, metadata !52, null}
!332 = metadata !{i32 254, i32 9, metadata !333, null}
!333 = metadata !{i32 786443, metadata !45, metadata !52, i32 254, i32 5, i32 0, i32 6} ; [ DW_TAG_lexical_block ] [/home/trungnguyen/SDSoC/workspace/correlation_ver1/correlation_ver1_standard_alone/SDRelease//home/trungnguyen/SDSoC/workspace/correlation_ver1/correlation_ver1_standard_alone/src/main.cpp]
!334 = metadata !{i32 254, i32 9, metadata !335, null}
!335 = metadata !{i32 786443, metadata !45, metadata !336, i32 254, i32 9, i32 2, i32 41} ; [ DW_TAG_lexical_block ] [/home/trungnguyen/SDSoC/workspace/correlation_ver1/correlation_ver1_standard_alone/SDRelease//home/trungnguyen/SDSoC/workspace/correlation_ver1/correlation_ver1_standard_alone/src/main.cpp]
!336 = metadata !{i32 786443, metadata !45, metadata !333, i32 254, i32 9, i32 1, i32 37} ; [ DW_TAG_lexical_block ] [/home/trungnguyen/SDSoC/workspace/correlation_ver1/correlation_ver1_standard_alone/SDRelease//home/trungnguyen/SDSoC/workspace/correlation_ver1/correlation_ver1_standard_alone/src/main.cpp]
!337 = metadata !{i32 786688, metadata !338, metadata !"j", metadata !46, i32 255, metadata !8, i32 0, i32 0} ; [ DW_TAG_auto_variable ] [j] [line 255]
!338 = metadata !{i32 786443, metadata !45, metadata !333, i32 254, i32 47, i32 0, i32 7} ; [ DW_TAG_lexical_block ] [/home/trungnguyen/SDSoC/workspace/correlation_ver1/correlation_ver1_standard_alone/SDRelease//home/trungnguyen/SDSoC/workspace/correlation_ver1/correlation_ver1_standard_alone/src/main.cpp]
!339 = metadata !{i32 255, i32 13, metadata !338, null}
!340 = metadata !{i32 256, i32 13, metadata !341, null}
!341 = metadata !{i32 786443, metadata !45, metadata !338, i32 256, i32 9, i32 0, i32 8} ; [ DW_TAG_lexical_block ] [/home/trungnguyen/SDSoC/workspace/correlation_ver1/correlation_ver1_standard_alone/SDRelease//home/trungnguyen/SDSoC/workspace/correlation_ver1/correlation_ver1_standard_alone/src/main.cpp]
!342 = metadata !{i32 256, i32 13, metadata !343, null}
!343 = metadata !{i32 786443, metadata !45, metadata !344, i32 256, i32 13, i32 2, i32 40} ; [ DW_TAG_lexical_block ] [/home/trungnguyen/SDSoC/workspace/correlation_ver1/correlation_ver1_standard_alone/SDRelease//home/trungnguyen/SDSoC/workspace/correlation_ver1/correlation_ver1_standard_alone/src/main.cpp]
!344 = metadata !{i32 786443, metadata !45, metadata !341, i32 256, i32 13, i32 1, i32 38} ; [ DW_TAG_lexical_block ] [/home/trungnguyen/SDSoC/workspace/correlation_ver1/correlation_ver1_standard_alone/SDRelease//home/trungnguyen/SDSoC/workspace/correlation_ver1/correlation_ver1_standard_alone/src/main.cpp]
!345 = metadata !{i32 786688, metadata !346, metadata !"indexA", metadata !46, i32 257, metadata !50, i32 0, i32 0} ; [ DW_TAG_auto_variable ] [indexA] [line 257]
!346 = metadata !{i32 786443, metadata !45, metadata !341, i32 256, i32 51, i32 0, i32 9} ; [ DW_TAG_lexical_block ] [/home/trungnguyen/SDSoC/workspace/correlation_ver1/correlation_ver1_standard_alone/SDRelease//home/trungnguyen/SDSoC/workspace/correlation_ver1/correlation_ver1_standard_alone/src/main.cpp]
!347 = metadata !{i32 257, i32 20, metadata !346, null}
!348 = metadata !{i32 257, i32 13, metadata !346, null}
!349 = metadata !{i32 786688, metadata !346, metadata !"indexB", metadata !46, i32 258, metadata !50, i32 0, i32 0} ; [ DW_TAG_auto_variable ] [indexB] [line 258]
!350 = metadata !{i32 258, i32 20, metadata !346, null}
!351 = metadata !{i32 258, i32 13, metadata !346, null}
!352 = metadata !{i32 260, i32 16, metadata !353, null}
!353 = metadata !{i32 786443, metadata !45, metadata !346, i32 260, i32 16, i32 0, i32 10} ; [ DW_TAG_lexical_block ] [/home/trungnguyen/SDSoC/workspace/correlation_ver1/correlation_ver1_standard_alone/SDRelease//home/trungnguyen/SDSoC/workspace/correlation_ver1/correlation_ver1_standard_alone/src/main.cpp]
!354 = metadata !{i32 260, i32 16, metadata !355, null}
!355 = metadata !{i32 786443, metadata !45, metadata !353, i32 260, i32 16, i32 1, i32 39} ; [ DW_TAG_lexical_block ] [/home/trungnguyen/SDSoC/workspace/correlation_ver1/correlation_ver1_standard_alone/SDRelease//home/trungnguyen/SDSoC/workspace/correlation_ver1/correlation_ver1_standard_alone/src/main.cpp]
!356 = metadata !{i32 261, i32 17, metadata !357, null}
!357 = metadata !{i32 786443, metadata !45, metadata !353, i32 260, i32 53, i32 0, i32 11} ; [ DW_TAG_lexical_block ] [/home/trungnguyen/SDSoC/workspace/correlation_ver1/correlation_ver1_standard_alone/SDRelease//home/trungnguyen/SDSoC/workspace/correlation_ver1/correlation_ver1_standard_alone/src/main.cpp]
!358 = metadata !{i32 262, i32 13, metadata !357, null}
!359 = metadata !{i32 786688, metadata !346, metadata !"correlation_temp", metadata !46, i32 268, metadata !49, i32 0, i32 0} ; [ DW_TAG_auto_variable ] [correlation_temp] [line 268]
!360 = metadata !{i32 268, i32 19, metadata !346, null}
!361 = metadata !{i32 268, i32 41, metadata !346, null}
!362 = metadata !{i32 273, i32 13, metadata !346, null}
!363 = metadata !{i32 274, i32 13, metadata !346, null}
!364 = metadata !{i32 275, i32 9, metadata !346, null}
!365 = metadata !{i32 256, i32 47, metadata !341, null}
!366 = metadata !{i32 276, i32 5, metadata !338, null}
!367 = metadata !{i32 254, i32 43, metadata !333, null}
!368 = metadata !{i32 277, i32 1, metadata !52, null}
!369 = metadata !{i32 786689, metadata !72, metadata !"weight", metadata !46, i32 16777439, metadata !50, i32 0, i32 0} ; [ DW_TAG_arg_variable ] [weight] [line 223]
!370 = metadata !{i32 223, i32 31, metadata !72, null}
!371 = metadata !{i32 786689, metadata !72, metadata !"size", metadata !46, i32 33554655, metadata !8, i32 0, i32 0} ; [ DW_TAG_arg_variable ] [size] [line 223]
!372 = metadata !{i32 223, i32 43, metadata !72, null}
!373 = metadata !{i32 786689, metadata !72, metadata !"weightSum", metadata !46, i32 50331871, metadata !50, i32 0, i32 0} ; [ DW_TAG_arg_variable ] [weightSum] [line 223]
!374 = metadata !{i32 223, i32 56, metadata !72, null}
!375 = metadata !{i32 224, i32 5, metadata !72, null}
!376 = metadata !{i32 225, i32 5, metadata !72, null}
!377 = metadata !{i32 786688, metadata !72, metadata !"i", metadata !46, i32 226, metadata !8, i32 0, i32 0} ; [ DW_TAG_auto_variable ] [i] [line 226]
!378 = metadata !{i32 226, i32 9, metadata !72, null}
!379 = metadata !{i32 227, i32 9, metadata !380, null}
!380 = metadata !{i32 786443, metadata !45, metadata !72, i32 227, i32 5, i32 0, i32 29} ; [ DW_TAG_lexical_block ] [/home/trungnguyen/SDSoC/workspace/correlation_ver1/correlation_ver1_standard_alone/SDRelease//home/trungnguyen/SDSoC/workspace/correlation_ver1/correlation_ver1_standard_alone/src/main.cpp]
!381 = metadata !{i32 227, i32 9, metadata !382, null}
!382 = metadata !{i32 786443, metadata !45, metadata !383, i32 227, i32 9, i32 2, i32 43} ; [ DW_TAG_lexical_block ] [/home/trungnguyen/SDSoC/workspace/correlation_ver1/correlation_ver1_standard_alone/SDRelease//home/trungnguyen/SDSoC/workspace/correlation_ver1/correlation_ver1_standard_alone/src/main.cpp]
!383 = metadata !{i32 786443, metadata !45, metadata !380, i32 227, i32 9, i32 1, i32 42} ; [ DW_TAG_lexical_block ] [/home/trungnguyen/SDSoC/workspace/correlation_ver1/correlation_ver1_standard_alone/SDRelease//home/trungnguyen/SDSoC/workspace/correlation_ver1/correlation_ver1_standard_alone/src/main.cpp]
!384 = metadata !{i32 228, i32 9, metadata !385, null}
!385 = metadata !{i32 786443, metadata !45, metadata !380, i32 227, i32 34, i32 0, i32 30} ; [ DW_TAG_lexical_block ] [/home/trungnguyen/SDSoC/workspace/correlation_ver1/correlation_ver1_standard_alone/SDRelease//home/trungnguyen/SDSoC/workspace/correlation_ver1/correlation_ver1_standard_alone/src/main.cpp]
!386 = metadata !{i32 229, i32 9, metadata !385, null}
!387 = metadata !{i32 230, i32 5, metadata !385, null}
!388 = metadata !{i32 227, i32 30, metadata !380, null}
!389 = metadata !{i32 231, i32 1, metadata !72, null}
!390 = metadata !{i32 786689, metadata !56, metadata !"argc", metadata !46, i32 16777532, metadata !8, i32 0, i32 0} ; [ DW_TAG_arg_variable ] [argc] [line 316]
!391 = metadata !{i32 316, i32 14, metadata !56, null}
!392 = metadata !{i32 786689, metadata !56, metadata !"argv", metadata !46, i32 33554748, metadata !59, i32 0, i32 0} ; [ DW_TAG_arg_variable ] [argv] [line 316]
!393 = metadata !{i32 316, i32 26, metadata !56, null}
!394 = metadata !{i32 318, i32 2, metadata !56, null}
!395 = metadata !{i32 786688, metadata !56, metadata !"number_of_days_per_index", metadata !46, i32 322, metadata !8, i32 0, i32 0} ; [ DW_TAG_auto_variable ] [number_of_days_per_index] [line 322]
!396 = metadata !{i32 322, i32 9, metadata !56, null}
!397 = metadata !{i32 322, i32 5, metadata !56, null}
!398 = metadata !{i32 786688, metadata !56, metadata !"all_indices_size", metadata !46, i32 323, metadata !8, i32 0, i32 0} ; [ DW_TAG_auto_variable ] [all_indices_size] [line 323]
!399 = metadata !{i32 323, i32 9, metadata !56, null}
!400 = metadata !{i32 323, i32 5, metadata !56, null}
!401 = metadata !{i32 786688, metadata !56, metadata !"indices_buff", metadata !46, i32 324, metadata !50, i32 0, i32 0} ; [ DW_TAG_auto_variable ] [indices_buff] [line 324]
!402 = metadata !{i32 324, i32 12, metadata !56, null}
!403 = metadata !{i32 324, i32 5, metadata !56, null}
!404 = metadata !{i32 325, i32 48, metadata !56, null}
!405 = metadata !{i32 786688, metadata !56, metadata !"correlation_buff", metadata !46, i32 328, metadata !50, i32 0, i32 0} ; [ DW_TAG_auto_variable ] [correlation_buff] [line 328]
!406 = metadata !{i32 328, i32 12, metadata !56, null}
!407 = metadata !{i32 328, i32 5, metadata !56, null}
!408 = metadata !{i32 329, i32 48, metadata !56, null}
!409 = metadata !{i32 786688, metadata !56, metadata !"correlation_sw", metadata !46, i32 333, metadata !50, i32 0, i32 0} ; [ DW_TAG_auto_variable ] [correlation_sw] [line 333]
!410 = metadata !{i32 333, i32 12, metadata !56, null}
!411 = metadata !{i32 333, i32 5, metadata !56, null}
!412 = metadata !{i32 334, i32 36, metadata !56, null}
!413 = metadata !{i32 338, i32 5, metadata !56, null}
!414 = metadata !{i32 339, i32 5, metadata !56, null}
!415 = metadata !{i32 786688, metadata !56, metadata !"number_of_indices", metadata !46, i32 342, metadata !8, i32 0, i32 0} ; [ DW_TAG_auto_variable ] [number_of_indices] [line 342]
!416 = metadata !{i32 342, i32 9, metadata !56, null}
!417 = metadata !{i32 343, i32 5, metadata !56, null}
!418 = metadata !{i32 344, i32 5, metadata !56, null}
!419 = metadata !{i32 345, i32 5, metadata !56, null}
!420 = metadata !{i32 786688, metadata !56, metadata !"clock_start", metadata !46, i32 349, metadata !421, i32 0, i32 0} ; [ DW_TAG_auto_variable ] [clock_start] [line 349]
!421 = metadata !{i32 786468, null, null, metadata !"long long unsigned int", i32 0, i64 64, i64 64, i64 0, i32 0, i32 7} ; [ DW_TAG_base_type ] [long long unsigned int] [line 0, size 64, align 64, offset 0, enc DW_ATE_unsigned]
!422 = metadata !{i32 349, i32 5, metadata !56, null}
!423 = metadata !{i32 786688, metadata !56, metadata !"clock_end", metadata !46, i32 349, metadata !421, i32 0, i32 0} ; [ DW_TAG_auto_variable ] [clock_end] [line 349]
!424 = metadata !{i32 351, i32 9, metadata !56, null}
!425 = metadata !{i32 358, i32 5, metadata !426, null}
!426 = metadata !{i32 786443, metadata !45, metadata !56, i32 358, i32 5, i32 0, i32 12} ; [ DW_TAG_lexical_block ] [/home/trungnguyen/SDSoC/workspace/correlation_ver1/correlation_ver1_standard_alone/SDRelease//home/trungnguyen/SDSoC/workspace/correlation_ver1/correlation_ver1_standard_alone/src/main.cpp]
!427 = metadata !{i32 362, i32 5, metadata !56, null}
!428 = metadata !{i32 366, i32 5, metadata !429, null}
!429 = metadata !{i32 786443, metadata !45, metadata !56, i32 366, i32 5, i32 0, i32 13} ; [ DW_TAG_lexical_block ] [/home/trungnguyen/SDSoC/workspace/correlation_ver1/correlation_ver1_standard_alone/SDRelease//home/trungnguyen/SDSoC/workspace/correlation_ver1/correlation_ver1_standard_alone/src/main.cpp]
!430 = metadata !{i32 786688, metadata !56, metadata !"number_of_result", metadata !46, i32 370, metadata !8, i32 0, i32 0} ; [ DW_TAG_auto_variable ] [number_of_result] [line 370]
!431 = metadata !{i32 370, i32 9, metadata !56, null}
!432 = metadata !{i32 370, i32 5, metadata !56, null}
!433 = metadata !{i32 786688, metadata !56, metadata !"status", metadata !46, i32 371, metadata !32, i32 0, i32 0} ; [ DW_TAG_auto_variable ] [status] [line 371]
!434 = metadata !{i32 371, i32 10, metadata !56, null}
!435 = metadata !{i32 372, i32 14, metadata !56, null}
!436 = metadata !{i32 375, i32 5, metadata !56, null}
!437 = metadata !{i32 376, i32 5, metadata !56, null}
!438 = metadata !{i32 786689, metadata !66, metadata !"TX_BUFFER_BASE", metadata !46, i32 16777273, metadata !69, i32 0, i32 0} ; [ DW_TAG_arg_variable ] [TX_BUFFER_BASE] [line 57]
!439 = metadata !{i32 57, i32 36, metadata !66, null}
!440 = metadata !{i32 786688, metadata !66, metadata !"NUM_OF_INDICES_IN_MEM", metadata !46, i32 60, metadata !8, i32 0, i32 0} ; [ DW_TAG_auto_variable ] [NUM_OF_INDICES_IN_MEM] [line 60]
!441 = metadata !{i32 60, i32 9, metadata !66, null}
!442 = metadata !{i32 60, i32 5, metadata !66, null}
!443 = metadata !{i32 786688, metadata !66, metadata !"NUM_OF_DAYS_PER_INDEX", metadata !46, i32 61, metadata !8, i32 0, i32 0} ; [ DW_TAG_auto_variable ] [NUM_OF_DAYS_PER_INDEX] [line 61]
!444 = metadata !{i32 61, i32 9, metadata !66, null}
!445 = metadata !{i32 61, i32 5, metadata !66, null}
!446 = metadata !{i32 786688, metadata !66, metadata !"UPPER_BOUND", metadata !46, i32 62, metadata !8, i32 0, i32 0} ; [ DW_TAG_auto_variable ] [UPPER_BOUND] [line 62]
!447 = metadata !{i32 62, i32 9, metadata !66, null}
!448 = metadata !{i32 62, i32 5, metadata !66, null}
!449 = metadata !{i32 786688, metadata !66, metadata !"inputData", metadata !46, i32 64, metadata !450, i32 0, i32 0} ; [ DW_TAG_auto_variable ] [inputData] [line 64]
!450 = metadata !{i32 786433, null, null, metadata !"", i32 0, i64 40320, i64 32, i32 0, i32 0, metadata !49, metadata !451, i32 0, null, null, null} ; [ DW_TAG_array_type ] [line 0, size 40320, align 32, offset 0] [from float]
!451 = metadata !{metadata !452}
!452 = metadata !{i32 786465, i64 0, i64 1260}    ; [ DW_TAG_subrange_type ] [0, 1259]
!453 = metadata !{i32 64, i32 11, metadata !66, null}
!454 = metadata !{i32 64, i32 5, metadata !66, null}
!455 = metadata !{i32 68, i32 5, metadata !66, null}
!456 = metadata !{i32 72, i32 5, metadata !66, null}
!457 = metadata !{i32 786688, metadata !458, metadata !"j", metadata !46, i32 76, metadata !8, i32 0, i32 0} ; [ DW_TAG_auto_variable ] [j] [line 76]
!458 = metadata !{i32 786443, metadata !45, metadata !66, i32 76, i32 5, i32 0, i32 21} ; [ DW_TAG_lexical_block ] [/home/trungnguyen/SDSoC/workspace/correlation_ver1/correlation_ver1_standard_alone/SDRelease//home/trungnguyen/SDSoC/workspace/correlation_ver1/correlation_ver1_standard_alone/src/main.cpp]
!459 = metadata !{i32 76, i32 14, metadata !458, null}
!460 = metadata !{i32 76, i32 10, metadata !458, null}
!461 = metadata !{i32 76, i32 10, metadata !462, null}
!462 = metadata !{i32 786443, metadata !45, metadata !463, i32 76, i32 10, i32 2, i32 45} ; [ DW_TAG_lexical_block ] [/home/trungnguyen/SDSoC/workspace/correlation_ver1/correlation_ver1_standard_alone/SDRelease//home/trungnguyen/SDSoC/workspace/correlation_ver1/correlation_ver1_standard_alone/src/main.cpp]
!463 = metadata !{i32 786443, metadata !45, metadata !458, i32 76, i32 10, i32 1, i32 44} ; [ DW_TAG_lexical_block ] [/home/trungnguyen/SDSoC/workspace/correlation_ver1/correlation_ver1_standard_alone/SDRelease//home/trungnguyen/SDSoC/workspace/correlation_ver1/correlation_ver1_standard_alone/src/main.cpp]
!464 = metadata !{i32 77, i32 9, metadata !465, null}
!465 = metadata !{i32 786443, metadata !45, metadata !458, i32 76, i32 42, i32 0, i32 22} ; [ DW_TAG_lexical_block ] [/home/trungnguyen/SDSoC/workspace/correlation_ver1/correlation_ver1_standard_alone/SDRelease//home/trungnguyen/SDSoC/workspace/correlation_ver1/correlation_ver1_standard_alone/src/main.cpp]
!466 = metadata !{i32 80, i32 5, metadata !465, null}
!467 = metadata !{i32 76, i32 38, metadata !458, null}
!468 = metadata !{i32 786688, metadata !66, metadata !"errorCount", metadata !46, i32 82, metadata !8, i32 0, i32 0} ; [ DW_TAG_auto_variable ] [errorCount] [line 82]
!469 = metadata !{i32 82, i32 9, metadata !66, null}
!470 = metadata !{i32 82, i32 5, metadata !66, null}
!471 = metadata !{i32 786688, metadata !66, metadata !"status", metadata !46, i32 83, metadata !8, i32 0, i32 0} ; [ DW_TAG_auto_variable ] [status] [line 83]
!472 = metadata !{i32 83, i32 9, metadata !66, null}
!473 = metadata !{i32 786688, metadata !474, metadata !"j", metadata !46, i32 84, metadata !8, i32 0, i32 0} ; [ DW_TAG_auto_variable ] [j] [line 84]
!474 = metadata !{i32 786443, metadata !45, metadata !66, i32 84, i32 5, i32 0, i32 23} ; [ DW_TAG_lexical_block ] [/home/trungnguyen/SDSoC/workspace/correlation_ver1/correlation_ver1_standard_alone/SDRelease//home/trungnguyen/SDSoC/workspace/correlation_ver1/correlation_ver1_standard_alone/src/main.cpp]
!475 = metadata !{i32 84, i32 13, metadata !474, null}
!476 = metadata !{i32 84, i32 9, metadata !474, null}
!477 = metadata !{i32 84, i32 9, metadata !478, null}
!478 = metadata !{i32 786443, metadata !45, metadata !479, i32 84, i32 9, i32 2, i32 47} ; [ DW_TAG_lexical_block ] [/home/trungnguyen/SDSoC/workspace/correlation_ver1/correlation_ver1_standard_alone/SDRelease//home/trungnguyen/SDSoC/workspace/correlation_ver1/correlation_ver1_standard_alone/src/main.cpp]
!479 = metadata !{i32 786443, metadata !45, metadata !474, i32 84, i32 9, i32 1, i32 46} ; [ DW_TAG_lexical_block ] [/home/trungnguyen/SDSoC/workspace/correlation_ver1/correlation_ver1_standard_alone/SDRelease//home/trungnguyen/SDSoC/workspace/correlation_ver1/correlation_ver1_standard_alone/src/main.cpp]
!480 = metadata !{i32 85, i32 19, metadata !481, null}
!481 = metadata !{i32 786443, metadata !45, metadata !474, i32 84, i32 46, i32 0, i32 24} ; [ DW_TAG_lexical_block ] [/home/trungnguyen/SDSoC/workspace/correlation_ver1/correlation_ver1_standard_alone/SDRelease//home/trungnguyen/SDSoC/workspace/correlation_ver1/correlation_ver1_standard_alone/src/main.cpp]
!482 = metadata !{i32 86, i32 12, metadata !483, null}
!483 = metadata !{i32 786443, metadata !45, metadata !481, i32 86, i32 12, i32 0, i32 25} ; [ DW_TAG_lexical_block ] [/home/trungnguyen/SDSoC/workspace/correlation_ver1/correlation_ver1_standard_alone/SDRelease//home/trungnguyen/SDSoC/workspace/correlation_ver1/correlation_ver1_standard_alone/src/main.cpp]
!484 = metadata !{i32 87, i32 13, metadata !485, null}
!485 = metadata !{i32 786443, metadata !45, metadata !483, i32 86, i32 24, i32 0, i32 26} ; [ DW_TAG_lexical_block ] [/home/trungnguyen/SDSoC/workspace/correlation_ver1/correlation_ver1_standard_alone/SDRelease//home/trungnguyen/SDSoC/workspace/correlation_ver1/correlation_ver1_standard_alone/src/main.cpp]
!486 = metadata !{i32 88, i32 9, metadata !485, null}
!487 = metadata !{i32 89, i32 5, metadata !481, null}
!488 = metadata !{i32 84, i32 41, metadata !474, null}
!489 = metadata !{i32 91, i32 8, metadata !490, null}
!490 = metadata !{i32 786443, metadata !45, metadata !66, i32 91, i32 8, i32 0, i32 27} ; [ DW_TAG_lexical_block ] [/home/trungnguyen/SDSoC/workspace/correlation_ver1/correlation_ver1_standard_alone/SDRelease//home/trungnguyen/SDSoC/workspace/correlation_ver1/correlation_ver1_standard_alone/src/main.cpp]
!491 = metadata !{i32 92, i32 9, metadata !492, null}
!492 = metadata !{i32 786443, metadata !45, metadata !490, i32 91, i32 24, i32 0, i32 28} ; [ DW_TAG_lexical_block ] [/home/trungnguyen/SDSoC/workspace/correlation_ver1/correlation_ver1_standard_alone/SDRelease//home/trungnguyen/SDSoC/workspace/correlation_ver1/correlation_ver1_standard_alone/src/main.cpp]
!493 = metadata !{i32 93, i32 9, metadata !492, null}
!494 = metadata !{i32 91, i32 22, metadata !495, null}
!495 = metadata !{i32 786443, metadata !45, metadata !490, i32 91, i32 22, i32 1, i32 48} ; [ DW_TAG_lexical_block ] [/home/trungnguyen/SDSoC/workspace/correlation_ver1/correlation_ver1_standard_alone/SDRelease//home/trungnguyen/SDSoC/workspace/correlation_ver1/correlation_ver1_standard_alone/src/main.cpp]
!496 = metadata !{i32 786689, metadata !62, metadata !"hw_result", metadata !46, i32 16777502, metadata !50, i32 0, i32 0} ; [ DW_TAG_arg_variable ] [hw_result] [line 286]
!497 = metadata !{i32 286, i32 35, metadata !62, null}
!498 = metadata !{i32 786689, metadata !62, metadata !"sw_result", metadata !46, i32 33554718, metadata !50, i32 0, i32 0} ; [ DW_TAG_arg_variable ] [sw_result] [line 286]
!499 = metadata !{i32 286, i32 53, metadata !62, null}
!500 = metadata !{i32 786689, metadata !62, metadata !"number_of_result", metadata !46, i32 50331935, metadata !55, i32 0, i32 0} ; [ DW_TAG_arg_variable ] [number_of_result] [line 287]
!501 = metadata !{i32 287, i32 31, metadata !62, null}
!502 = metadata !{i32 786689, metadata !62, metadata !"allowErrorThreshold", metadata !46, i32 67109152, metadata !65, i32 0, i32 0} ; [ DW_TAG_arg_variable ] [allowErrorThreshold] [line 288]
!503 = metadata !{i32 288, i32 33, metadata !62, null}
!504 = metadata !{i32 786688, metadata !62, metadata !"i", metadata !46, i32 290, metadata !8, i32 0, i32 0} ; [ DW_TAG_auto_variable ] [i] [line 290]
!505 = metadata !{i32 290, i32 9, metadata !62, null}
!506 = metadata !{i32 786688, metadata !62, metadata !"errorCount_in", metadata !46, i32 291, metadata !8, i32 0, i32 0} ; [ DW_TAG_auto_variable ] [errorCount_in] [line 291]
!507 = metadata !{i32 291, i32 9, metadata !62, null}
!508 = metadata !{i32 291, i32 5, metadata !62, null}
!509 = metadata !{i32 292, i32 5, metadata !62, null}
!510 = metadata !{i32 293, i32 5, metadata !62, null}
!511 = metadata !{i32 294, i32 9, metadata !512, null}
!512 = metadata !{i32 786443, metadata !45, metadata !62, i32 294, i32 5, i32 0, i32 14} ; [ DW_TAG_lexical_block ] [/home/trungnguyen/SDSoC/workspace/correlation_ver1/correlation_ver1_standard_alone/SDRelease//home/trungnguyen/SDSoC/workspace/correlation_ver1/correlation_ver1_standard_alone/src/main.cpp]
!513 = metadata !{i32 294, i32 9, metadata !514, null}
!514 = metadata !{i32 786443, metadata !45, metadata !515, i32 294, i32 9, i32 2, i32 50} ; [ DW_TAG_lexical_block ] [/home/trungnguyen/SDSoC/workspace/correlation_ver1/correlation_ver1_standard_alone/SDRelease//home/trungnguyen/SDSoC/workspace/correlation_ver1/correlation_ver1_standard_alone/src/main.cpp]
!515 = metadata !{i32 786443, metadata !45, metadata !512, i32 294, i32 9, i32 1, i32 49} ; [ DW_TAG_lexical_block ] [/home/trungnguyen/SDSoC/workspace/correlation_ver1/correlation_ver1_standard_alone/SDRelease//home/trungnguyen/SDSoC/workspace/correlation_ver1/correlation_ver1_standard_alone/src/main.cpp]
!516 = metadata !{i32 786688, metadata !517, metadata !"sw_result_temp", metadata !46, i32 295, metadata !49, i32 0, i32 0} ; [ DW_TAG_auto_variable ] [sw_result_temp] [line 295]
!517 = metadata !{i32 786443, metadata !45, metadata !512, i32 294, i32 42, i32 0, i32 15} ; [ DW_TAG_lexical_block ] [/home/trungnguyen/SDSoC/workspace/correlation_ver1/correlation_ver1_standard_alone/SDRelease//home/trungnguyen/SDSoC/workspace/correlation_ver1/correlation_ver1_standard_alone/src/main.cpp]
!518 = metadata !{i32 295, i32 15, metadata !517, null}
!519 = metadata !{i32 295, i32 9, metadata !517, null}
!520 = metadata !{i32 786688, metadata !517, metadata !"hw_result_temp", metadata !46, i32 296, metadata !49, i32 0, i32 0} ; [ DW_TAG_auto_variable ] [hw_result_temp] [line 296]
!521 = metadata !{i32 296, i32 15, metadata !517, null}
!522 = metadata !{i32 296, i32 9, metadata !517, null}
!523 = metadata !{i32 299, i32 12, metadata !524, null}
!524 = metadata !{i32 786443, metadata !45, metadata !517, i32 299, i32 12, i32 0, i32 16} ; [ DW_TAG_lexical_block ] [/home/trungnguyen/SDSoC/workspace/correlation_ver1/correlation_ver1_standard_alone/SDRelease//home/trungnguyen/SDSoC/workspace/correlation_ver1/correlation_ver1_standard_alone/src/main.cpp]
!525 = metadata !{i32 300, i32 13, metadata !526, null}
!526 = metadata !{i32 786443, metadata !45, metadata !524, i32 299, i32 73, i32 0, i32 17} ; [ DW_TAG_lexical_block ] [/home/trungnguyen/SDSoC/workspace/correlation_ver1/correlation_ver1_standard_alone/SDRelease//home/trungnguyen/SDSoC/workspace/correlation_ver1/correlation_ver1_standard_alone/src/main.cpp]
!527 = metadata !{i32 301, i32 13, metadata !526, null}
!528 = metadata !{i32 303, i32 9, metadata !526, null}
!529 = metadata !{i32 304, i32 5, metadata !517, null}
!530 = metadata !{i32 294, i32 38, metadata !512, null}
!531 = metadata !{i32 305, i32 8, metadata !532, null}
!532 = metadata !{i32 786443, metadata !45, metadata !62, i32 305, i32 8, i32 0, i32 18} ; [ DW_TAG_lexical_block ] [/home/trungnguyen/SDSoC/workspace/correlation_ver1/correlation_ver1_standard_alone/SDRelease//home/trungnguyen/SDSoC/workspace/correlation_ver1/correlation_ver1_standard_alone/src/main.cpp]
!533 = metadata !{i32 306, i32 6, metadata !534, null}
!534 = metadata !{i32 786443, metadata !45, metadata !532, i32 305, i32 26, i32 0, i32 19} ; [ DW_TAG_lexical_block ] [/home/trungnguyen/SDSoC/workspace/correlation_ver1/correlation_ver1_standard_alone/SDRelease//home/trungnguyen/SDSoC/workspace/correlation_ver1/correlation_ver1_standard_alone/src/main.cpp]
!535 = metadata !{i32 307, i32 9, metadata !534, null}
!536 = metadata !{i32 309, i32 6, metadata !537, null}
!537 = metadata !{i32 786443, metadata !45, metadata !532, i32 308, i32 12, i32 0, i32 20} ; [ DW_TAG_lexical_block ] [/home/trungnguyen/SDSoC/workspace/correlation_ver1/correlation_ver1_standard_alone/SDRelease//home/trungnguyen/SDSoC/workspace/correlation_ver1/correlation_ver1_standard_alone/src/main.cpp]
!538 = metadata !{i32 310, i32 6, metadata !537, null}
!539 = metadata !{i32 312, i32 1, metadata !62, null}
!540 = metadata !{i32 0, i32 0, metadata !541, null}
!541 = metadata !{i32 786443, metadata !45, metadata !75} ; [ DW_TAG_lexical_block ] [/home/trungnguyen/SDSoC/workspace/correlation_ver1/correlation_ver1_standard_alone/SDRelease//home/trungnguyen/SDSoC/workspace/correlation_ver1/correlation_ver1_standard_alone/src/main.cpp]
