; ModuleID = '/home/trungnguyen/SDSoC/workspace/correlation_ver1/correlation_ver1_linux/SDRelease/_sds/vhls/correlation_accel_v1/solution/.autopilot/db/a.o.2.bc'
target datalayout = "e-p:64:64:64-i1:8:8-i8:8:8-i16:16:16-i32:32:32-i64:64:64-f32:32:32-f64:64:64-v64:64:64-v128:128:128-a0:0:64-s0:64:64-f80:128:128-n8:16:32:64-S128"
target triple = "x86_64-unknown-linux-gnu"

@.str1804 = private unnamed_addr constant [1 x i8] zeroinitializer, align 1 ; [#uses=10 type=[1 x i8]*]
@.str1805 = private unnamed_addr constant [6 x i8] c"m_axi\00", align 1 ; [#uses=2 type=[6 x i8]*]
@.str1806 = private unnamed_addr constant [7 x i8] c"direct\00", align 1 ; [#uses=2 type=[7 x i8]*]
@.str1807 = private unnamed_addr constant [11 x i8] c"ap_ctrl_hs\00", align 1 ; [#uses=1 type=[11 x i8]*]
@weight_rom = internal unnamed_addr global [252 x float] zeroinitializer, align 16 ; [#uses=5 type=[252 x float]*]
@.str1808 = private unnamed_addr constant [11 x i8] c"OUTER_LOOP\00", align 1 ; [#uses=3 type=[11 x i8]*]
@bramA = internal unnamed_addr global [252 x float] zeroinitializer, align 16 ; [#uses=3 type=[252 x float]*]
@bramB = internal unnamed_addr global [252 x float] zeroinitializer, align 16 ; [#uses=3 type=[252 x float]*]
@.str1809 = private unnamed_addr constant [11 x i8] c"INNER_LOOP\00", align 1 ; [#uses=3 type=[11 x i8]*]
@counter = internal unnamed_addr global i32 0, align 4 ; [#uses=2 type=i32*]
@.str1811 = private unnamed_addr constant [18 x i8] c"ACCUMULATION_LOOP\00", align 1 ; [#uses=3 type=[18 x i8]*]
@.str1812 = private unnamed_addr constant [16 x i8] c"LAST_ACCUM_LOOP\00", align 1 ; [#uses=3 type=[16 x i8]*]
@.str1814 = private unnamed_addr constant [16 x i8] c"INIT_WEIGHT_ROM\00", align 1 ; [#uses=1 type=[16 x i8]*]
@.str1815 = private unnamed_addr constant [19 x i8] c"COMP_SUM_OF_WEIGHT\00", align 1 ; [#uses=1 type=[19 x i8]*]
@llvm.global_ctors.0 = appending global [1 x i32] [i32 65535] ; [#uses=0 type=[1 x i32]*]
@llvm.global_ctors.1 = appending global [1 x void ()*] [void ()* @_GLOBAL__I_a] ; [#uses=0 type=[1 x void ()*]*]
@str = internal constant [21 x i8] c"correlation_accel_v1\00" ; [#uses=1 type=[21 x i8]*]
@str1 = internal constant [72 x i8] c"memcpy.correlation_accel_v1(int, int, float*, float*)::bramA.in_indices\00" ; [#uses=1 type=[72 x i8]*]
@str2 = internal constant [1 x i8] zeroinitializer ; [#uses=1 type=[1 x i8]*]
@str3 = internal constant [1 x i8] zeroinitializer ; [#uses=1 type=[1 x i8]*]
@.str4 = internal constant [17 x i8] c"burstread.region\00" ; [#uses=2 type=[17 x i8]*]
@str5 = internal constant [72 x i8] c"memcpy.correlation_accel_v1(int, int, float*, float*)::bramB.in_indices\00" ; [#uses=1 type=[72 x i8]*]
@str6 = internal constant [1 x i8] zeroinitializer ; [#uses=1 type=[1 x i8]*]
@str7 = internal constant [1 x i8] zeroinitializer ; [#uses=1 type=[1 x i8]*]
@.str15 = internal constant [17 x i8] c"burstread.region\00" ; [#uses=2 type=[17 x i8]*]

; [#uses=7]
declare void @llvm.dbg.declare(metadata, metadata) nounwind readnone

; [#uses=1]
declare void @_ssdm_op_SpecLatency(...) nounwind

; [#uses=3]
declare void @_ssdm_op_SpecInterface(...) nounwind

; [#uses=8]
declare void @_ssdm_op_SpecLoopName(...) nounwind

; [#uses=4]
declare void @_ssdm_op_SpecPipeline(...) nounwind

; [#uses=30]
declare void @llvm.dbg.value(metadata, i64, metadata) nounwind readnone

; [#uses=1]
declare void @_ssdm_op_SpecTopModule(...)

; [#uses=5]
declare void @_ssdm_op_SpecBitsMap(...)

; [#uses=1]
declare void @_GLOBAL__I_a() nounwind section ".text.startup"

; [#uses=2]
declare float @llvm.log.f32(float) nounwind readonly

; [#uses=2]
declare float @llvm.sqrt.f32(float) nounwind readonly

; [#uses=2]
declare i32 @_ssdm_SpecLoopFlatten(...)

; [#uses=2]
declare i32 @_ssdm_op_SpecBurst(...)

; [#uses=6]
declare i32 @_ssdm_op_SpecRegionBegin(...)

; [#uses=6]
declare i32 @_ssdm_op_SpecRegionEnd(...)

; [#uses=0]
define i32 @correlation_accel_v1(i32 %number_of_days, i32 %number_of_indices, [2520000 x float]* %in_indices, [49995000 x float]* %out_correlation) nounwind uwtable {
  call void (...)* @_ssdm_op_SpecBitsMap(i32 %number_of_days) nounwind, !map !14806
  call void (...)* @_ssdm_op_SpecBitsMap(i32 %number_of_indices) nounwind, !map !14812
  call void (...)* @_ssdm_op_SpecBitsMap([2520000 x float]* %in_indices) nounwind, !map !14816
  call void (...)* @_ssdm_op_SpecBitsMap([49995000 x float]* %out_correlation) nounwind, !map !14822
  call void (...)* @_ssdm_op_SpecBitsMap(i32 0) nounwind, !map !14828
  call void (...)* @_ssdm_op_SpecTopModule([21 x i8]* @str) nounwind
  %acc_returnA = alloca [6 x float], align 16     ; [#uses=8 type=[6 x float]*]
  call void @llvm.dbg.declare(metadata !{[6 x float]* %acc_returnA}, metadata !14834), !dbg !14843 ; [debug line = 75:12] [debug variable = acc_returnA]
  %acc_returnB = alloca [6 x float], align 16     ; [#uses=8 type=[6 x float]*]
  call void @llvm.dbg.declare(metadata !{[6 x float]* %acc_returnB}, metadata !14844), !dbg !14845 ; [debug line = 76:12] [debug variable = acc_returnB]
  %acc_weight_returnSquareA = alloca [6 x float], align 16 ; [#uses=8 type=[6 x float]*]
  call void @llvm.dbg.declare(metadata !{[6 x float]* %acc_weight_returnSquareA}, metadata !14846), !dbg !14847 ; [debug line = 77:12] [debug variable = acc_weight_returnSquareA]
  %acc_weight_returnA = alloca [6 x float], align 16 ; [#uses=8 type=[6 x float]*]
  call void @llvm.dbg.declare(metadata !{[6 x float]* %acc_weight_returnA}, metadata !14848), !dbg !14849 ; [debug line = 78:12] [debug variable = acc_weight_returnA]
  %acc_weight_returnSquareB = alloca [6 x float], align 16 ; [#uses=8 type=[6 x float]*]
  call void @llvm.dbg.declare(metadata !{[6 x float]* %acc_weight_returnSquareB}, metadata !14850), !dbg !14851 ; [debug line = 79:12] [debug variable = acc_weight_returnSquareB]
  %acc_weight_returnB = alloca [6 x float], align 16 ; [#uses=8 type=[6 x float]*]
  call void @llvm.dbg.declare(metadata !{[6 x float]* %acc_weight_returnB}, metadata !14852), !dbg !14853 ; [debug line = 80:12] [debug variable = acc_weight_returnB]
  %acc_weight_returnA_returnB = alloca [6 x float], align 16 ; [#uses=8 type=[6 x float]*]
  call void @llvm.dbg.declare(metadata !{[6 x float]* %acc_weight_returnA_returnB}, metadata !14854), !dbg !14855 ; [debug line = 81:12] [debug variable = acc_weight_returnA_returnB]
  call void @llvm.dbg.value(metadata !{i32 %number_of_days}, i64 0, metadata !14856), !dbg !14857 ; [debug line = 26:6] [debug variable = number_of_days]
  call void @llvm.dbg.value(metadata !{i32 %number_of_indices}, i64 0, metadata !14858), !dbg !14859 ; [debug line = 27:6] [debug variable = number_of_indices]
  call void @llvm.dbg.value(metadata !{[2520000 x float]* %in_indices}, i64 0, metadata !14860), !dbg !14864 ; [debug line = 29:8] [debug variable = in_indices]
  call void @llvm.dbg.value(metadata !{[49995000 x float]* %out_correlation}, i64 0, metadata !14865), !dbg !14869 ; [debug line = 30:8] [debug variable = out_correlation]
  call void (...)* @_ssdm_op_SpecLatency(i32 1, i32 65535, [1 x i8]* @.str1804) nounwind, !dbg !14870 ; [debug line = 34:1]
  call void (...)* @_ssdm_op_SpecInterface([2520000 x float]* %in_indices, [6 x i8]* @.str1805, i32 0, i32 0, i32 0, i32 2520000, [1 x i8]* @.str1804, [7 x i8]* @.str1806, [1 x i8]* @.str1804) nounwind
  call void (...)* @_ssdm_op_SpecInterface([49995000 x float]* %out_correlation, [6 x i8]* @.str1805, i32 0, i32 0, i32 0, i32 49995000, [1 x i8]* @.str1804, [7 x i8]* @.str1806, [1 x i8]* @.str1804) nounwind
  call void (...)* @_ssdm_op_SpecInterface(i32 0, [11 x i8]* @.str1807, i32 0, i32 0, i32 0, i32 0, [1 x i8]* @.str1804, [1 x i8]* @.str1804, [1 x i8]* @.str1804) nounwind, !dbg !14871 ; [debug line = 41:1]
  call void @llvm.dbg.value(metadata !{i32 %number_of_days}, i64 0, metadata !14872), !dbg !14873 ; [debug line = 43:37] [debug variable = NUMBER_OF_DAYS]
  call void @llvm.dbg.value(metadata !{i32 %number_of_indices}, i64 0, metadata !14874), !dbg !14875 ; [debug line = 44:43] [debug variable = NUMBER_OF_INDICES]
  call void @llvm.dbg.value(metadata !{i32 %number_of_days}, i64 0, metadata !14876) nounwind, !dbg !14881 ; [debug line = 201:7@50:2] [debug variable = NUMBER_OF_DAYS]
  store float 1.000000e+00, float* getelementptr inbounds ([252 x float]* @weight_rom, i64 0, i64 0), align 16, !dbg !14882 ; [debug line = 204:2@50:2]
  store float 1.000000e+00, float* getelementptr inbounds ([252 x float]* @weight_rom, i64 0, i64 1), align 4, !dbg !14884 ; [debug line = 205:2@50:2]
  br label %1, !dbg !14885                        ; [debug line = 208:15@50:2]

; <label>:1                                       ; preds = %3, %0
  %tmp.i = phi float [ 1.000000e+00, %0 ], [ %tmp..i, %3 ] ; [#uses=1 type=float]
  %i.i = phi i8 [ 2, %0 ], [ %i.2, %3 ]           ; [#uses=3 type=i8]
  %exitcond.i = icmp eq i8 %i.i, -4, !dbg !14885  ; [#uses=1 type=i1] [debug line = 208:15@50:2]
  %2 = call i32 (...)* @_ssdm_op_SpecLoopTripCount(i64 250, i64 250, i64 250) nounwind ; [#uses=0 type=i32]
  br i1 %exitcond.i, label %.preheader.i, label %3, !dbg !14885 ; [debug line = 208:15@50:2]

; <label>:3                                       ; preds = %1
  call void (...)* @_ssdm_op_SpecLoopName([16 x i8]* @.str1814) nounwind, !dbg !14887 ; [debug line = 208:46@50:2]
  %tmp..i = fmul float %tmp.i, 0x3FEE147AE0000000, !dbg !14889 ; [#uses=2 type=float] [debug line = 209:3@50:2]
  %tmp.56.i = zext i8 %i.i to i64, !dbg !14889    ; [#uses=1 type=i64] [debug line = 209:3@50:2]
  %weight_rom.addr.1 = getelementptr [252 x float]* @weight_rom, i64 0, i64 %tmp.56.i, !dbg !14889 ; [#uses=1 type=float*] [debug line = 209:3@50:2]
  store float %tmp..i, float* %weight_rom.addr.1, align 4, !dbg !14889 ; [debug line = 209:3@50:2]
  %i.2 = add i8 %i.i, 1, !dbg !14890              ; [#uses=1 type=i8] [debug line = 208:40@50:2]
  call void @llvm.dbg.value(metadata !{i8 %i.2}, i64 0, metadata !14891) nounwind, !dbg !14890 ; [debug line = 208:40@50:2] [debug variable = i]
  br label %1, !dbg !14890                        ; [debug line = 208:40@50:2]

.preheader.i:                                     ; preds = %5, %1
  %i1.i = phi i31 [ %i.3, %5 ], [ 2, %1 ]         ; [#uses=3 type=i31]
  %i1.i.cast = zext i31 %i1.i to i32, !dbg !14892 ; [#uses=1 type=i32] [debug line = 213:15@50:2]
  %tmp.57.i = icmp slt i32 %i1.i.cast, %number_of_days, !dbg !14892 ; [#uses=1 type=i1] [debug line = 213:15@50:2]
  %4 = call i32 (...)* @_ssdm_op_SpecLoopTripCount(i64 0, i64 2147483645, i64 0) nounwind ; [#uses=0 type=i32]
  br i1 %tmp.57.i, label %5, label %weight_rom_init.exit, !dbg !14892 ; [debug line = 213:15@50:2]

; <label>:5                                       ; preds = %.preheader.i
  call void (...)* @_ssdm_op_SpecLoopName([19 x i8]* @.str1815) nounwind, !dbg !14894 ; [debug line = 213:42@50:2]
  %tmp.58.i = zext i31 %i1.i to i64, !dbg !14896  ; [#uses=1 type=i64] [debug line = 214:3@50:2]
  %weight_rom.addr.2 = getelementptr [252 x float]* @weight_rom, i64 0, i64 %tmp.58.i, !dbg !14896 ; [#uses=1 type=float*] [debug line = 214:3@50:2]
  %weight_rom.load = load float* %weight_rom.addr.2, align 4, !dbg !14896 ; [#uses=1 type=float] [debug line = 214:3@50:2]
  %weight_rom.load.1 = load float* getelementptr inbounds ([252 x float]* @weight_rom, i64 0, i64 0), align 16, !dbg !14896 ; [#uses=1 type=float] [debug line = 214:3@50:2]
  %tmp.59.i = fadd float %weight_rom.load.1, %weight_rom.load, !dbg !14896 ; [#uses=1 type=float] [debug line = 214:3@50:2]
  store float %tmp.59.i, float* getelementptr inbounds ([252 x float]* @weight_rom, i64 0, i64 0), align 16, !dbg !14896 ; [debug line = 214:3@50:2]
  %i.3 = add i31 %i1.i, 1, !dbg !14897            ; [#uses=1 type=i31] [debug line = 213:37@50:2]
  call void @llvm.dbg.value(metadata !{i31 %i.3}, i64 0, metadata !14898) nounwind, !dbg !14897 ; [debug line = 213:37@50:2] [debug variable = i]
  br label %.preheader.i, !dbg !14897             ; [debug line = 213:37@50:2]

weight_rom_init.exit:                             ; preds = %.preheader.i
  %tmp = add nsw i32 %number_of_indices, -1, !dbg !14899 ; [#uses=1 type=i32] [debug line = 56:24]
  %tmp.1 = add nsw i32 %number_of_days, -1, !dbg !14900 ; [#uses=2 type=i32] [debug line = 104:19]
  %tmp.2 = sitofp i32 %tmp.1 to float, !dbg !14902 ; [#uses=2 type=float] [debug line = 149:65]
  br label %6, !dbg !14899                        ; [debug line = 56:24]

; <label>:6                                       ; preds = %24, %weight_rom_init.exit
  %row_index = phi i31 [ 0, %weight_rom_init.exit ], [ %row_index.1, %24 ] ; [#uses=2 type=i31]
  %row_index.cast = zext i31 %row_index to i32, !dbg !14899 ; [#uses=3 type=i32] [debug line = 56:24]
  %tmp.3 = icmp slt i32 %row_index.cast, %tmp, !dbg !14899 ; [#uses=1 type=i1] [debug line = 56:24]
  br i1 %tmp.3, label %7, label %26, !dbg !14899  ; [debug line = 56:24]

; <label>:7                                       ; preds = %6
  call void (...)* @_ssdm_op_SpecLoopName([11 x i8]* @.str1808) nounwind, !dbg !14903 ; [debug line = 56:74]
  %tmp.11 = call i32 (...)* @_ssdm_op_SpecRegionBegin([11 x i8]* @.str1808) nounwind, !dbg !14904 ; [#uses=1 type=i32] [debug line = 56:110]
  %tmp.4 = mul nsw i32 %row_index.cast, %number_of_days, !dbg !14905 ; [#uses=1 type=i32] [debug line = 61:4]
  %tmp.5 = trunc i32 %number_of_days to i30, !dbg !14905 ; [#uses=3 type=i30] [debug line = 61:4]
  %.add.i32.shr = zext i30 %tmp.5 to i32, !dbg !14905 ; [#uses=2 type=i32] [debug line = 61:4]
  br label %burst.rd.header

burst.rd.header:                                  ; preds = %burst.rd.body, %7
  %indvar = phi i30 [ 0, %7 ], [ %indvar.next, %burst.rd.body ] ; [#uses=4 type=i30]
  %indvar.cast3 = zext i30 %indvar to i32         ; [#uses=1 type=i32]
  %exitcond2 = icmp eq i30 %indvar, %tmp.5        ; [#uses=1 type=i1]
  %8 = call i32 (...)* @_ssdm_op_SpecLoopTripCount(i64 0, i64 1073741823, i64 0) nounwind ; [#uses=0 type=i32]
  br i1 %exitcond2, label %burst.rd.end, label %burst.rd.body

burst.rd.body:                                    ; preds = %burst.rd.header
  %burstread.rbegin = call i32 (...)* @_ssdm_op_SpecRegionBegin([17 x i8]* @.str4) nounwind ; [#uses=1 type=i32]
  %9 = call i32 (...)* @_ssdm_op_SpecBurst([2520000 x float]* %in_indices, i32 1, i32 %.add.i32.shr) nounwind ; [#uses=0 type=i32]
  %10 = call i32 (...)* @_ssdm_SpecLoopFlatten(i32 1, [1 x i8]* @str3) nounwind ; [#uses=0 type=i32]
  call void (...)* @_ssdm_op_SpecPipeline(i32 1, i32 1, i32 1, i32 0, [1 x i8]* @str2)
  call void (...)* @_ssdm_op_SpecLoopName([72 x i8]* @str1)
  %indvar.next = add i30 %indvar, 1               ; [#uses=1 type=i30]
  %in_indices.addr = add i32 %indvar.cast3, %tmp.4 ; [#uses=1 type=i32]
  %tmp.6 = sext i32 %in_indices.addr to i64, !dbg !14905 ; [#uses=1 type=i64] [debug line = 61:4]
  %in_indices.addr.1 = getelementptr [2520000 x float]* %in_indices, i64 0, i64 %tmp.6, !dbg !14905 ; [#uses=1 type=float*] [debug line = 61:4]
  %in_indices.load = load float* %in_indices.addr.1, align 4, !dbg !14905 ; [#uses=1 type=float] [debug line = 61:4]
  %tmp.7 = zext i30 %indvar to i64, !dbg !14905   ; [#uses=1 type=i64] [debug line = 61:4]
  %bramA.addr = getelementptr [252 x float]* @bramA, i64 0, i64 %tmp.7, !dbg !14905 ; [#uses=1 type=float*] [debug line = 61:4]
  store float %in_indices.load, float* %bramA.addr, align 4, !dbg !14905 ; [debug line = 61:4]
  %burstread.rend = call i32 (...)* @_ssdm_op_SpecRegionEnd([17 x i8]* @.str4, i32 %burstread.rbegin) nounwind ; [#uses=0 type=i32]
  br label %burst.rd.header

burst.rd.end:                                     ; preds = %22, %burst.rd.header
  %column_index.0.in = phi i32 [ %column_index, %22 ], [ %row_index.cast, %burst.rd.header ] ; [#uses=1 type=i32]
  %column_index = add nsw i32 %column_index.0.in, 1, !dbg !14906 ; [#uses=3 type=i32] [debug line = 66:41]
  call void @llvm.dbg.value(metadata !{i32 %column_index}, i64 0, metadata !14907), !dbg !14906 ; [debug line = 66:41] [debug variable = column_index]
  %tmp.8 = icmp slt i32 %column_index, %number_of_indices, !dbg !14906 ; [#uses=1 type=i1] [debug line = 66:41]
  br i1 %tmp.8, label %11, label %24, !dbg !14906 ; [debug line = 66:41]

; <label>:11                                      ; preds = %burst.rd.end
  call void (...)* @_ssdm_op_SpecLoopName([11 x i8]* @.str1809) nounwind, !dbg !14908 ; [debug line = 66:93]
  %tmp.56 = call i32 (...)* @_ssdm_op_SpecRegionBegin([11 x i8]* @.str1809) nounwind, !dbg !14909 ; [#uses=1 type=i32] [debug line = 66:129]
  %tmp.9 = mul nsw i32 %column_index, %number_of_days, !dbg !14910 ; [#uses=1 type=i32] [debug line = 68:6]
  br label %burst.rd.header6

burst.rd.header6:                                 ; preds = %burst.rd.body7, %11
  %indvar8 = phi i30 [ 0, %11 ], [ %indvar.next9, %burst.rd.body7 ] ; [#uses=4 type=i30]
  %indvar8.cast2 = zext i30 %indvar8 to i32       ; [#uses=1 type=i32]
  %exitcond3 = icmp eq i30 %indvar8, %tmp.5       ; [#uses=1 type=i1]
  %12 = call i32 (...)* @_ssdm_op_SpecLoopTripCount(i64 0, i64 1073741823, i64 0) nounwind ; [#uses=0 type=i32]
  br i1 %exitcond3, label %burst.rd.end5.0, label %burst.rd.body7

burst.rd.body7:                                   ; preds = %burst.rd.header6
  %burstread.rbegin1 = call i32 (...)* @_ssdm_op_SpecRegionBegin([17 x i8]* @.str15) nounwind ; [#uses=1 type=i32]
  %13 = call i32 (...)* @_ssdm_op_SpecBurst([2520000 x float]* %in_indices, i32 1, i32 %.add.i32.shr) nounwind ; [#uses=0 type=i32]
  %14 = call i32 (...)* @_ssdm_SpecLoopFlatten(i32 1, [1 x i8]* @str7) nounwind ; [#uses=0 type=i32]
  call void (...)* @_ssdm_op_SpecPipeline(i32 1, i32 1, i32 1, i32 0, [1 x i8]* @str6)
  call void (...)* @_ssdm_op_SpecLoopName([72 x i8]* @str5)
  %indvar.next9 = add i30 %indvar8, 1             ; [#uses=1 type=i30]
  %in_indices.addr2 = add i32 %indvar8.cast2, %tmp.9 ; [#uses=1 type=i32]
  %tmp. = sext i32 %in_indices.addr2 to i64, !dbg !14910 ; [#uses=1 type=i64] [debug line = 68:6]
  %in_indices.addr.2 = getelementptr [2520000 x float]* %in_indices, i64 0, i64 %tmp., !dbg !14910 ; [#uses=1 type=float*] [debug line = 68:6]
  %in_indices.load.1 = load float* %in_indices.addr.2, align 4, !dbg !14910 ; [#uses=1 type=float] [debug line = 68:6]
  %tmp.10 = zext i30 %indvar8 to i64, !dbg !14910 ; [#uses=1 type=i64] [debug line = 68:6]
  %bramB.addr = getelementptr [252 x float]* @bramB, i64 0, i64 %tmp.10, !dbg !14910 ; [#uses=1 type=float*] [debug line = 68:6]
  store float %in_indices.load.1, float* %bramB.addr, align 4, !dbg !14910 ; [debug line = 68:6]
  %burstread.rend16 = call i32 (...)* @_ssdm_op_SpecRegionEnd([17 x i8]* @.str15, i32 %burstread.rbegin1) nounwind ; [#uses=0 type=i32]
  br label %burst.rd.header6

burst.rd.end5.0:                                  ; preds = %burst.rd.header6
  %acc_returnA.addr = getelementptr inbounds [6 x float]* %acc_returnA, i64 0, i64 0, !dbg !14911 ; [#uses=1 type=float*] [debug line = 90:2]
  store float 0.000000e+00, float* %acc_returnA.addr, align 16, !dbg !14911 ; [debug line = 90:2]
  %acc_returnB.addr = getelementptr inbounds [6 x float]* %acc_returnB, i64 0, i64 0, !dbg !14914 ; [#uses=1 type=float*] [debug line = 91:7]
  store float 0.000000e+00, float* %acc_returnB.addr, align 16, !dbg !14914 ; [debug line = 91:7]
  %acc_weight_returnSquareA.addr = getelementptr inbounds [6 x float]* %acc_weight_returnSquareA, i64 0, i64 0, !dbg !14915 ; [#uses=1 type=float*] [debug line = 92:7]
  store float 0.000000e+00, float* %acc_weight_returnSquareA.addr, align 16, !dbg !14915 ; [debug line = 92:7]
  %acc_weight_returnA.addr = getelementptr inbounds [6 x float]* %acc_weight_returnA, i64 0, i64 0, !dbg !14916 ; [#uses=1 type=float*] [debug line = 93:7]
  store float 0.000000e+00, float* %acc_weight_returnA.addr, align 16, !dbg !14916 ; [debug line = 93:7]
  %acc_weight_returnSquareB.addr = getelementptr inbounds [6 x float]* %acc_weight_returnSquareB, i64 0, i64 0, !dbg !14917 ; [#uses=1 type=float*] [debug line = 94:7]
  store float 0.000000e+00, float* %acc_weight_returnSquareB.addr, align 16, !dbg !14917 ; [debug line = 94:7]
  %acc_weight_returnB.addr = getelementptr inbounds [6 x float]* %acc_weight_returnB, i64 0, i64 0, !dbg !14918 ; [#uses=1 type=float*] [debug line = 95:7]
  store float 0.000000e+00, float* %acc_weight_returnB.addr, align 16, !dbg !14918 ; [debug line = 95:7]
  %acc_weight_returnA_returnB.addr = getelementptr inbounds [6 x float]* %acc_weight_returnA_returnB, i64 0, i64 0, !dbg !14919 ; [#uses=1 type=float*] [debug line = 96:7]
  store float 0.000000e+00, float* %acc_weight_returnA_returnB.addr, align 16, !dbg !14919 ; [debug line = 96:7]
  %acc_returnA.addr.6 = getelementptr inbounds [6 x float]* %acc_returnA, i64 0, i64 1, !dbg !14911 ; [#uses=1 type=float*] [debug line = 90:2]
  store float 0.000000e+00, float* %acc_returnA.addr.6, align 4, !dbg !14911 ; [debug line = 90:2]
  %acc_returnB.addr.6 = getelementptr inbounds [6 x float]* %acc_returnB, i64 0, i64 1, !dbg !14914 ; [#uses=1 type=float*] [debug line = 91:7]
  store float 0.000000e+00, float* %acc_returnB.addr.6, align 4, !dbg !14914 ; [debug line = 91:7]
  %acc_weight_returnSquareA.addr.6 = getelementptr inbounds [6 x float]* %acc_weight_returnSquareA, i64 0, i64 1, !dbg !14915 ; [#uses=1 type=float*] [debug line = 92:7]
  store float 0.000000e+00, float* %acc_weight_returnSquareA.addr.6, align 4, !dbg !14915 ; [debug line = 92:7]
  %acc_weight_returnA.addr.6 = getelementptr inbounds [6 x float]* %acc_weight_returnA, i64 0, i64 1, !dbg !14916 ; [#uses=1 type=float*] [debug line = 93:7]
  store float 0.000000e+00, float* %acc_weight_returnA.addr.6, align 4, !dbg !14916 ; [debug line = 93:7]
  %acc_weight_returnSquareB.addr.6 = getelementptr inbounds [6 x float]* %acc_weight_returnSquareB, i64 0, i64 1, !dbg !14917 ; [#uses=1 type=float*] [debug line = 94:7]
  store float 0.000000e+00, float* %acc_weight_returnSquareB.addr.6, align 4, !dbg !14917 ; [debug line = 94:7]
  %acc_weight_returnB.addr.6 = getelementptr inbounds [6 x float]* %acc_weight_returnB, i64 0, i64 1, !dbg !14918 ; [#uses=1 type=float*] [debug line = 95:7]
  store float 0.000000e+00, float* %acc_weight_returnB.addr.6, align 4, !dbg !14918 ; [debug line = 95:7]
  %acc_weight_returnA_returnB.addr.6 = getelementptr inbounds [6 x float]* %acc_weight_returnA_returnB, i64 0, i64 1, !dbg !14919 ; [#uses=1 type=float*] [debug line = 96:7]
  store float 0.000000e+00, float* %acc_weight_returnA_returnB.addr.6, align 4, !dbg !14919 ; [debug line = 96:7]
  %acc_returnA.addr.7 = getelementptr inbounds [6 x float]* %acc_returnA, i64 0, i64 2, !dbg !14911 ; [#uses=1 type=float*] [debug line = 90:2]
  store float 0.000000e+00, float* %acc_returnA.addr.7, align 8, !dbg !14911 ; [debug line = 90:2]
  %acc_returnB.addr.7 = getelementptr inbounds [6 x float]* %acc_returnB, i64 0, i64 2, !dbg !14914 ; [#uses=1 type=float*] [debug line = 91:7]
  store float 0.000000e+00, float* %acc_returnB.addr.7, align 8, !dbg !14914 ; [debug line = 91:7]
  %acc_weight_returnSquareA.addr.7 = getelementptr inbounds [6 x float]* %acc_weight_returnSquareA, i64 0, i64 2, !dbg !14915 ; [#uses=1 type=float*] [debug line = 92:7]
  store float 0.000000e+00, float* %acc_weight_returnSquareA.addr.7, align 8, !dbg !14915 ; [debug line = 92:7]
  %acc_weight_returnA.addr.7 = getelementptr inbounds [6 x float]* %acc_weight_returnA, i64 0, i64 2, !dbg !14916 ; [#uses=1 type=float*] [debug line = 93:7]
  store float 0.000000e+00, float* %acc_weight_returnA.addr.7, align 8, !dbg !14916 ; [debug line = 93:7]
  %acc_weight_returnSquareB.addr.7 = getelementptr inbounds [6 x float]* %acc_weight_returnSquareB, i64 0, i64 2, !dbg !14917 ; [#uses=1 type=float*] [debug line = 94:7]
  store float 0.000000e+00, float* %acc_weight_returnSquareB.addr.7, align 8, !dbg !14917 ; [debug line = 94:7]
  %acc_weight_returnB.addr.7 = getelementptr inbounds [6 x float]* %acc_weight_returnB, i64 0, i64 2, !dbg !14918 ; [#uses=1 type=float*] [debug line = 95:7]
  store float 0.000000e+00, float* %acc_weight_returnB.addr.7, align 8, !dbg !14918 ; [debug line = 95:7]
  %acc_weight_returnA_returnB.addr.7 = getelementptr inbounds [6 x float]* %acc_weight_returnA_returnB, i64 0, i64 2, !dbg !14919 ; [#uses=1 type=float*] [debug line = 96:7]
  store float 0.000000e+00, float* %acc_weight_returnA_returnB.addr.7, align 8, !dbg !14919 ; [debug line = 96:7]
  %acc_returnA.addr.3 = getelementptr inbounds [6 x float]* %acc_returnA, i64 0, i64 3, !dbg !14911 ; [#uses=1 type=float*] [debug line = 90:2]
  store float 0.000000e+00, float* %acc_returnA.addr.3, align 4, !dbg !14911 ; [debug line = 90:2]
  %acc_returnB.addr.3 = getelementptr inbounds [6 x float]* %acc_returnB, i64 0, i64 3, !dbg !14914 ; [#uses=1 type=float*] [debug line = 91:7]
  store float 0.000000e+00, float* %acc_returnB.addr.3, align 4, !dbg !14914 ; [debug line = 91:7]
  %acc_weight_returnSquareA.addr.3 = getelementptr inbounds [6 x float]* %acc_weight_returnSquareA, i64 0, i64 3, !dbg !14915 ; [#uses=1 type=float*] [debug line = 92:7]
  store float 0.000000e+00, float* %acc_weight_returnSquareA.addr.3, align 4, !dbg !14915 ; [debug line = 92:7]
  %acc_weight_returnA.addr.3 = getelementptr inbounds [6 x float]* %acc_weight_returnA, i64 0, i64 3, !dbg !14916 ; [#uses=1 type=float*] [debug line = 93:7]
  store float 0.000000e+00, float* %acc_weight_returnA.addr.3, align 4, !dbg !14916 ; [debug line = 93:7]
  %acc_weight_returnSquareB.addr.3 = getelementptr inbounds [6 x float]* %acc_weight_returnSquareB, i64 0, i64 3, !dbg !14917 ; [#uses=1 type=float*] [debug line = 94:7]
  store float 0.000000e+00, float* %acc_weight_returnSquareB.addr.3, align 4, !dbg !14917 ; [debug line = 94:7]
  %acc_weight_returnB.addr.3 = getelementptr inbounds [6 x float]* %acc_weight_returnB, i64 0, i64 3, !dbg !14918 ; [#uses=1 type=float*] [debug line = 95:7]
  store float 0.000000e+00, float* %acc_weight_returnB.addr.3, align 4, !dbg !14918 ; [debug line = 95:7]
  %acc_weight_returnA_returnB.addr.3 = getelementptr inbounds [6 x float]* %acc_weight_returnA_returnB, i64 0, i64 3, !dbg !14919 ; [#uses=1 type=float*] [debug line = 96:7]
  store float 0.000000e+00, float* %acc_weight_returnA_returnB.addr.3, align 4, !dbg !14919 ; [debug line = 96:7]
  %acc_returnA.addr.4 = getelementptr inbounds [6 x float]* %acc_returnA, i64 0, i64 4, !dbg !14911 ; [#uses=1 type=float*] [debug line = 90:2]
  store float 0.000000e+00, float* %acc_returnA.addr.4, align 16, !dbg !14911 ; [debug line = 90:2]
  %acc_returnB.addr.4 = getelementptr inbounds [6 x float]* %acc_returnB, i64 0, i64 4, !dbg !14914 ; [#uses=1 type=float*] [debug line = 91:7]
  store float 0.000000e+00, float* %acc_returnB.addr.4, align 16, !dbg !14914 ; [debug line = 91:7]
  %acc_weight_returnSquareA.addr.4 = getelementptr inbounds [6 x float]* %acc_weight_returnSquareA, i64 0, i64 4, !dbg !14915 ; [#uses=1 type=float*] [debug line = 92:7]
  store float 0.000000e+00, float* %acc_weight_returnSquareA.addr.4, align 16, !dbg !14915 ; [debug line = 92:7]
  %acc_weight_returnA.addr.4 = getelementptr inbounds [6 x float]* %acc_weight_returnA, i64 0, i64 4, !dbg !14916 ; [#uses=1 type=float*] [debug line = 93:7]
  store float 0.000000e+00, float* %acc_weight_returnA.addr.4, align 16, !dbg !14916 ; [debug line = 93:7]
  %acc_weight_returnSquareB.addr.4 = getelementptr inbounds [6 x float]* %acc_weight_returnSquareB, i64 0, i64 4, !dbg !14917 ; [#uses=1 type=float*] [debug line = 94:7]
  store float 0.000000e+00, float* %acc_weight_returnSquareB.addr.4, align 16, !dbg !14917 ; [debug line = 94:7]
  %acc_weight_returnB.addr.4 = getelementptr inbounds [6 x float]* %acc_weight_returnB, i64 0, i64 4, !dbg !14918 ; [#uses=1 type=float*] [debug line = 95:7]
  store float 0.000000e+00, float* %acc_weight_returnB.addr.4, align 16, !dbg !14918 ; [debug line = 95:7]
  %acc_weight_returnA_returnB.addr.4 = getelementptr inbounds [6 x float]* %acc_weight_returnA_returnB, i64 0, i64 4, !dbg !14919 ; [#uses=1 type=float*] [debug line = 96:7]
  store float 0.000000e+00, float* %acc_weight_returnA_returnB.addr.4, align 16, !dbg !14919 ; [debug line = 96:7]
  %acc_returnA.addr.5 = getelementptr inbounds [6 x float]* %acc_returnA, i64 0, i64 5, !dbg !14911 ; [#uses=1 type=float*] [debug line = 90:2]
  store float 0.000000e+00, float* %acc_returnA.addr.5, align 4, !dbg !14911 ; [debug line = 90:2]
  %acc_returnB.addr.5 = getelementptr inbounds [6 x float]* %acc_returnB, i64 0, i64 5, !dbg !14914 ; [#uses=1 type=float*] [debug line = 91:7]
  store float 0.000000e+00, float* %acc_returnB.addr.5, align 4, !dbg !14914 ; [debug line = 91:7]
  %acc_weight_returnSquareA.addr.5 = getelementptr inbounds [6 x float]* %acc_weight_returnSquareA, i64 0, i64 5, !dbg !14915 ; [#uses=1 type=float*] [debug line = 92:7]
  store float 0.000000e+00, float* %acc_weight_returnSquareA.addr.5, align 4, !dbg !14915 ; [debug line = 92:7]
  %acc_weight_returnA.addr.5 = getelementptr inbounds [6 x float]* %acc_weight_returnA, i64 0, i64 5, !dbg !14916 ; [#uses=1 type=float*] [debug line = 93:7]
  store float 0.000000e+00, float* %acc_weight_returnA.addr.5, align 4, !dbg !14916 ; [debug line = 93:7]
  %acc_weight_returnSquareB.addr.5 = getelementptr inbounds [6 x float]* %acc_weight_returnSquareB, i64 0, i64 5, !dbg !14917 ; [#uses=1 type=float*] [debug line = 94:7]
  store float 0.000000e+00, float* %acc_weight_returnSquareB.addr.5, align 4, !dbg !14917 ; [debug line = 94:7]
  %acc_weight_returnB.addr.5 = getelementptr inbounds [6 x float]* %acc_weight_returnB, i64 0, i64 5, !dbg !14918 ; [#uses=1 type=float*] [debug line = 95:7]
  store float 0.000000e+00, float* %acc_weight_returnB.addr.5, align 4, !dbg !14918 ; [debug line = 95:7]
  %acc_weight_returnA_returnB.addr.5 = getelementptr inbounds [6 x float]* %acc_weight_returnA_returnB, i64 0, i64 5, !dbg !14919 ; [#uses=1 type=float*] [debug line = 96:7]
  store float 0.000000e+00, float* %acc_weight_returnA_returnB.addr.5, align 4, !dbg !14919 ; [debug line = 96:7]
  br label %.preheader, !dbg !14900               ; [debug line = 104:19]

.preheader:                                       ; preds = %15, %burst.rd.end5.0
  %i1 = phi i31 [ %i, %15 ], [ 0, %burst.rd.end5.0 ] ; [#uses=4 type=i31]
  %i1.cast = zext i31 %i1 to i32, !dbg !14900     ; [#uses=1 type=i32] [debug line = 104:19]
  %tmp.12 = icmp slt i32 %i1.cast, %tmp.1, !dbg !14900 ; [#uses=1 type=i1] [debug line = 104:19]
  br i1 %tmp.12, label %15, label %17, !dbg !14900 ; [debug line = 104:19]

; <label>:15                                      ; preds = %.preheader
  call void (...)* @_ssdm_op_SpecLoopName([18 x i8]* @.str1811) nounwind, !dbg !14920 ; [debug line = 104:50]
  %tmp.57 = call i32 (...)* @_ssdm_op_SpecRegionBegin([18 x i8]* @.str1811) nounwind, !dbg !14922 ; [#uses=1 type=i32] [debug line = 104:93]
  call void (...)* @_ssdm_op_SpecPipeline(i32 1, i32 1, i32 1, i32 0, [1 x i8]* @.str1804) nounwind, !dbg !14923 ; [debug line = 105:1]
  %tmp.13 = zext i31 %i1 to i64, !dbg !14924      ; [#uses=2 type=i64] [debug line = 106:20]
  %bramA.addr.1 = getelementptr inbounds [252 x float]* @bramA, i64 0, i64 %tmp.13, !dbg !14924 ; [#uses=1 type=float*] [debug line = 106:20]
  %bramA.load = load float* %bramA.addr.1, align 4, !dbg !14924 ; [#uses=1 type=float] [debug line = 106:20]
  %i = add i31 %i1, 1, !dbg !14924                ; [#uses=2 type=i31] [debug line = 106:20]
  %tmp.14 = zext i31 %i to i64, !dbg !14924       ; [#uses=3 type=i64] [debug line = 106:20]
  %bramA.addr.2 = getelementptr inbounds [252 x float]* @bramA, i64 0, i64 %tmp.14, !dbg !14924 ; [#uses=1 type=float*] [debug line = 106:20]
  %bramA.load.1 = load float* %bramA.addr.2, align 4, !dbg !14924 ; [#uses=1 type=float] [debug line = 106:20]
  %tmp.15 = fdiv float %bramA.load, %bramA.load.1, !dbg !14924 ; [#uses=1 type=float] [debug line = 106:20]
  %lnReturnA = call float @llvm.log.f32(float %tmp.15), !dbg !14924 ; [#uses=5 type=float] [debug line = 106:20]
  call void @llvm.dbg.value(metadata !{float %lnReturnA}, i64 0, metadata !14925), !dbg !14924 ; [debug line = 106:20] [debug variable = lnReturnA]
  %bramB.addr.1 = getelementptr inbounds [252 x float]* @bramB, i64 0, i64 %tmp.13, !dbg !14926 ; [#uses=1 type=float*] [debug line = 107:25]
  %bramB.load = load float* %bramB.addr.1, align 4, !dbg !14926 ; [#uses=1 type=float] [debug line = 107:25]
  %bramB.addr.2 = getelementptr inbounds [252 x float]* @bramB, i64 0, i64 %tmp.14, !dbg !14926 ; [#uses=1 type=float*] [debug line = 107:25]
  %bramB.load.1 = load float* %bramB.addr.2, align 4, !dbg !14926 ; [#uses=1 type=float] [debug line = 107:25]
  %tmp.16 = fdiv float %bramB.load, %bramB.load.1, !dbg !14926 ; [#uses=1 type=float] [debug line = 107:25]
  %lnReturnB = call float @llvm.log.f32(float %tmp.16), !dbg !14926 ; [#uses=5 type=float] [debug line = 107:25]
  call void @llvm.dbg.value(metadata !{float %lnReturnB}, i64 0, metadata !14927), !dbg !14926 ; [debug line = 107:25] [debug variable = lnReturnB]
  %weight_rom.addr = getelementptr inbounds [252 x float]* @weight_rom, i64 0, i64 %tmp.14, !dbg !14928 ; [#uses=1 type=float*] [debug line = 108:37]
  %weight = load float* %weight_rom.addr, align 4, !dbg !14928 ; [#uses=5 type=float] [debug line = 108:37]
  call void @llvm.dbg.value(metadata !{float %weight}, i64 0, metadata !14929), !dbg !14928 ; [debug line = 108:37] [debug variable = weight]
  %tmp.17 = urem i31 %i1, 6, !dbg !14930          ; [#uses=1 type=i31] [debug line = 111:7]
  %tmp.18 = zext i31 %tmp.17 to i64, !dbg !14930  ; [#uses=7 type=i64] [debug line = 111:7]
  %acc_returnA.addr.1 = getelementptr inbounds [6 x float]* %acc_returnA, i64 0, i64 %tmp.18, !dbg !14930 ; [#uses=2 type=float*] [debug line = 111:7]
  %acc_returnA.load = load float* %acc_returnA.addr.1, align 4, !dbg !14930 ; [#uses=1 type=float] [debug line = 111:7]
  %tmp.19 = fadd float %acc_returnA.load, %lnReturnA, !dbg !14930 ; [#uses=1 type=float] [debug line = 111:7]
  store float %tmp.19, float* %acc_returnA.addr.1, align 4, !dbg !14930 ; [debug line = 111:7]
  %acc_returnB.addr.1 = getelementptr inbounds [6 x float]* %acc_returnB, i64 0, i64 %tmp.18, !dbg !14931 ; [#uses=2 type=float*] [debug line = 112:7]
  %acc_returnB.load = load float* %acc_returnB.addr.1, align 4, !dbg !14931 ; [#uses=1 type=float] [debug line = 112:7]
  %tmp.20 = fadd float %acc_returnB.load, %lnReturnB, !dbg !14931 ; [#uses=1 type=float] [debug line = 112:7]
  store float %tmp.20, float* %acc_returnB.addr.1, align 4, !dbg !14931 ; [debug line = 112:7]
  %tmp.21 = fmul float %lnReturnA, %lnReturnA, !dbg !14932 ; [#uses=1 type=float] [debug line = 115:7]
  %tmp.22 = fmul float %tmp.21, %weight, !dbg !14932 ; [#uses=1 type=float] [debug line = 115:7]
  %acc_weight_returnSquareA.addr.1 = getelementptr inbounds [6 x float]* %acc_weight_returnSquareA, i64 0, i64 %tmp.18, !dbg !14932 ; [#uses=2 type=float*] [debug line = 115:7]
  %acc_weight_returnSquareA.load = load float* %acc_weight_returnSquareA.addr.1, align 4, !dbg !14932 ; [#uses=1 type=float] [debug line = 115:7]
  %tmp.23 = fadd float %acc_weight_returnSquareA.load, %tmp.22, !dbg !14932 ; [#uses=1 type=float] [debug line = 115:7]
  store float %tmp.23, float* %acc_weight_returnSquareA.addr.1, align 4, !dbg !14932 ; [debug line = 115:7]
  %tmp.24 = fmul float %lnReturnB, %lnReturnB, !dbg !14933 ; [#uses=1 type=float] [debug line = 116:7]
  %tmp.25 = fmul float %tmp.24, %weight, !dbg !14933 ; [#uses=1 type=float] [debug line = 116:7]
  %acc_weight_returnSquareB.addr.1 = getelementptr inbounds [6 x float]* %acc_weight_returnSquareB, i64 0, i64 %tmp.18, !dbg !14933 ; [#uses=2 type=float*] [debug line = 116:7]
  %acc_weight_returnSquareB.load = load float* %acc_weight_returnSquareB.addr.1, align 4, !dbg !14933 ; [#uses=1 type=float] [debug line = 116:7]
  %tmp.26 = fadd float %acc_weight_returnSquareB.load, %tmp.25, !dbg !14933 ; [#uses=1 type=float] [debug line = 116:7]
  store float %tmp.26, float* %acc_weight_returnSquareB.addr.1, align 4, !dbg !14933 ; [debug line = 116:7]
  %tmp.27 = fmul float %lnReturnA, %weight, !dbg !14934 ; [#uses=1 type=float] [debug line = 119:7]
  %acc_weight_returnA.addr.1 = getelementptr inbounds [6 x float]* %acc_weight_returnA, i64 0, i64 %tmp.18, !dbg !14934 ; [#uses=2 type=float*] [debug line = 119:7]
  %acc_weight_returnA.load = load float* %acc_weight_returnA.addr.1, align 4, !dbg !14934 ; [#uses=1 type=float] [debug line = 119:7]
  %tmp.28 = fadd float %acc_weight_returnA.load, %tmp.27, !dbg !14934 ; [#uses=1 type=float] [debug line = 119:7]
  store float %tmp.28, float* %acc_weight_returnA.addr.1, align 4, !dbg !14934 ; [debug line = 119:7]
  %tmp.29 = fmul float %lnReturnB, %weight, !dbg !14935 ; [#uses=1 type=float] [debug line = 120:7]
  %acc_weight_returnB.addr.1 = getelementptr inbounds [6 x float]* %acc_weight_returnB, i64 0, i64 %tmp.18, !dbg !14935 ; [#uses=2 type=float*] [debug line = 120:7]
  %acc_weight_returnB.load = load float* %acc_weight_returnB.addr.1, align 4, !dbg !14935 ; [#uses=1 type=float] [debug line = 120:7]
  %tmp.30 = fadd float %acc_weight_returnB.load, %tmp.29, !dbg !14935 ; [#uses=1 type=float] [debug line = 120:7]
  store float %tmp.30, float* %acc_weight_returnB.addr.1, align 4, !dbg !14935 ; [debug line = 120:7]
  %tmp.31 = fmul float %lnReturnA, %lnReturnB, !dbg !14936 ; [#uses=1 type=float] [debug line = 123:7]
  %tmp.32 = fmul float %tmp.31, %weight, !dbg !14936 ; [#uses=1 type=float] [debug line = 123:7]
  %acc_weight_returnA_returnB.addr.1 = getelementptr inbounds [6 x float]* %acc_weight_returnA_returnB, i64 0, i64 %tmp.18, !dbg !14936 ; [#uses=2 type=float*] [debug line = 123:7]
  %acc_weight_returnA_returnB.load = load float* %acc_weight_returnA_returnB.addr.1, align 4, !dbg !14936 ; [#uses=1 type=float] [debug line = 123:7]
  %tmp.33 = fadd float %acc_weight_returnA_returnB.load, %tmp.32, !dbg !14936 ; [#uses=1 type=float] [debug line = 123:7]
  store float %tmp.33, float* %acc_weight_returnA_returnB.addr.1, align 4, !dbg !14936 ; [debug line = 123:7]
  %16 = call i32 (...)* @_ssdm_op_SpecRegionEnd([18 x i8]* @.str1811, i32 %tmp.57) nounwind, !dbg !14937 ; [#uses=0 type=i32] [debug line = 124:6]
  call void @llvm.dbg.value(metadata !{i31 %i}, i64 0, metadata !14938), !dbg !14939 ; [debug line = 104:45] [debug variable = i]
  br label %.preheader, !dbg !14939               ; [debug line = 104:45]

; <label>:17                                      ; preds = %.preheader
  %sum_weight = load float* getelementptr inbounds ([252 x float]* @weight_rom, i64 0, i64 0), align 16, !dbg !14940 ; [#uses=3 type=float] [debug line = 133:38]
  call void @llvm.dbg.value(metadata !{float %sum_weight}, i64 0, metadata !14941), !dbg !14940 ; [debug line = 133:38] [debug variable = sum_weight]
  br label %18, !dbg !14942                       ; [debug line = 135:19]

; <label>:18                                      ; preds = %20, %17
  %sum_returnA = phi float [ 0.000000e+00, %17 ], [ %sum_returnA.1, %20 ] ; [#uses=2 type=float]
  %sum_returnB = phi float [ 0.000000e+00, %17 ], [ %sum_returnB.1, %20 ] ; [#uses=2 type=float]
  %sum_weight_returnSquareA = phi float [ 0.000000e+00, %17 ], [ %sum_weight_returnSquareA.1, %20 ] ; [#uses=2 type=float]
  %sum_weight_returnA = phi float [ 0.000000e+00, %17 ], [ %sum_weight_returnA.1, %20 ] ; [#uses=2 type=float]
  %sum_weight_returnSquareB = phi float [ 0.000000e+00, %17 ], [ %sum_weight_returnSquareB.1, %20 ] ; [#uses=2 type=float]
  %sum_weight_returnB = phi float [ 0.000000e+00, %17 ], [ %sum_weight_returnB.1, %20 ] ; [#uses=2 type=float]
  %sum_weight_returnA_returnB = phi float [ 0.000000e+00, %17 ], [ %sum_weight_returnA_returnB.1, %20 ] ; [#uses=2 type=float]
  %i2 = phi i3 [ 0, %17 ], [ %i.1, %20 ]          ; [#uses=3 type=i3]
  %exitcond = icmp eq i3 %i2, -2, !dbg !14942     ; [#uses=1 type=i1] [debug line = 135:19]
  %19 = call i32 (...)* @_ssdm_op_SpecLoopTripCount(i64 6, i64 6, i64 6) nounwind ; [#uses=0 type=i32]
  br i1 %exitcond, label %22, label %20, !dbg !14942 ; [debug line = 135:19]

; <label>:20                                      ; preds = %18
  call void (...)* @_ssdm_op_SpecLoopName([16 x i8]* @.str1812) nounwind, !dbg !14944 ; [debug line = 135:33]
  %tmp.58 = call i32 (...)* @_ssdm_op_SpecRegionBegin([16 x i8]* @.str1812) nounwind, !dbg !14946 ; [#uses=1 type=i32] [debug line = 135:74]
  call void (...)* @_ssdm_op_SpecPipeline(i32 5, i32 1, i32 1, i32 0, [1 x i8]* @.str1804) nounwind, !dbg !14947 ; [debug line = 136:1]
  %tmp.55 = zext i3 %i2 to i64, !dbg !14948       ; [#uses=7 type=i64] [debug line = 137:2]
  %acc_returnA.addr.2 = getelementptr inbounds [6 x float]* %acc_returnA, i64 0, i64 %tmp.55, !dbg !14948 ; [#uses=1 type=float*] [debug line = 137:2]
  %acc_returnA.load.1 = load float* %acc_returnA.addr.2, align 4, !dbg !14948 ; [#uses=1 type=float] [debug line = 137:2]
  %sum_returnA.1 = fadd float %sum_returnA, %acc_returnA.load.1, !dbg !14948 ; [#uses=1 type=float] [debug line = 137:2]
  call void @llvm.dbg.value(metadata !{float %sum_returnA.1}, i64 0, metadata !14949), !dbg !14948 ; [debug line = 137:2] [debug variable = sum_returnA]
  %acc_returnB.addr.2 = getelementptr inbounds [6 x float]* %acc_returnB, i64 0, i64 %tmp.55, !dbg !14950 ; [#uses=1 type=float*] [debug line = 138:7]
  %acc_returnB.load.1 = load float* %acc_returnB.addr.2, align 4, !dbg !14950 ; [#uses=1 type=float] [debug line = 138:7]
  %sum_returnB.1 = fadd float %sum_returnB, %acc_returnB.load.1, !dbg !14950 ; [#uses=1 type=float] [debug line = 138:7]
  call void @llvm.dbg.value(metadata !{float %sum_returnB.1}, i64 0, metadata !14951), !dbg !14950 ; [debug line = 138:7] [debug variable = sum_returnB]
  %acc_weight_returnSquareA.addr.2 = getelementptr inbounds [6 x float]* %acc_weight_returnSquareA, i64 0, i64 %tmp.55, !dbg !14952 ; [#uses=1 type=float*] [debug line = 139:7]
  %acc_weight_returnSquareA.load.1 = load float* %acc_weight_returnSquareA.addr.2, align 4, !dbg !14952 ; [#uses=1 type=float] [debug line = 139:7]
  %sum_weight_returnSquareA.1 = fadd float %sum_weight_returnSquareA, %acc_weight_returnSquareA.load.1, !dbg !14952 ; [#uses=1 type=float] [debug line = 139:7]
  call void @llvm.dbg.value(metadata !{float %sum_weight_returnSquareA.1}, i64 0, metadata !14953), !dbg !14952 ; [debug line = 139:7] [debug variable = sum_weight_returnSquareA]
  %acc_weight_returnA.addr.2 = getelementptr inbounds [6 x float]* %acc_weight_returnA, i64 0, i64 %tmp.55, !dbg !14954 ; [#uses=1 type=float*] [debug line = 140:7]
  %acc_weight_returnA.load.1 = load float* %acc_weight_returnA.addr.2, align 4, !dbg !14954 ; [#uses=1 type=float] [debug line = 140:7]
  %sum_weight_returnA.1 = fadd float %sum_weight_returnA, %acc_weight_returnA.load.1, !dbg !14954 ; [#uses=1 type=float] [debug line = 140:7]
  call void @llvm.dbg.value(metadata !{float %sum_weight_returnA.1}, i64 0, metadata !14955), !dbg !14954 ; [debug line = 140:7] [debug variable = sum_weight_returnA]
  %acc_weight_returnSquareB.addr.2 = getelementptr inbounds [6 x float]* %acc_weight_returnSquareB, i64 0, i64 %tmp.55, !dbg !14956 ; [#uses=1 type=float*] [debug line = 141:7]
  %acc_weight_returnSquareB.load.1 = load float* %acc_weight_returnSquareB.addr.2, align 4, !dbg !14956 ; [#uses=1 type=float] [debug line = 141:7]
  %sum_weight_returnSquareB.1 = fadd float %sum_weight_returnSquareB, %acc_weight_returnSquareB.load.1, !dbg !14956 ; [#uses=1 type=float] [debug line = 141:7]
  call void @llvm.dbg.value(metadata !{float %sum_weight_returnSquareB.1}, i64 0, metadata !14957), !dbg !14956 ; [debug line = 141:7] [debug variable = sum_weight_returnSquareB]
  %acc_weight_returnB.addr.2 = getelementptr inbounds [6 x float]* %acc_weight_returnB, i64 0, i64 %tmp.55, !dbg !14958 ; [#uses=1 type=float*] [debug line = 142:7]
  %acc_weight_returnB.load.1 = load float* %acc_weight_returnB.addr.2, align 4, !dbg !14958 ; [#uses=1 type=float] [debug line = 142:7]
  %sum_weight_returnB.1 = fadd float %sum_weight_returnB, %acc_weight_returnB.load.1, !dbg !14958 ; [#uses=1 type=float] [debug line = 142:7]
  call void @llvm.dbg.value(metadata !{float %sum_weight_returnB.1}, i64 0, metadata !14959), !dbg !14958 ; [debug line = 142:7] [debug variable = sum_weight_returnB]
  %acc_weight_returnA_returnB.addr.2 = getelementptr inbounds [6 x float]* %acc_weight_returnA_returnB, i64 0, i64 %tmp.55, !dbg !14960 ; [#uses=1 type=float*] [debug line = 143:7]
  %acc_weight_returnA_returnB.load.1 = load float* %acc_weight_returnA_returnB.addr.2, align 4, !dbg !14960 ; [#uses=1 type=float] [debug line = 143:7]
  %sum_weight_returnA_returnB.1 = fadd float %sum_weight_returnA_returnB, %acc_weight_returnA_returnB.load.1, !dbg !14960 ; [#uses=1 type=float] [debug line = 143:7]
  call void @llvm.dbg.value(metadata !{float %sum_weight_returnA_returnB.1}, i64 0, metadata !14961), !dbg !14960 ; [debug line = 143:7] [debug variable = sum_weight_returnA_returnB]
  %21 = call i32 (...)* @_ssdm_op_SpecRegionEnd([16 x i8]* @.str1812, i32 %tmp.58) nounwind, !dbg !14962 ; [#uses=0 type=i32] [debug line = 144:6]
  %i.1 = add i3 %i2, 1, !dbg !14963               ; [#uses=1 type=i3] [debug line = 135:28]
  call void @llvm.dbg.value(metadata !{i3 %i.1}, i64 0, metadata !14964), !dbg !14963 ; [debug line = 135:28] [debug variable = i]
  br label %18, !dbg !14963                       ; [debug line = 135:28]

; <label>:22                                      ; preds = %18
  %sum_weight_returnA_returnB.lcssa = phi float [ %sum_weight_returnA_returnB, %18 ] ; [#uses=1 type=float]
  %sum_weight_returnB.lcssa = phi float [ %sum_weight_returnB, %18 ] ; [#uses=2 type=float]
  %sum_weight_returnSquareB.lcssa = phi float [ %sum_weight_returnSquareB, %18 ] ; [#uses=1 type=float]
  %sum_weight_returnA.lcssa = phi float [ %sum_weight_returnA, %18 ] ; [#uses=2 type=float]
  %sum_weight_returnSquareA.lcssa = phi float [ %sum_weight_returnSquareA, %18 ] ; [#uses=1 type=float]
  %sum_returnB.lcssa = phi float [ %sum_returnB, %18 ] ; [#uses=1 type=float]
  %sum_returnA.lcssa = phi float [ %sum_returnA, %18 ] ; [#uses=1 type=float]
  %meanReturn1 = fdiv float %sum_returnA.lcssa, %tmp.2, !dbg !14902 ; [#uses=5 type=float] [debug line = 149:65]
  call void @llvm.dbg.value(metadata !{float %meanReturn1}, i64 0, metadata !14965), !dbg !14902 ; [debug line = 149:65] [debug variable = meanReturn1]
  %meanReturn2 = fdiv float %sum_returnB.lcssa, %tmp.2, !dbg !14966 ; [#uses=5 type=float] [debug line = 150:65]
  call void @llvm.dbg.value(metadata !{float %meanReturn2}, i64 0, metadata !14967), !dbg !14966 ; [debug line = 150:65] [debug variable = meanReturn2]
  %tmp.34 = fmul float %meanReturn1, 2.000000e+00, !dbg !14968 ; [#uses=1 type=float] [debug line = 152:26]
  %tmp.35 = fmul float %tmp.34, %sum_weight_returnA.lcssa, !dbg !14968 ; [#uses=1 type=float] [debug line = 152:26]
  %tmp.36 = fsub float %sum_weight_returnSquareA.lcssa, %tmp.35, !dbg !14968 ; [#uses=1 type=float] [debug line = 152:26]
  %tmp.37 = fdiv float %tmp.36, %sum_weight, !dbg !14968 ; [#uses=1 type=float] [debug line = 152:26]
  %tmp.38 = fmul float %meanReturn1, %meanReturn1, !dbg !14968 ; [#uses=1 type=float] [debug line = 152:26]
  %tmp.39 = fadd float %tmp.37, %tmp.38, !dbg !14968 ; [#uses=1 type=float] [debug line = 152:26]
  %volatilityA = call float @llvm.sqrt.f32(float %tmp.39), !dbg !14968 ; [#uses=1 type=float] [debug line = 152:26]
  call void @llvm.dbg.value(metadata !{float %volatilityA}, i64 0, metadata !14969), !dbg !14968 ; [debug line = 152:26] [debug variable = volatilityA]
  %tmp.40 = fmul float %meanReturn2, 2.000000e+00, !dbg !14970 ; [#uses=1 type=float] [debug line = 155:26]
  %tmp.41 = fmul float %tmp.40, %sum_weight_returnB.lcssa, !dbg !14970 ; [#uses=1 type=float] [debug line = 155:26]
  %tmp.42 = fsub float %sum_weight_returnSquareB.lcssa, %tmp.41, !dbg !14970 ; [#uses=1 type=float] [debug line = 155:26]
  %tmp.43 = fdiv float %tmp.42, %sum_weight, !dbg !14970 ; [#uses=1 type=float] [debug line = 155:26]
  %tmp.44 = fmul float %meanReturn2, %meanReturn2, !dbg !14970 ; [#uses=1 type=float] [debug line = 155:26]
  %tmp.45 = fadd float %tmp.43, %tmp.44, !dbg !14970 ; [#uses=1 type=float] [debug line = 155:26]
  %volatilityB = call float @llvm.sqrt.f32(float %tmp.45), !dbg !14970 ; [#uses=1 type=float] [debug line = 155:26]
  call void @llvm.dbg.value(metadata !{float %volatilityB}, i64 0, metadata !14971), !dbg !14970 ; [debug line = 155:26] [debug variable = volatilityB]
  %tmp.46 = fmul float %meanReturn1, %sum_weight_returnB.lcssa, !dbg !14972 ; [#uses=1 type=float] [debug line = 161:38]
  %tmp.47 = fsub float %sum_weight_returnA_returnB.lcssa, %tmp.46, !dbg !14972 ; [#uses=1 type=float] [debug line = 161:38]
  %tmp.48 = fmul float %meanReturn2, %sum_weight_returnA.lcssa, !dbg !14972 ; [#uses=1 type=float] [debug line = 161:38]
  %tmp.49 = fsub float %tmp.47, %tmp.48, !dbg !14972 ; [#uses=1 type=float] [debug line = 161:38]
  %tmp.50 = fdiv float %tmp.49, %sum_weight, !dbg !14972 ; [#uses=1 type=float] [debug line = 161:38]
  %tmp.51 = fmul float %meanReturn1, %meanReturn2, !dbg !14972 ; [#uses=1 type=float] [debug line = 161:38]
  %covariance = fadd float %tmp.50, %tmp.51, !dbg !14972 ; [#uses=1 type=float] [debug line = 161:38]
  call void @llvm.dbg.value(metadata !{float %covariance}, i64 0, metadata !14973), !dbg !14972 ; [debug line = 161:38] [debug variable = covariance]
  %tmp.52 = fmul float %volatilityA, %volatilityB, !dbg !14974 ; [#uses=1 type=float] [debug line = 163:6]
  %corr_temp = fdiv float %covariance, %tmp.52, !dbg !14974 ; [#uses=1 type=float] [debug line = 163:6]
  call void @llvm.dbg.value(metadata !{float %corr_temp}, i64 0, metadata !14975), !dbg !14974 ; [debug line = 163:6] [debug variable = corr_temp]
  %counter.load = load i32* @counter, align 4, !dbg !14976 ; [#uses=2 type=i32] [debug line = 165:6]
  %tmp.53 = sext i32 %counter.load to i64, !dbg !14976 ; [#uses=1 type=i64] [debug line = 165:6]
  %out_correlation.addr = getelementptr [49995000 x float]* %out_correlation, i64 0, i64 %tmp.53, !dbg !14976 ; [#uses=1 type=float*] [debug line = 165:6]
  store float %corr_temp, float* %out_correlation.addr, align 4, !dbg !14976 ; [debug line = 165:6]
  %tmp.54 = add nsw i32 %counter.load, 1, !dbg !14977 ; [#uses=1 type=i32] [debug line = 167:6]
  store i32 %tmp.54, i32* @counter, align 4, !dbg !14977 ; [debug line = 167:6]
  %23 = call i32 (...)* @_ssdm_op_SpecRegionEnd([11 x i8]* @.str1809, i32 %tmp.56) nounwind, !dbg !14978 ; [#uses=0 type=i32] [debug line = 168:5]
  br label %burst.rd.end, !dbg !14979             ; [debug line = 66:77]

; <label>:24                                      ; preds = %burst.rd.end
  %25 = call i32 (...)* @_ssdm_op_SpecRegionEnd([11 x i8]* @.str1808, i32 %tmp.11) nounwind, !dbg !14980 ; [#uses=0 type=i32] [debug line = 169:3]
  %row_index.1 = add i31 %row_index, 1, !dbg !14981 ; [#uses=1 type=i31] [debug line = 56:61]
  call void @llvm.dbg.value(metadata !{i31 %row_index.1}, i64 0, metadata !14982), !dbg !14981 ; [debug line = 56:61] [debug variable = row_index]
  br label %6, !dbg !14981                        ; [debug line = 56:61]

; <label>:26                                      ; preds = %6
  ret i32 0, !dbg !14983                          ; [debug line = 170:2]
}

; [#uses=5]
declare i32 @_ssdm_op_SpecLoopTripCount(...)

!llvm.map.gv = !{!0}
!llvm.dbg.cu = !{!7}

!0 = metadata !{metadata !1, [1 x i32]* @llvm.global_ctors.0}
!1 = metadata !{metadata !2}
!2 = metadata !{i32 0, i32 31, metadata !3}
!3 = metadata !{metadata !4}
!4 = metadata !{metadata !"llvm.global_ctors.0", metadata !5, metadata !"", i32 0, i32 31}
!5 = metadata !{metadata !6}
!6 = metadata !{i32 0, i32 0, i32 1}
!7 = metadata !{i32 786449, i32 0, i32 4, metadata !"/home/trungnguyen/SDSoC/workspace/correlation_ver1/correlation_ver1_linux/SDRelease/_sds/vhls/correlation_accel_v1/solution/.autopilot/db/correlation_accel_v1.pragma.2.cpp", metadata !"/home/trungnguyen/SDSoC/workspace/correlation_ver1/correlation_ver1_linux/SDRelease/_sds/vhls", metadata !"clang version 3.1 ", i1 true, i1 false, metadata !"", i32 0, null, null, null, metadata !8} ; [ DW_TAG_compile_unit ]
!8 = metadata !{metadata !9}
!9 = metadata !{metadata !10, metadata !23, metadata !24, metadata !25, metadata !26, metadata !897, metadata !898, metadata !899, metadata !900, metadata !901, metadata !902, metadata !903, metadata !904, metadata !905, metadata !906, metadata !907, metadata !908, metadata !909, metadata !910, metadata !911, metadata !912, metadata !913, metadata !914, metadata !916, metadata !917, metadata !918, metadata !919, metadata !931, metadata !932, metadata !933, metadata !934, metadata !935, metadata !936, metadata !945, metadata !946, metadata !947, metadata !949, metadata !950, metadata !951, metadata !952, metadata !953, metadata !954, metadata !955, metadata !956, metadata !958, metadata !969, metadata !5566, metadata !5567, metadata !5568, metadata !5569, metadata !5570, metadata !5571, metadata !5572, metadata !5573, metadata !5574, metadata !5575, metadata !5576, metadata !5577, metadata !5578, metadata !5579, metadata !5580, metadata !5581, metadata !5662, metadata !5892, metadata !5959, metadata !6713, metadata !6714, metadata !6715, metadata !6795, metadata !6797, metadata !7033, metadata !7113, metadata !7400, metadata !7467, metadata !7468, metadata !7704, metadata !7785, metadata !8320, metadata !8321, metadata !8323, metadata !8325, metadata !8326, metadata !8404, metadata !8656, metadata !8657, metadata !8658, metadata !8659, metadata !8737, metadata !8741, metadata !9008, metadata !9009, metadata !9010, metadata !9011, metadata !9107, metadata !9121, metadata !9131, metadata !9398, metadata !9399, metadata !9400, metadata !9401, metadata !9488, metadata !9497, metadata !9505, metadata !9514, metadata !9523, metadata !9532, metadata !9541, metadata !9550, metadata !9559, metadata !9568, metadata !9576, metadata !9585, metadata !9594, metadata !9602, metadata !9871, metadata !9872, metadata !9873, metadata !9874, metadata !9959, metadata !9960, metadata !10489, metadata !10490, metadata !10491, metadata !10492, metadata !10493, metadata !10494, metadata !10495, metadata !10496, metadata !10575, metadata !10836, metadata !10837, metadata !10838, metadata !10839, metadata !10917, metadata !11181, metadata !11182, metadata !11183, metadata !11184, metadata !11262, metadata !11340, metadata !11606, metadata !11607, metadata !11608, metadata !11609, metadata !11687, metadata !11953, metadata !11954, metadata !11955, metadata !11956, metadata !12034, metadata !12296, metadata !12297, metadata !12298, metadata !12299, metadata !12377, metadata !12379, metadata !12381, metadata !12388, metadata !12390, metadata !12391, metadata !12392, metadata !12393, metadata !12395, metadata !12396, metadata !12397, metadata !12399, metadata !12400, metadata !12401, metadata !12406, metadata !12409, metadata !12410, metadata !12411, metadata !12412, metadata !12413, metadata !12415, metadata !12421, metadata !12422, metadata !12423, metadata !12424, metadata !12425, metadata !12426, metadata !12427, metadata !12428, metadata !12429, metadata !12430, metadata !12431, metadata !12515, metadata !12516, metadata !12645, metadata !12652, metadata !12653, metadata !12654, metadata !12655, metadata !12656, metadata !13337, metadata !13339, metadata !13340, metadata !13341, metadata !14014, metadata !14016, metadata !14017, metadata !14018, metadata !14020, metadata !14022, metadata !14023, metadata !14024, metadata !14025, metadata !14026, metadata !14027, metadata !14028, metadata !14029, metadata !14030, metadata !14031, metadata !14032, metadata !14033, metadata !14034, metadata !14035, metadata !14036, metadata !14037, metadata !14038, metadata !14039, metadata !14040, metadata !14041, metadata !14042, metadata !14043, metadata !14044, metadata !14045, metadata !14046, metadata !14047, metadata !14049, metadata !14179, metadata !14285, metadata !14288, metadata !14289, metadata !14290, metadata !14292, metadata !14293, metadata !14775, metadata !14776, metadata !14778, metadata !14780, metadata !14782, metadata !14783, metadata !14784, metadata !14785, metadata !14786, metadata !14787, metadata !14788, metadata !14789, metadata !14790, metadata !14791, metadata !14792, metadata !14793, metadata !14794, metadata !14795, metadata !14796, metadata !14797, metadata !14798, metadata !14799, metadata !14800, metadata !14801, metadata !14802, metadata !14805}
!10 = metadata !{i32 786484, i32 0, metadata !11, metadata !"weight_rom", metadata !"weight_rom", metadata !"", metadata !12, i32 49, metadata !20, i32 1, i32 1, [252 x float]* @weight_rom} ; [ DW_TAG_variable ]
!11 = metadata !{i32 786478, i32 0, metadata !12, metadata !"correlation_accel_v1", metadata !"correlation_accel_v1", metadata !"_Z20correlation_accel_v1iiPfS_", metadata !12, i32 25, metadata !13, i1 false, i1 true, i32 0, i32 0, null, i32 256, i1 false, null, null, null, metadata !18, i32 32} ; [ DW_TAG_subprogram ]
!12 = metadata !{i32 786473, metadata !"/home/trungnguyen/SDSoC/workspace/correlation_ver1/correlation_ver1_linux/SDRelease/_sds/vhls/src/correlation_accel_v1.cpp", metadata !"/home/trungnguyen/SDSoC/workspace/correlation_ver1/correlation_ver1_linux/SDRelease/_sds/vhls", null} ; [ DW_TAG_file_type ]
!13 = metadata !{i32 786453, i32 0, metadata !"", i32 0, i32 0, i64 0, i64 0, i64 0, i32 0, null, metadata !14, i32 0, i32 0} ; [ DW_TAG_subroutine_type ]
!14 = metadata !{metadata !15, metadata !15, metadata !15, metadata !16, metadata !16}
!15 = metadata !{i32 786468, null, metadata !"int", null, i32 0, i64 32, i64 32, i64 0, i32 0, i32 5} ; [ DW_TAG_base_type ]
!16 = metadata !{i32 786447, null, metadata !"", null, i32 0, i64 64, i64 64, i64 0, i32 0, metadata !17} ; [ DW_TAG_pointer_type ]
!17 = metadata !{i32 786468, null, metadata !"float", null, i32 0, i64 32, i64 32, i64 0, i32 0, i32 4} ; [ DW_TAG_base_type ]
!18 = metadata !{metadata !19}
!19 = metadata !{i32 786468}                      ; [ DW_TAG_base_type ]
!20 = metadata !{i32 786433, null, metadata !"", null, i32 0, i64 8064, i64 32, i32 0, i32 0, metadata !17, metadata !21, i32 0, i32 0} ; [ DW_TAG_array_type ]
!21 = metadata !{metadata !22}
!22 = metadata !{i32 786465, i64 0, i64 251}      ; [ DW_TAG_subrange_type ]
!23 = metadata !{i32 786484, i32 0, metadata !11, metadata !"bramA", metadata !"bramA", metadata !"", metadata !12, i32 58, metadata !20, i32 1, i32 1, [252 x float]* @bramA} ; [ DW_TAG_variable ]
!24 = metadata !{i32 786484, i32 0, metadata !11, metadata !"bramB", metadata !"bramB", metadata !"", metadata !12, i32 59, metadata !20, i32 1, i32 1, [252 x float]* @bramB} ; [ DW_TAG_variable ]
!25 = metadata !{i32 786484, i32 0, metadata !11, metadata !"counter", metadata !"counter", metadata !"", metadata !12, i32 72, metadata !15, i32 1, i32 1, i32* @counter} ; [ DW_TAG_variable ]
!26 = metadata !{i32 786484, i32 0, metadata !27, metadata !"boolalpha", metadata !"boolalpha", metadata !"boolalpha", metadata !29, i32 259, metadata !896, i32 1, i32 1, i17 1} ; [ DW_TAG_variable ]
!27 = metadata !{i32 786434, metadata !28, metadata !"ios_base", metadata !29, i32 200, i64 1728, i64 64, i32 0, i32 0, null, metadata !30, i32 0, metadata !27, null} ; [ DW_TAG_class_type ]
!28 = metadata !{i32 786489, null, metadata !"std", metadata !29, i32 44} ; [ DW_TAG_namespace ]
!29 = metadata !{i32 786473, metadata !"/opt/Xilinx/SDSoC/2014.4/Vivado_HLS/2014.4/lnx64/tools/gcc/lib/gcc/x86_64-unknown-linux-gnu/4.6.3/../../../../include/c++/4.6.3/bits/ios_base.h", metadata !"/home/trungnguyen/SDSoC/workspace/correlation_ver1/correlation_ver1_linux/SDRelease/_sds/vhls", null} ; [ DW_TAG_file_type ]
!30 = metadata !{metadata !31, metadata !36, metadata !44, metadata !45, metadata !68, metadata !77, metadata !78, metadata !107, metadata !117, metadata !121, metadata !122, metadata !124, metadata !828, metadata !832, metadata !835, metadata !838, metadata !842, metadata !843, metadata !848, metadata !851, metadata !852, metadata !855, metadata !858, metadata !861, metadata !864, metadata !865, metadata !866, metadata !869, metadata !872, metadata !875, metadata !878, metadata !879, metadata !883, metadata !887, metadata !888, metadata !889, metadata !893}
!31 = metadata !{i32 786445, metadata !29, metadata !"_vptr$ios_base", metadata !29, i32 0, i64 64, i64 0, i64 0, i32 0, metadata !32} ; [ DW_TAG_member ]
!32 = metadata !{i32 786447, null, metadata !"", null, i32 0, i64 64, i64 0, i64 0, i32 0, metadata !33} ; [ DW_TAG_pointer_type ]
!33 = metadata !{i32 786447, null, metadata !"__vtbl_ptr_type", null, i32 0, i64 64, i64 0, i64 0, i32 0, metadata !34} ; [ DW_TAG_pointer_type ]
!34 = metadata !{i32 786453, i32 0, metadata !"", i32 0, i32 0, i64 0, i64 0, i64 0, i32 0, null, metadata !35, i32 0, i32 0} ; [ DW_TAG_subroutine_type ]
!35 = metadata !{metadata !15}
!36 = metadata !{i32 786445, metadata !27, metadata !"_M_precision", metadata !29, i32 453, i64 64, i64 64, i64 64, i32 2, metadata !37} ; [ DW_TAG_member ]
!37 = metadata !{i32 786454, metadata !38, metadata !"streamsize", metadata !29, i32 99, i64 0, i64 0, i64 0, i32 0, metadata !40} ; [ DW_TAG_typedef ]
!38 = metadata !{i32 786489, null, metadata !"std", metadata !39, i32 69} ; [ DW_TAG_namespace ]
!39 = metadata !{i32 786473, metadata !"/opt/Xilinx/SDSoC/2014.4/Vivado_HLS/2014.4/lnx64/tools/gcc/lib/gcc/x86_64-unknown-linux-gnu/4.6.3/../../../../include/c++/4.6.3/bits/postypes.h", metadata !"/home/trungnguyen/SDSoC/workspace/correlation_ver1/correlation_ver1_linux/SDRelease/_sds/vhls", null} ; [ DW_TAG_file_type ]
!40 = metadata !{i32 786454, metadata !41, metadata !"ptrdiff_t", metadata !29, i32 156, i64 0, i64 0, i64 0, i32 0, metadata !43} ; [ DW_TAG_typedef ]
!41 = metadata !{i32 786489, null, metadata !"std", metadata !42, i32 153} ; [ DW_TAG_namespace ]
!42 = metadata !{i32 786473, metadata !"/opt/Xilinx/SDSoC/2014.4/Vivado_HLS/2014.4/lnx64/tools/gcc/lib/gcc/x86_64-unknown-linux-gnu/4.6.3/../../../../include/c++/4.6.3/x86_64-unknown-linux-gnu/bits/c++config.h", metadata !"/home/trungnguyen/SDSoC/workspace/correlation_ver1/correlation_ver1_linux/SDRelease/_sds/vhls", null} ; [ DW_TAG_file_type ]
!43 = metadata !{i32 786468, null, metadata !"long int", null, i32 0, i64 64, i64 64, i64 0, i32 0, i32 5} ; [ DW_TAG_base_type ]
!44 = metadata !{i32 786445, metadata !27, metadata !"_M_width", metadata !29, i32 454, i64 64, i64 64, i64 128, i32 2, metadata !37} ; [ DW_TAG_member ]
!45 = metadata !{i32 786445, metadata !27, metadata !"_M_flags", metadata !29, i32 455, i64 17, i64 32, i64 192, i32 2, metadata !46} ; [ DW_TAG_member ]
!46 = metadata !{i32 786454, metadata !27, metadata !"fmtflags", metadata !29, i32 256, i64 0, i64 0, i64 0, i32 0, metadata !47} ; [ DW_TAG_typedef ]
!47 = metadata !{i32 786436, metadata !28, metadata !"_Ios_Fmtflags", metadata !29, i32 52, i64 17, i64 32, i32 0, i32 0, null, metadata !48, i32 0, i32 0} ; [ DW_TAG_enumeration_type ]
!48 = metadata !{metadata !49, metadata !50, metadata !51, metadata !52, metadata !53, metadata !54, metadata !55, metadata !56, metadata !57, metadata !58, metadata !59, metadata !60, metadata !61, metadata !62, metadata !63, metadata !64, metadata !65, metadata !66, metadata !67}
!49 = metadata !{i32 786472, metadata !"_S_boolalpha", i64 1} ; [ DW_TAG_enumerator ]
!50 = metadata !{i32 786472, metadata !"_S_dec", i64 2} ; [ DW_TAG_enumerator ]
!51 = metadata !{i32 786472, metadata !"_S_fixed", i64 4} ; [ DW_TAG_enumerator ]
!52 = metadata !{i32 786472, metadata !"_S_hex", i64 8} ; [ DW_TAG_enumerator ]
!53 = metadata !{i32 786472, metadata !"_S_internal", i64 16} ; [ DW_TAG_enumerator ]
!54 = metadata !{i32 786472, metadata !"_S_left", i64 32} ; [ DW_TAG_enumerator ]
!55 = metadata !{i32 786472, metadata !"_S_oct", i64 64} ; [ DW_TAG_enumerator ]
!56 = metadata !{i32 786472, metadata !"_S_right", i64 128} ; [ DW_TAG_enumerator ]
!57 = metadata !{i32 786472, metadata !"_S_scientific", i64 256} ; [ DW_TAG_enumerator ]
!58 = metadata !{i32 786472, metadata !"_S_showbase", i64 512} ; [ DW_TAG_enumerator ]
!59 = metadata !{i32 786472, metadata !"_S_showpoint", i64 1024} ; [ DW_TAG_enumerator ]
!60 = metadata !{i32 786472, metadata !"_S_showpos", i64 2048} ; [ DW_TAG_enumerator ]
!61 = metadata !{i32 786472, metadata !"_S_skipws", i64 4096} ; [ DW_TAG_enumerator ]
!62 = metadata !{i32 786472, metadata !"_S_unitbuf", i64 8192} ; [ DW_TAG_enumerator ]
!63 = metadata !{i32 786472, metadata !"_S_uppercase", i64 16384} ; [ DW_TAG_enumerator ]
!64 = metadata !{i32 786472, metadata !"_S_adjustfield", i64 176} ; [ DW_TAG_enumerator ]
!65 = metadata !{i32 786472, metadata !"_S_basefield", i64 74} ; [ DW_TAG_enumerator ]
!66 = metadata !{i32 786472, metadata !"_S_floatfield", i64 260} ; [ DW_TAG_enumerator ]
!67 = metadata !{i32 786472, metadata !"_S_ios_fmtflags_end", i64 65536} ; [ DW_TAG_enumerator ]
!68 = metadata !{i32 786445, metadata !27, metadata !"_M_exception", metadata !29, i32 456, i64 17, i64 32, i64 224, i32 2, metadata !69} ; [ DW_TAG_member ]
!69 = metadata !{i32 786454, metadata !27, metadata !"iostate", metadata !29, i32 331, i64 0, i64 0, i64 0, i32 0, metadata !70} ; [ DW_TAG_typedef ]
!70 = metadata !{i32 786436, metadata !28, metadata !"_Ios_Iostate", metadata !29, i32 144, i64 17, i64 32, i32 0, i32 0, null, metadata !71, i32 0, i32 0} ; [ DW_TAG_enumeration_type ]
!71 = metadata !{metadata !72, metadata !73, metadata !74, metadata !75, metadata !76}
!72 = metadata !{i32 786472, metadata !"_S_goodbit", i64 0} ; [ DW_TAG_enumerator ]
!73 = metadata !{i32 786472, metadata !"_S_badbit", i64 1} ; [ DW_TAG_enumerator ]
!74 = metadata !{i32 786472, metadata !"_S_eofbit", i64 2} ; [ DW_TAG_enumerator ]
!75 = metadata !{i32 786472, metadata !"_S_failbit", i64 4} ; [ DW_TAG_enumerator ]
!76 = metadata !{i32 786472, metadata !"_S_ios_iostate_end", i64 65536} ; [ DW_TAG_enumerator ]
!77 = metadata !{i32 786445, metadata !27, metadata !"_M_streambuf_state", metadata !29, i32 457, i64 17, i64 32, i64 256, i32 2, metadata !69} ; [ DW_TAG_member ]
!78 = metadata !{i32 786445, metadata !27, metadata !"_M_callbacks", metadata !29, i32 491, i64 64, i64 64, i64 320, i32 2, metadata !79} ; [ DW_TAG_member ]
!79 = metadata !{i32 786447, null, metadata !"", null, i32 0, i64 64, i64 64, i64 0, i32 0, metadata !80} ; [ DW_TAG_pointer_type ]
!80 = metadata !{i32 786434, metadata !27, metadata !"_Callback_list", metadata !29, i32 461, i64 192, i64 64, i32 0, i32 0, null, metadata !81, i32 0, null, null} ; [ DW_TAG_class_type ]
!81 = metadata !{metadata !82, metadata !83, metadata !94, metadata !95, metadata !97, metadata !101, metadata !104}
!82 = metadata !{i32 786445, metadata !80, metadata !"_M_next", metadata !29, i32 464, i64 64, i64 64, i64 0, i32 0, metadata !79} ; [ DW_TAG_member ]
!83 = metadata !{i32 786445, metadata !80, metadata !"_M_fn", metadata !29, i32 465, i64 64, i64 64, i64 64, i32 0, metadata !84} ; [ DW_TAG_member ]
!84 = metadata !{i32 786454, metadata !27, metadata !"event_callback", metadata !29, i32 437, i64 0, i64 0, i64 0, i32 0, metadata !85} ; [ DW_TAG_typedef ]
!85 = metadata !{i32 786447, null, metadata !"", null, i32 0, i64 64, i64 64, i64 0, i32 0, metadata !86} ; [ DW_TAG_pointer_type ]
!86 = metadata !{i32 786453, i32 0, metadata !"", i32 0, i32 0, i64 0, i64 0, i64 0, i32 0, null, metadata !87, i32 0, i32 0} ; [ DW_TAG_subroutine_type ]
!87 = metadata !{null, metadata !88, metadata !93, metadata !15}
!88 = metadata !{i32 786436, metadata !27, metadata !"event", metadata !29, i32 420, i64 2, i64 2, i32 0, i32 0, null, metadata !89, i32 0, i32 0} ; [ DW_TAG_enumeration_type ]
!89 = metadata !{metadata !90, metadata !91, metadata !92}
!90 = metadata !{i32 786472, metadata !"erase_event", i64 0} ; [ DW_TAG_enumerator ]
!91 = metadata !{i32 786472, metadata !"imbue_event", i64 1} ; [ DW_TAG_enumerator ]
!92 = metadata !{i32 786472, metadata !"copyfmt_event", i64 2} ; [ DW_TAG_enumerator ]
!93 = metadata !{i32 786448, null, null, null, i32 0, i64 0, i64 0, i64 0, i32 0, metadata !27} ; [ DW_TAG_reference_type ]
!94 = metadata !{i32 786445, metadata !80, metadata !"_M_index", metadata !29, i32 466, i64 32, i64 32, i64 128, i32 0, metadata !15} ; [ DW_TAG_member ]
!95 = metadata !{i32 786445, metadata !80, metadata !"_M_refcount", metadata !29, i32 467, i64 32, i64 32, i64 160, i32 0, metadata !96} ; [ DW_TAG_member ]
!96 = metadata !{i32 786454, null, metadata !"_Atomic_word", metadata !29, i32 32, i64 0, i64 0, i64 0, i32 0, metadata !15} ; [ DW_TAG_typedef ]
!97 = metadata !{i32 786478, i32 0, metadata !80, metadata !"_Callback_list", metadata !"_Callback_list", metadata !"", metadata !29, i32 469, metadata !98, i1 false, i1 false, i32 0, i32 0, null, i32 256, i1 false, null, null, i32 0, metadata !18, i32 469} ; [ DW_TAG_subprogram ]
!98 = metadata !{i32 786453, i32 0, metadata !"", i32 0, i32 0, i64 0, i64 0, i64 0, i32 0, null, metadata !99, i32 0, i32 0} ; [ DW_TAG_subroutine_type ]
!99 = metadata !{null, metadata !100, metadata !84, metadata !15, metadata !79}
!100 = metadata !{i32 786447, i32 0, metadata !"", i32 0, i32 0, i64 64, i64 64, i64 0, i32 64, metadata !80} ; [ DW_TAG_pointer_type ]
!101 = metadata !{i32 786478, i32 0, metadata !80, metadata !"_M_add_reference", metadata !"_M_add_reference", metadata !"_ZNSt8ios_base14_Callback_list16_M_add_referenceEv", metadata !29, i32 474, metadata !102, i1 false, i1 false, i32 0, i32 0, null, i32 256, i1 false, null, null, i32 0, metadata !18, i32 474} ; [ DW_TAG_subprogram ]
!102 = metadata !{i32 786453, i32 0, metadata !"", i32 0, i32 0, i64 0, i64 0, i64 0, i32 0, null, metadata !103, i32 0, i32 0} ; [ DW_TAG_subroutine_type ]
!103 = metadata !{null, metadata !100}
!104 = metadata !{i32 786478, i32 0, metadata !80, metadata !"_M_remove_reference", metadata !"_M_remove_reference", metadata !"_ZNSt8ios_base14_Callback_list19_M_remove_referenceEv", metadata !29, i32 478, metadata !105, i1 false, i1 false, i32 0, i32 0, null, i32 256, i1 false, null, null, i32 0, metadata !18, i32 478} ; [ DW_TAG_subprogram ]
!105 = metadata !{i32 786453, i32 0, metadata !"", i32 0, i32 0, i64 0, i64 0, i64 0, i32 0, null, metadata !106, i32 0, i32 0} ; [ DW_TAG_subroutine_type ]
!106 = metadata !{metadata !15, metadata !100}
!107 = metadata !{i32 786445, metadata !27, metadata !"_M_word_zero", metadata !29, i32 508, i64 128, i64 64, i64 384, i32 2, metadata !108} ; [ DW_TAG_member ]
!108 = metadata !{i32 786434, metadata !27, metadata !"_Words", metadata !29, i32 500, i64 128, i64 64, i32 0, i32 0, null, metadata !109, i32 0, null, null} ; [ DW_TAG_class_type ]
!109 = metadata !{metadata !110, metadata !112, metadata !113}
!110 = metadata !{i32 786445, metadata !108, metadata !"_M_pword", metadata !29, i32 502, i64 64, i64 64, i64 0, i32 0, metadata !111} ; [ DW_TAG_member ]
!111 = metadata !{i32 786447, null, metadata !"", null, i32 0, i64 64, i64 64, i64 0, i32 0, null} ; [ DW_TAG_pointer_type ]
!112 = metadata !{i32 786445, metadata !108, metadata !"_M_iword", metadata !29, i32 503, i64 64, i64 64, i64 64, i32 0, metadata !43} ; [ DW_TAG_member ]
!113 = metadata !{i32 786478, i32 0, metadata !108, metadata !"_Words", metadata !"_Words", metadata !"", metadata !29, i32 504, metadata !114, i1 false, i1 false, i32 0, i32 0, null, i32 256, i1 false, null, null, i32 0, metadata !18, i32 504} ; [ DW_TAG_subprogram ]
!114 = metadata !{i32 786453, i32 0, metadata !"", i32 0, i32 0, i64 0, i64 0, i64 0, i32 0, null, metadata !115, i32 0, i32 0} ; [ DW_TAG_subroutine_type ]
!115 = metadata !{null, metadata !116}
!116 = metadata !{i32 786447, i32 0, metadata !"", i32 0, i32 0, i64 64, i64 64, i64 0, i32 64, metadata !108} ; [ DW_TAG_pointer_type ]
!117 = metadata !{i32 786445, metadata !27, metadata !"_M_local_word", metadata !29, i32 513, i64 1024, i64 64, i64 512, i32 2, metadata !118} ; [ DW_TAG_member ]
!118 = metadata !{i32 786433, null, metadata !"", null, i32 0, i64 1024, i64 64, i32 0, i32 0, metadata !108, metadata !119, i32 0, i32 0} ; [ DW_TAG_array_type ]
!119 = metadata !{metadata !120}
!120 = metadata !{i32 786465, i64 0, i64 7}       ; [ DW_TAG_subrange_type ]
!121 = metadata !{i32 786445, metadata !27, metadata !"_M_word_size", metadata !29, i32 516, i64 32, i64 32, i64 1536, i32 2, metadata !15} ; [ DW_TAG_member ]
!122 = metadata !{i32 786445, metadata !27, metadata !"_M_word", metadata !29, i32 517, i64 64, i64 64, i64 1600, i32 2, metadata !123} ; [ DW_TAG_member ]
!123 = metadata !{i32 786447, null, metadata !"", null, i32 0, i64 64, i64 64, i64 0, i32 0, metadata !108} ; [ DW_TAG_pointer_type ]
!124 = metadata !{i32 786445, metadata !27, metadata !"_M_ios_locale", metadata !29, i32 523, i64 64, i64 64, i64 1664, i32 2, metadata !125} ; [ DW_TAG_member ]
!125 = metadata !{i32 786434, metadata !126, metadata !"locale", metadata !127, i32 63, i64 64, i64 64, i32 0, i32 0, null, metadata !128, i32 0, null, null} ; [ DW_TAG_class_type ]
!126 = metadata !{i32 786489, null, metadata !"std", metadata !127, i32 44} ; [ DW_TAG_namespace ]
!127 = metadata !{i32 786473, metadata !"/opt/Xilinx/SDSoC/2014.4/Vivado_HLS/2014.4/lnx64/tools/gcc/lib/gcc/x86_64-unknown-linux-gnu/4.6.3/../../../../include/c++/4.6.3/bits/locale_classes.h", metadata !"/home/trungnguyen/SDSoC/workspace/correlation_ver1/correlation_ver1_linux/SDRelease/_sds/vhls", null} ; [ DW_TAG_file_type ]
!128 = metadata !{metadata !129, metadata !290, metadata !294, metadata !299, metadata !302, metadata !305, metadata !308, metadata !309, metadata !312, metadata !807, metadata !810, metadata !811, metadata !814, metadata !817, metadata !820, metadata !821, metadata !822, metadata !825, metadata !826, metadata !827}
!129 = metadata !{i32 786445, metadata !125, metadata !"_M_impl", metadata !127, i32 280, i64 64, i64 64, i64 0, i32 1, metadata !130} ; [ DW_TAG_member ]
!130 = metadata !{i32 786447, null, metadata !"", null, i32 0, i64 64, i64 64, i64 0, i32 0, metadata !131} ; [ DW_TAG_pointer_type ]
!131 = metadata !{i32 786434, metadata !125, metadata !"_Impl", metadata !127, i32 475, i64 320, i64 64, i32 0, i32 0, null, metadata !132, i32 0, null, null} ; [ DW_TAG_class_type ]
!132 = metadata !{metadata !133, metadata !134, metadata !219, metadata !220, metadata !221, metadata !224, metadata !228, metadata !229, metadata !234, metadata !237, metadata !240, metadata !241, metadata !244, metadata !245, metadata !249, metadata !254, metadata !279, metadata !282, metadata !285, metadata !288, metadata !289}
!133 = metadata !{i32 786445, metadata !131, metadata !"_M_refcount", metadata !127, i32 495, i64 32, i64 32, i64 0, i32 1, metadata !96} ; [ DW_TAG_member ]
!134 = metadata !{i32 786445, metadata !131, metadata !"_M_facets", metadata !127, i32 496, i64 64, i64 64, i64 64, i32 1, metadata !135} ; [ DW_TAG_member ]
!135 = metadata !{i32 786447, null, metadata !"", null, i32 0, i64 64, i64 64, i64 0, i32 0, metadata !136} ; [ DW_TAG_pointer_type ]
!136 = metadata !{i32 786447, null, metadata !"", null, i32 0, i64 64, i64 64, i64 0, i32 0, metadata !137} ; [ DW_TAG_pointer_type ]
!137 = metadata !{i32 786470, null, metadata !"", null, i32 0, i64 0, i64 0, i64 0, i32 0, metadata !138} ; [ DW_TAG_const_type ]
!138 = metadata !{i32 786434, metadata !125, metadata !"facet", metadata !127, i32 338, i64 128, i64 64, i32 0, i32 0, null, metadata !139, i32 0, metadata !138, null} ; [ DW_TAG_class_type ]
!139 = metadata !{metadata !140, metadata !141, metadata !142, metadata !145, metadata !151, metadata !154, metadata !189, metadata !192, metadata !195, metadata !198, metadata !201, metadata !204, metadata !208, metadata !209, metadata !213, metadata !217, metadata !218}
!140 = metadata !{i32 786445, metadata !127, metadata !"_vptr$facet", metadata !127, i32 0, i64 64, i64 0, i64 0, i32 0, metadata !32} ; [ DW_TAG_member ]
!141 = metadata !{i32 786445, metadata !138, metadata !"_M_refcount", metadata !127, i32 344, i64 32, i64 32, i64 64, i32 1, metadata !96} ; [ DW_TAG_member ]
!142 = metadata !{i32 786478, i32 0, metadata !138, metadata !"_S_initialize_once", metadata !"_S_initialize_once", metadata !"_ZNSt6locale5facet18_S_initialize_onceEv", metadata !127, i32 357, metadata !143, i1 false, i1 false, i32 0, i32 0, null, i32 257, i1 false, null, null, i32 0, metadata !18, i32 357} ; [ DW_TAG_subprogram ]
!143 = metadata !{i32 786453, i32 0, metadata !"", i32 0, i32 0, i64 0, i64 0, i64 0, i32 0, null, metadata !144, i32 0, i32 0} ; [ DW_TAG_subroutine_type ]
!144 = metadata !{null}
!145 = metadata !{i32 786478, i32 0, metadata !138, metadata !"facet", metadata !"facet", metadata !"", metadata !127, i32 370, metadata !146, i1 false, i1 false, i32 0, i32 0, null, i32 386, i1 false, null, null, i32 0, metadata !18, i32 370} ; [ DW_TAG_subprogram ]
!146 = metadata !{i32 786453, i32 0, metadata !"", i32 0, i32 0, i64 0, i64 0, i64 0, i32 0, null, metadata !147, i32 0, i32 0} ; [ DW_TAG_subroutine_type ]
!147 = metadata !{null, metadata !148, metadata !149}
!148 = metadata !{i32 786447, i32 0, metadata !"", i32 0, i32 0, i64 64, i64 64, i64 0, i32 64, metadata !138} ; [ DW_TAG_pointer_type ]
!149 = metadata !{i32 786454, metadata !41, metadata !"size_t", metadata !127, i32 155, i64 0, i64 0, i64 0, i32 0, metadata !150} ; [ DW_TAG_typedef ]
!150 = metadata !{i32 786468, null, metadata !"long unsigned int", null, i32 0, i64 64, i64 64, i64 0, i32 0, i32 7} ; [ DW_TAG_base_type ]
!151 = metadata !{i32 786478, i32 0, metadata !138, metadata !"~facet", metadata !"~facet", metadata !"", metadata !127, i32 375, metadata !152, i1 false, i1 false, i32 1, i32 0, metadata !138, i32 258, i1 false, null, null, i32 0, metadata !18, i32 375} ; [ DW_TAG_subprogram ]
!152 = metadata !{i32 786453, i32 0, metadata !"", i32 0, i32 0, i64 0, i64 0, i64 0, i32 0, null, metadata !153, i32 0, i32 0} ; [ DW_TAG_subroutine_type ]
!153 = metadata !{null, metadata !148}
!154 = metadata !{i32 786478, i32 0, metadata !138, metadata !"_S_create_c_locale", metadata !"_S_create_c_locale", metadata !"_ZNSt6locale5facet18_S_create_c_localeERP15__locale_structPKcS2_", metadata !127, i32 378, metadata !155, i1 false, i1 false, i32 0, i32 0, null, i32 258, i1 false, null, null, i32 0, metadata !18, i32 378} ; [ DW_TAG_subprogram ]
!155 = metadata !{i32 786453, i32 0, metadata !"", i32 0, i32 0, i64 0, i64 0, i64 0, i32 0, null, metadata !156, i32 0, i32 0} ; [ DW_TAG_subroutine_type ]
!156 = metadata !{null, metadata !157, metadata !182, metadata !158}
!157 = metadata !{i32 786448, null, null, null, i32 0, i64 0, i64 0, i64 0, i32 0, metadata !158} ; [ DW_TAG_reference_type ]
!158 = metadata !{i32 786454, metadata !159, metadata !"__c_locale", metadata !127, i32 62, i64 0, i64 0, i64 0, i32 0, metadata !161} ; [ DW_TAG_typedef ]
!159 = metadata !{i32 786489, null, metadata !"std", metadata !160, i32 58} ; [ DW_TAG_namespace ]
!160 = metadata !{i32 786473, metadata !"/opt/Xilinx/SDSoC/2014.4/Vivado_HLS/2014.4/lnx64/tools/gcc/lib/gcc/x86_64-unknown-linux-gnu/4.6.3/../../../../include/c++/4.6.3/x86_64-unknown-linux-gnu/bits/c++locale.h", metadata !"/home/trungnguyen/SDSoC/workspace/correlation_ver1/correlation_ver1_linux/SDRelease/_sds/vhls", null} ; [ DW_TAG_file_type ]
!161 = metadata !{i32 786454, null, metadata !"__locale_t", metadata !127, i32 40, i64 0, i64 0, i64 0, i32 0, metadata !162} ; [ DW_TAG_typedef ]
!162 = metadata !{i32 786447, null, metadata !"", null, i32 0, i64 64, i64 64, i64 0, i32 0, metadata !163} ; [ DW_TAG_pointer_type ]
!163 = metadata !{i32 786434, null, metadata !"__locale_struct", metadata !164, i32 28, i64 1856, i64 64, i32 0, i32 0, null, metadata !165, i32 0, null, null} ; [ DW_TAG_class_type ]
!164 = metadata !{i32 786473, metadata !"/usr/include/xlocale.h", metadata !"/home/trungnguyen/SDSoC/workspace/correlation_ver1/correlation_ver1_linux/SDRelease/_sds/vhls", null} ; [ DW_TAG_file_type ]
!165 = metadata !{metadata !166, metadata !172, metadata !176, metadata !179, metadata !180, metadata !185}
!166 = metadata !{i32 786445, metadata !163, metadata !"__locales", metadata !164, i32 31, i64 832, i64 64, i64 0, i32 0, metadata !167} ; [ DW_TAG_member ]
!167 = metadata !{i32 786433, null, metadata !"", null, i32 0, i64 832, i64 64, i32 0, i32 0, metadata !168, metadata !170, i32 0, i32 0} ; [ DW_TAG_array_type ]
!168 = metadata !{i32 786447, null, metadata !"", null, i32 0, i64 64, i64 64, i64 0, i32 0, metadata !169} ; [ DW_TAG_pointer_type ]
!169 = metadata !{i32 786434, null, metadata !"__locale_data", metadata !164, i32 31, i32 0, i32 0, i32 0, i32 4, null, null, i32 0} ; [ DW_TAG_class_type ]
!170 = metadata !{metadata !171}
!171 = metadata !{i32 786465, i64 0, i64 12}      ; [ DW_TAG_subrange_type ]
!172 = metadata !{i32 786445, metadata !163, metadata !"__ctype_b", metadata !164, i32 34, i64 64, i64 64, i64 832, i32 0, metadata !173} ; [ DW_TAG_member ]
!173 = metadata !{i32 786447, null, metadata !"", null, i32 0, i64 64, i64 64, i64 0, i32 0, metadata !174} ; [ DW_TAG_pointer_type ]
!174 = metadata !{i32 786470, null, metadata !"", null, i32 0, i64 0, i64 0, i64 0, i32 0, metadata !175} ; [ DW_TAG_const_type ]
!175 = metadata !{i32 786468, null, metadata !"unsigned short", null, i32 0, i64 16, i64 16, i64 0, i32 0, i32 7} ; [ DW_TAG_base_type ]
!176 = metadata !{i32 786445, metadata !163, metadata !"__ctype_tolower", metadata !164, i32 35, i64 64, i64 64, i64 896, i32 0, metadata !177} ; [ DW_TAG_member ]
!177 = metadata !{i32 786447, null, metadata !"", null, i32 0, i64 64, i64 64, i64 0, i32 0, metadata !178} ; [ DW_TAG_pointer_type ]
!178 = metadata !{i32 786470, null, metadata !"", null, i32 0, i64 0, i64 0, i64 0, i32 0, metadata !15} ; [ DW_TAG_const_type ]
!179 = metadata !{i32 786445, metadata !163, metadata !"__ctype_toupper", metadata !164, i32 36, i64 64, i64 64, i64 960, i32 0, metadata !177} ; [ DW_TAG_member ]
!180 = metadata !{i32 786445, metadata !163, metadata !"__names", metadata !164, i32 39, i64 832, i64 64, i64 1024, i32 0, metadata !181} ; [ DW_TAG_member ]
!181 = metadata !{i32 786433, null, metadata !"", null, i32 0, i64 832, i64 64, i32 0, i32 0, metadata !182, metadata !170, i32 0, i32 0} ; [ DW_TAG_array_type ]
!182 = metadata !{i32 786447, null, metadata !"", null, i32 0, i64 64, i64 64, i64 0, i32 0, metadata !183} ; [ DW_TAG_pointer_type ]
!183 = metadata !{i32 786470, null, metadata !"", null, i32 0, i64 0, i64 0, i64 0, i32 0, metadata !184} ; [ DW_TAG_const_type ]
!184 = metadata !{i32 786468, null, metadata !"char", null, i32 0, i64 8, i64 8, i64 0, i32 0, i32 6} ; [ DW_TAG_base_type ]
!185 = metadata !{i32 786478, i32 0, metadata !163, metadata !"__locale_struct", metadata !"__locale_struct", metadata !"", metadata !164, i32 42, metadata !186, i1 false, i1 false, i32 0, i32 0, null, i32 256, i1 false, null, null, i32 0, metadata !18, i32 42} ; [ DW_TAG_subprogram ]
!186 = metadata !{i32 786453, i32 0, metadata !"", i32 0, i32 0, i64 0, i64 0, i64 0, i32 0, null, metadata !187, i32 0, i32 0} ; [ DW_TAG_subroutine_type ]
!187 = metadata !{null, metadata !188}
!188 = metadata !{i32 786447, i32 0, metadata !"", i32 0, i32 0, i64 64, i64 64, i64 0, i32 64, metadata !163} ; [ DW_TAG_pointer_type ]
!189 = metadata !{i32 786478, i32 0, metadata !138, metadata !"_S_clone_c_locale", metadata !"_S_clone_c_locale", metadata !"_ZNSt6locale5facet17_S_clone_c_localeERP15__locale_struct", metadata !127, i32 382, metadata !190, i1 false, i1 false, i32 0, i32 0, null, i32 258, i1 false, null, null, i32 0, metadata !18, i32 382} ; [ DW_TAG_subprogram ]
!190 = metadata !{i32 786453, i32 0, metadata !"", i32 0, i32 0, i64 0, i64 0, i64 0, i32 0, null, metadata !191, i32 0, i32 0} ; [ DW_TAG_subroutine_type ]
!191 = metadata !{metadata !158, metadata !157}
!192 = metadata !{i32 786478, i32 0, metadata !138, metadata !"_S_destroy_c_locale", metadata !"_S_destroy_c_locale", metadata !"_ZNSt6locale5facet19_S_destroy_c_localeERP15__locale_struct", metadata !127, i32 385, metadata !193, i1 false, i1 false, i32 0, i32 0, null, i32 258, i1 false, null, null, i32 0, metadata !18, i32 385} ; [ DW_TAG_subprogram ]
!193 = metadata !{i32 786453, i32 0, metadata !"", i32 0, i32 0, i64 0, i64 0, i64 0, i32 0, null, metadata !194, i32 0, i32 0} ; [ DW_TAG_subroutine_type ]
!194 = metadata !{null, metadata !157}
!195 = metadata !{i32 786478, i32 0, metadata !138, metadata !"_S_lc_ctype_c_locale", metadata !"_S_lc_ctype_c_locale", metadata !"_ZNSt6locale5facet20_S_lc_ctype_c_localeEP15__locale_structPKc", metadata !127, i32 388, metadata !196, i1 false, i1 false, i32 0, i32 0, null, i32 258, i1 false, null, null, i32 0, metadata !18, i32 388} ; [ DW_TAG_subprogram ]
!196 = metadata !{i32 786453, i32 0, metadata !"", i32 0, i32 0, i64 0, i64 0, i64 0, i32 0, null, metadata !197, i32 0, i32 0} ; [ DW_TAG_subroutine_type ]
!197 = metadata !{metadata !158, metadata !158, metadata !182}
!198 = metadata !{i32 786478, i32 0, metadata !138, metadata !"_S_get_c_locale", metadata !"_S_get_c_locale", metadata !"_ZNSt6locale5facet15_S_get_c_localeEv", metadata !127, i32 393, metadata !199, i1 false, i1 false, i32 0, i32 0, null, i32 258, i1 false, null, null, i32 0, metadata !18, i32 393} ; [ DW_TAG_subprogram ]
!199 = metadata !{i32 786453, i32 0, metadata !"", i32 0, i32 0, i64 0, i64 0, i64 0, i32 0, null, metadata !200, i32 0, i32 0} ; [ DW_TAG_subroutine_type ]
!200 = metadata !{metadata !158}
!201 = metadata !{i32 786478, i32 0, metadata !138, metadata !"_S_get_c_name", metadata !"_S_get_c_name", metadata !"_ZNSt6locale5facet13_S_get_c_nameEv", metadata !127, i32 396, metadata !202, i1 false, i1 false, i32 0, i32 0, null, i32 258, i1 false, null, null, i32 0, metadata !18, i32 396} ; [ DW_TAG_subprogram ]
!202 = metadata !{i32 786453, i32 0, metadata !"", i32 0, i32 0, i64 0, i64 0, i64 0, i32 0, null, metadata !203, i32 0, i32 0} ; [ DW_TAG_subroutine_type ]
!203 = metadata !{metadata !182}
!204 = metadata !{i32 786478, i32 0, metadata !138, metadata !"_M_add_reference", metadata !"_M_add_reference", metadata !"_ZNKSt6locale5facet16_M_add_referenceEv", metadata !127, i32 400, metadata !205, i1 false, i1 false, i32 0, i32 0, null, i32 257, i1 false, null, null, i32 0, metadata !18, i32 400} ; [ DW_TAG_subprogram ]
!205 = metadata !{i32 786453, i32 0, metadata !"", i32 0, i32 0, i64 0, i64 0, i64 0, i32 0, null, metadata !206, i32 0, i32 0} ; [ DW_TAG_subroutine_type ]
!206 = metadata !{null, metadata !207}
!207 = metadata !{i32 786447, i32 0, metadata !"", i32 0, i32 0, i64 64, i64 64, i64 0, i32 64, metadata !137} ; [ DW_TAG_pointer_type ]
!208 = metadata !{i32 786478, i32 0, metadata !138, metadata !"_M_remove_reference", metadata !"_M_remove_reference", metadata !"_ZNKSt6locale5facet19_M_remove_referenceEv", metadata !127, i32 404, metadata !205, i1 false, i1 false, i32 0, i32 0, null, i32 257, i1 false, null, null, i32 0, metadata !18, i32 404} ; [ DW_TAG_subprogram ]
!209 = metadata !{i32 786478, i32 0, metadata !138, metadata !"facet", metadata !"facet", metadata !"", metadata !127, i32 418, metadata !210, i1 false, i1 false, i32 0, i32 0, null, i32 257, i1 false, null, null, i32 0, metadata !18, i32 418} ; [ DW_TAG_subprogram ]
!210 = metadata !{i32 786453, i32 0, metadata !"", i32 0, i32 0, i64 0, i64 0, i64 0, i32 0, null, metadata !211, i32 0, i32 0} ; [ DW_TAG_subroutine_type ]
!211 = metadata !{null, metadata !148, metadata !212}
!212 = metadata !{i32 786448, null, null, null, i32 0, i64 0, i64 0, i64 0, i32 0, metadata !137} ; [ DW_TAG_reference_type ]
!213 = metadata !{i32 786478, i32 0, metadata !138, metadata !"operator=", metadata !"operator=", metadata !"_ZNSt6locale5facetaSERKS0_", metadata !127, i32 421, metadata !214, i1 false, i1 false, i32 0, i32 0, null, i32 257, i1 false, null, null, i32 0, metadata !18, i32 421} ; [ DW_TAG_subprogram ]
!214 = metadata !{i32 786453, i32 0, metadata !"", i32 0, i32 0, i64 0, i64 0, i64 0, i32 0, null, metadata !215, i32 0, i32 0} ; [ DW_TAG_subroutine_type ]
!215 = metadata !{metadata !216, metadata !148, metadata !212}
!216 = metadata !{i32 786448, null, null, null, i32 0, i64 0, i64 0, i64 0, i32 0, metadata !138} ; [ DW_TAG_reference_type ]
!217 = metadata !{i32 786474, metadata !138, null, metadata !127, i32 0, i64 0, i64 0, i64 0, i32 0, metadata !131} ; [ DW_TAG_friend ]
!218 = metadata !{i32 786474, metadata !138, null, metadata !127, i32 0, i64 0, i64 0, i64 0, i32 0, metadata !125} ; [ DW_TAG_friend ]
!219 = metadata !{i32 786445, metadata !131, metadata !"_M_facets_size", metadata !127, i32 497, i64 64, i64 64, i64 128, i32 1, metadata !149} ; [ DW_TAG_member ]
!220 = metadata !{i32 786445, metadata !131, metadata !"_M_caches", metadata !127, i32 498, i64 64, i64 64, i64 192, i32 1, metadata !135} ; [ DW_TAG_member ]
!221 = metadata !{i32 786445, metadata !131, metadata !"_M_names", metadata !127, i32 499, i64 64, i64 64, i64 256, i32 1, metadata !222} ; [ DW_TAG_member ]
!222 = metadata !{i32 786447, null, metadata !"", null, i32 0, i64 64, i64 64, i64 0, i32 0, metadata !223} ; [ DW_TAG_pointer_type ]
!223 = metadata !{i32 786447, null, metadata !"", null, i32 0, i64 64, i64 64, i64 0, i32 0, metadata !184} ; [ DW_TAG_pointer_type ]
!224 = metadata !{i32 786478, i32 0, metadata !131, metadata !"_M_add_reference", metadata !"_M_add_reference", metadata !"_ZNSt6locale5_Impl16_M_add_referenceEv", metadata !127, i32 509, metadata !225, i1 false, i1 false, i32 0, i32 0, null, i32 257, i1 false, null, null, i32 0, metadata !18, i32 509} ; [ DW_TAG_subprogram ]
!225 = metadata !{i32 786453, i32 0, metadata !"", i32 0, i32 0, i64 0, i64 0, i64 0, i32 0, null, metadata !226, i32 0, i32 0} ; [ DW_TAG_subroutine_type ]
!226 = metadata !{null, metadata !227}
!227 = metadata !{i32 786447, i32 0, metadata !"", i32 0, i32 0, i64 64, i64 64, i64 0, i32 64, metadata !131} ; [ DW_TAG_pointer_type ]
!228 = metadata !{i32 786478, i32 0, metadata !131, metadata !"_M_remove_reference", metadata !"_M_remove_reference", metadata !"_ZNSt6locale5_Impl19_M_remove_referenceEv", metadata !127, i32 513, metadata !225, i1 false, i1 false, i32 0, i32 0, null, i32 257, i1 false, null, null, i32 0, metadata !18, i32 513} ; [ DW_TAG_subprogram ]
!229 = metadata !{i32 786478, i32 0, metadata !131, metadata !"_Impl", metadata !"_Impl", metadata !"", metadata !127, i32 527, metadata !230, i1 false, i1 false, i32 0, i32 0, null, i32 257, i1 false, null, null, i32 0, metadata !18, i32 527} ; [ DW_TAG_subprogram ]
!230 = metadata !{i32 786453, i32 0, metadata !"", i32 0, i32 0, i64 0, i64 0, i64 0, i32 0, null, metadata !231, i32 0, i32 0} ; [ DW_TAG_subroutine_type ]
!231 = metadata !{null, metadata !227, metadata !232, metadata !149}
!232 = metadata !{i32 786448, null, null, null, i32 0, i64 0, i64 0, i64 0, i32 0, metadata !233} ; [ DW_TAG_reference_type ]
!233 = metadata !{i32 786470, null, metadata !"", null, i32 0, i64 0, i64 0, i64 0, i32 0, metadata !131} ; [ DW_TAG_const_type ]
!234 = metadata !{i32 786478, i32 0, metadata !131, metadata !"_Impl", metadata !"_Impl", metadata !"", metadata !127, i32 528, metadata !235, i1 false, i1 false, i32 0, i32 0, null, i32 257, i1 false, null, null, i32 0, metadata !18, i32 528} ; [ DW_TAG_subprogram ]
!235 = metadata !{i32 786453, i32 0, metadata !"", i32 0, i32 0, i64 0, i64 0, i64 0, i32 0, null, metadata !236, i32 0, i32 0} ; [ DW_TAG_subroutine_type ]
!236 = metadata !{null, metadata !227, metadata !182, metadata !149}
!237 = metadata !{i32 786478, i32 0, metadata !131, metadata !"_Impl", metadata !"_Impl", metadata !"", metadata !127, i32 529, metadata !238, i1 false, i1 false, i32 0, i32 0, null, i32 257, i1 false, null, null, i32 0, metadata !18, i32 529} ; [ DW_TAG_subprogram ]
!238 = metadata !{i32 786453, i32 0, metadata !"", i32 0, i32 0, i64 0, i64 0, i64 0, i32 0, null, metadata !239, i32 0, i32 0} ; [ DW_TAG_subroutine_type ]
!239 = metadata !{null, metadata !227, metadata !149}
!240 = metadata !{i32 786478, i32 0, metadata !131, metadata !"~_Impl", metadata !"~_Impl", metadata !"", metadata !127, i32 531, metadata !225, i1 false, i1 false, i32 0, i32 0, null, i32 257, i1 false, null, null, i32 0, metadata !18, i32 531} ; [ DW_TAG_subprogram ]
!241 = metadata !{i32 786478, i32 0, metadata !131, metadata !"_Impl", metadata !"_Impl", metadata !"", metadata !127, i32 533, metadata !242, i1 false, i1 false, i32 0, i32 0, null, i32 257, i1 false, null, null, i32 0, metadata !18, i32 533} ; [ DW_TAG_subprogram ]
!242 = metadata !{i32 786453, i32 0, metadata !"", i32 0, i32 0, i64 0, i64 0, i64 0, i32 0, null, metadata !243, i32 0, i32 0} ; [ DW_TAG_subroutine_type ]
!243 = metadata !{null, metadata !227, metadata !232}
!244 = metadata !{i32 786478, i32 0, metadata !131, metadata !"operator=", metadata !"operator=", metadata !"_ZNSt6locale5_ImplaSERKS0_", metadata !127, i32 536, metadata !242, i1 false, i1 false, i32 0, i32 0, null, i32 257, i1 false, null, null, i32 0, metadata !18, i32 536} ; [ DW_TAG_subprogram ]
!245 = metadata !{i32 786478, i32 0, metadata !131, metadata !"_M_check_same_name", metadata !"_M_check_same_name", metadata !"_ZNSt6locale5_Impl18_M_check_same_nameEv", metadata !127, i32 539, metadata !246, i1 false, i1 false, i32 0, i32 0, null, i32 257, i1 false, null, null, i32 0, metadata !18, i32 539} ; [ DW_TAG_subprogram ]
!246 = metadata !{i32 786453, i32 0, metadata !"", i32 0, i32 0, i64 0, i64 0, i64 0, i32 0, null, metadata !247, i32 0, i32 0} ; [ DW_TAG_subroutine_type ]
!247 = metadata !{metadata !248, metadata !227}
!248 = metadata !{i32 786468, null, metadata !"bool", null, i32 0, i64 8, i64 8, i64 0, i32 0, i32 2} ; [ DW_TAG_base_type ]
!249 = metadata !{i32 786478, i32 0, metadata !131, metadata !"_M_replace_categories", metadata !"_M_replace_categories", metadata !"_ZNSt6locale5_Impl21_M_replace_categoriesEPKS0_i", metadata !127, i32 550, metadata !250, i1 false, i1 false, i32 0, i32 0, null, i32 257, i1 false, null, null, i32 0, metadata !18, i32 550} ; [ DW_TAG_subprogram ]
!250 = metadata !{i32 786453, i32 0, metadata !"", i32 0, i32 0, i64 0, i64 0, i64 0, i32 0, null, metadata !251, i32 0, i32 0} ; [ DW_TAG_subroutine_type ]
!251 = metadata !{null, metadata !227, metadata !252, metadata !253}
!252 = metadata !{i32 786447, null, metadata !"", null, i32 0, i64 64, i64 64, i64 0, i32 0, metadata !233} ; [ DW_TAG_pointer_type ]
!253 = metadata !{i32 786454, metadata !125, metadata !"category", metadata !127, i32 68, i64 0, i64 0, i64 0, i32 0, metadata !15} ; [ DW_TAG_typedef ]
!254 = metadata !{i32 786478, i32 0, metadata !131, metadata !"_M_replace_category", metadata !"_M_replace_category", metadata !"_ZNSt6locale5_Impl19_M_replace_categoryEPKS0_PKPKNS_2idE", metadata !127, i32 553, metadata !255, i1 false, i1 false, i32 0, i32 0, null, i32 257, i1 false, null, null, i32 0, metadata !18, i32 553} ; [ DW_TAG_subprogram ]
!255 = metadata !{i32 786453, i32 0, metadata !"", i32 0, i32 0, i64 0, i64 0, i64 0, i32 0, null, metadata !256, i32 0, i32 0} ; [ DW_TAG_subroutine_type ]
!256 = metadata !{null, metadata !227, metadata !252, metadata !257}
!257 = metadata !{i32 786447, null, metadata !"", null, i32 0, i64 64, i64 64, i64 0, i32 0, metadata !258} ; [ DW_TAG_pointer_type ]
!258 = metadata !{i32 786470, null, metadata !"", null, i32 0, i64 0, i64 0, i64 0, i32 0, metadata !259} ; [ DW_TAG_const_type ]
!259 = metadata !{i32 786447, null, metadata !"", null, i32 0, i64 64, i64 64, i64 0, i32 0, metadata !260} ; [ DW_TAG_pointer_type ]
!260 = metadata !{i32 786470, null, metadata !"", null, i32 0, i64 0, i64 0, i64 0, i32 0, metadata !261} ; [ DW_TAG_const_type ]
!261 = metadata !{i32 786434, metadata !125, metadata !"id", metadata !127, i32 436, i64 64, i64 64, i32 0, i32 0, null, metadata !262, i32 0, null, null} ; [ DW_TAG_class_type ]
!262 = metadata !{metadata !263, metadata !264, metadata !269, metadata !270, metadata !273, metadata !277, metadata !278}
!263 = metadata !{i32 786445, metadata !261, metadata !"_M_index", metadata !127, i32 453, i64 64, i64 64, i64 0, i32 1, metadata !149} ; [ DW_TAG_member ]
!264 = metadata !{i32 786478, i32 0, metadata !261, metadata !"operator=", metadata !"operator=", metadata !"_ZNSt6locale2idaSERKS0_", metadata !127, i32 459, metadata !265, i1 false, i1 false, i32 0, i32 0, null, i32 257, i1 false, null, null, i32 0, metadata !18, i32 459} ; [ DW_TAG_subprogram ]
!265 = metadata !{i32 786453, i32 0, metadata !"", i32 0, i32 0, i64 0, i64 0, i64 0, i32 0, null, metadata !266, i32 0, i32 0} ; [ DW_TAG_subroutine_type ]
!266 = metadata !{null, metadata !267, metadata !268}
!267 = metadata !{i32 786447, i32 0, metadata !"", i32 0, i32 0, i64 64, i64 64, i64 0, i32 64, metadata !261} ; [ DW_TAG_pointer_type ]
!268 = metadata !{i32 786448, null, null, null, i32 0, i64 0, i64 0, i64 0, i32 0, metadata !260} ; [ DW_TAG_reference_type ]
!269 = metadata !{i32 786478, i32 0, metadata !261, metadata !"id", metadata !"id", metadata !"", metadata !127, i32 461, metadata !265, i1 false, i1 false, i32 0, i32 0, null, i32 257, i1 false, null, null, i32 0, metadata !18, i32 461} ; [ DW_TAG_subprogram ]
!270 = metadata !{i32 786478, i32 0, metadata !261, metadata !"id", metadata !"id", metadata !"", metadata !127, i32 467, metadata !271, i1 false, i1 false, i32 0, i32 0, null, i32 256, i1 false, null, null, i32 0, metadata !18, i32 467} ; [ DW_TAG_subprogram ]
!271 = metadata !{i32 786453, i32 0, metadata !"", i32 0, i32 0, i64 0, i64 0, i64 0, i32 0, null, metadata !272, i32 0, i32 0} ; [ DW_TAG_subroutine_type ]
!272 = metadata !{null, metadata !267}
!273 = metadata !{i32 786478, i32 0, metadata !261, metadata !"_M_id", metadata !"_M_id", metadata !"_ZNKSt6locale2id5_M_idEv", metadata !127, i32 470, metadata !274, i1 false, i1 false, i32 0, i32 0, null, i32 256, i1 false, null, null, i32 0, metadata !18, i32 470} ; [ DW_TAG_subprogram ]
!274 = metadata !{i32 786453, i32 0, metadata !"", i32 0, i32 0, i64 0, i64 0, i64 0, i32 0, null, metadata !275, i32 0, i32 0} ; [ DW_TAG_subroutine_type ]
!275 = metadata !{metadata !149, metadata !276}
!276 = metadata !{i32 786447, i32 0, metadata !"", i32 0, i32 0, i64 64, i64 64, i64 0, i32 64, metadata !260} ; [ DW_TAG_pointer_type ]
!277 = metadata !{i32 786474, metadata !261, null, metadata !127, i32 0, i64 0, i64 0, i64 0, i32 0, metadata !131} ; [ DW_TAG_friend ]
!278 = metadata !{i32 786474, metadata !261, null, metadata !127, i32 0, i64 0, i64 0, i64 0, i32 0, metadata !125} ; [ DW_TAG_friend ]
!279 = metadata !{i32 786478, i32 0, metadata !131, metadata !"_M_replace_facet", metadata !"_M_replace_facet", metadata !"_ZNSt6locale5_Impl16_M_replace_facetEPKS0_PKNS_2idE", metadata !127, i32 556, metadata !280, i1 false, i1 false, i32 0, i32 0, null, i32 257, i1 false, null, null, i32 0, metadata !18, i32 556} ; [ DW_TAG_subprogram ]
!280 = metadata !{i32 786453, i32 0, metadata !"", i32 0, i32 0, i64 0, i64 0, i64 0, i32 0, null, metadata !281, i32 0, i32 0} ; [ DW_TAG_subroutine_type ]
!281 = metadata !{null, metadata !227, metadata !252, metadata !259}
!282 = metadata !{i32 786478, i32 0, metadata !131, metadata !"_M_install_facet", metadata !"_M_install_facet", metadata !"_ZNSt6locale5_Impl16_M_install_facetEPKNS_2idEPKNS_5facetE", metadata !127, i32 559, metadata !283, i1 false, i1 false, i32 0, i32 0, null, i32 257, i1 false, null, null, i32 0, metadata !18, i32 559} ; [ DW_TAG_subprogram ]
!283 = metadata !{i32 786453, i32 0, metadata !"", i32 0, i32 0, i64 0, i64 0, i64 0, i32 0, null, metadata !284, i32 0, i32 0} ; [ DW_TAG_subroutine_type ]
!284 = metadata !{null, metadata !227, metadata !259, metadata !136}
!285 = metadata !{i32 786478, i32 0, metadata !131, metadata !"_M_install_cache", metadata !"_M_install_cache", metadata !"_ZNSt6locale5_Impl16_M_install_cacheEPKNS_5facetEm", metadata !127, i32 567, metadata !286, i1 false, i1 false, i32 0, i32 0, null, i32 257, i1 false, null, null, i32 0, metadata !18, i32 567} ; [ DW_TAG_subprogram ]
!286 = metadata !{i32 786453, i32 0, metadata !"", i32 0, i32 0, i64 0, i64 0, i64 0, i32 0, null, metadata !287, i32 0, i32 0} ; [ DW_TAG_subroutine_type ]
!287 = metadata !{null, metadata !227, metadata !136, metadata !149}
!288 = metadata !{i32 786474, metadata !131, null, metadata !127, i32 0, i64 0, i64 0, i64 0, i32 0, metadata !138} ; [ DW_TAG_friend ]
!289 = metadata !{i32 786474, metadata !131, null, metadata !127, i32 0, i64 0, i64 0, i64 0, i32 0, metadata !125} ; [ DW_TAG_friend ]
!290 = metadata !{i32 786478, i32 0, metadata !125, metadata !"locale", metadata !"locale", metadata !"", metadata !127, i32 118, metadata !291, i1 false, i1 false, i32 0, i32 0, null, i32 256, i1 false, null, null, i32 0, metadata !18, i32 118} ; [ DW_TAG_subprogram ]
!291 = metadata !{i32 786453, i32 0, metadata !"", i32 0, i32 0, i64 0, i64 0, i64 0, i32 0, null, metadata !292, i32 0, i32 0} ; [ DW_TAG_subroutine_type ]
!292 = metadata !{null, metadata !293}
!293 = metadata !{i32 786447, i32 0, metadata !"", i32 0, i32 0, i64 64, i64 64, i64 0, i32 64, metadata !125} ; [ DW_TAG_pointer_type ]
!294 = metadata !{i32 786478, i32 0, metadata !125, metadata !"locale", metadata !"locale", metadata !"", metadata !127, i32 127, metadata !295, i1 false, i1 false, i32 0, i32 0, null, i32 256, i1 false, null, null, i32 0, metadata !18, i32 127} ; [ DW_TAG_subprogram ]
!295 = metadata !{i32 786453, i32 0, metadata !"", i32 0, i32 0, i64 0, i64 0, i64 0, i32 0, null, metadata !296, i32 0, i32 0} ; [ DW_TAG_subroutine_type ]
!296 = metadata !{null, metadata !293, metadata !297}
!297 = metadata !{i32 786448, null, null, null, i32 0, i64 0, i64 0, i64 0, i32 0, metadata !298} ; [ DW_TAG_reference_type ]
!298 = metadata !{i32 786470, null, metadata !"", null, i32 0, i64 0, i64 0, i64 0, i32 0, metadata !125} ; [ DW_TAG_const_type ]
!299 = metadata !{i32 786478, i32 0, metadata !125, metadata !"locale", metadata !"locale", metadata !"", metadata !127, i32 138, metadata !300, i1 false, i1 false, i32 0, i32 0, null, i32 384, i1 false, null, null, i32 0, metadata !18, i32 138} ; [ DW_TAG_subprogram ]
!300 = metadata !{i32 786453, i32 0, metadata !"", i32 0, i32 0, i64 0, i64 0, i64 0, i32 0, null, metadata !301, i32 0, i32 0} ; [ DW_TAG_subroutine_type ]
!301 = metadata !{null, metadata !293, metadata !182}
!302 = metadata !{i32 786478, i32 0, metadata !125, metadata !"locale", metadata !"locale", metadata !"", metadata !127, i32 152, metadata !303, i1 false, i1 false, i32 0, i32 0, null, i32 256, i1 false, null, null, i32 0, metadata !18, i32 152} ; [ DW_TAG_subprogram ]
!303 = metadata !{i32 786453, i32 0, metadata !"", i32 0, i32 0, i64 0, i64 0, i64 0, i32 0, null, metadata !304, i32 0, i32 0} ; [ DW_TAG_subroutine_type ]
!304 = metadata !{null, metadata !293, metadata !297, metadata !182, metadata !253}
!305 = metadata !{i32 786478, i32 0, metadata !125, metadata !"locale", metadata !"locale", metadata !"", metadata !127, i32 165, metadata !306, i1 false, i1 false, i32 0, i32 0, null, i32 256, i1 false, null, null, i32 0, metadata !18, i32 165} ; [ DW_TAG_subprogram ]
!306 = metadata !{i32 786453, i32 0, metadata !"", i32 0, i32 0, i64 0, i64 0, i64 0, i32 0, null, metadata !307, i32 0, i32 0} ; [ DW_TAG_subroutine_type ]
!307 = metadata !{null, metadata !293, metadata !297, metadata !297, metadata !253}
!308 = metadata !{i32 786478, i32 0, metadata !125, metadata !"~locale", metadata !"~locale", metadata !"", metadata !127, i32 181, metadata !291, i1 false, i1 false, i32 0, i32 0, null, i32 256, i1 false, null, null, i32 0, metadata !18, i32 181} ; [ DW_TAG_subprogram ]
!309 = metadata !{i32 786478, i32 0, metadata !125, metadata !"operator=", metadata !"operator=", metadata !"_ZNSt6localeaSERKS_", metadata !127, i32 192, metadata !310, i1 false, i1 false, i32 0, i32 0, null, i32 256, i1 false, null, null, i32 0, metadata !18, i32 192} ; [ DW_TAG_subprogram ]
!310 = metadata !{i32 786453, i32 0, metadata !"", i32 0, i32 0, i64 0, i64 0, i64 0, i32 0, null, metadata !311, i32 0, i32 0} ; [ DW_TAG_subroutine_type ]
!311 = metadata !{metadata !297, metadata !293, metadata !297}
!312 = metadata !{i32 786478, i32 0, metadata !125, metadata !"name", metadata !"name", metadata !"_ZNKSt6locale4nameEv", metadata !127, i32 216, metadata !313, i1 false, i1 false, i32 0, i32 0, null, i32 256, i1 false, null, null, i32 0, metadata !18, i32 216} ; [ DW_TAG_subprogram ]
!313 = metadata !{i32 786453, i32 0, metadata !"", i32 0, i32 0, i64 0, i64 0, i64 0, i32 0, null, metadata !314, i32 0, i32 0} ; [ DW_TAG_subroutine_type ]
!314 = metadata !{metadata !315, metadata !806}
!315 = metadata !{i32 786454, metadata !316, metadata !"string", metadata !127, i32 64, i64 0, i64 0, i64 0, i32 0, metadata !318} ; [ DW_TAG_typedef ]
!316 = metadata !{i32 786489, null, metadata !"std", metadata !317, i32 42} ; [ DW_TAG_namespace ]
!317 = metadata !{i32 786473, metadata !"/opt/Xilinx/SDSoC/2014.4/Vivado_HLS/2014.4/lnx64/tools/gcc/lib/gcc/x86_64-unknown-linux-gnu/4.6.3/../../../../include/c++/4.6.3/bits/stringfwd.h", metadata !"/home/trungnguyen/SDSoC/workspace/correlation_ver1/correlation_ver1_linux/SDRelease/_sds/vhls", null} ; [ DW_TAG_file_type ]
!318 = metadata !{i32 786434, metadata !316, metadata !"basic_string<char>", metadata !319, i32 1133, i64 64, i64 64, i32 0, i32 0, null, metadata !320, i32 0, null, metadata !750} ; [ DW_TAG_class_type ]
!319 = metadata !{i32 786473, metadata !"/opt/Xilinx/SDSoC/2014.4/Vivado_HLS/2014.4/lnx64/tools/gcc/lib/gcc/x86_64-unknown-linux-gnu/4.6.3/../../../../include/c++/4.6.3/bits/basic_string.tcc", metadata !"/home/trungnguyen/SDSoC/workspace/correlation_ver1/correlation_ver1_linux/SDRelease/_sds/vhls", null} ; [ DW_TAG_file_type ]
!320 = metadata !{metadata !321, metadata !394, metadata !399, metadata !403, metadata !452, metadata !458, metadata !459, metadata !462, metadata !465, metadata !468, metadata !471, metadata !474, metadata !477, metadata !478, metadata !481, metadata !484, metadata !489, metadata !492, metadata !495, metadata !498, metadata !501, metadata !502, metadata !503, metadata !504, metadata !507, metadata !511, metadata !514, metadata !517, metadata !520, metadata !523, metadata !526, metadata !527, metadata !531, metadata !534, metadata !537, metadata !540, metadata !543, metadata !544, metadata !545, metadata !550, metadata !555, metadata !556, metadata !557, metadata !560, metadata !561, metadata !562, metadata !565, metadata !568, metadata !569, metadata !570, metadata !571, metadata !574, metadata !579, metadata !584, metadata !585, metadata !586, metadata !587, metadata !588, metadata !589, metadata !590, metadata !593, metadata !596, metadata !597, metadata !600, metadata !603, metadata !604, metadata !605, metadata !606, metadata !607, metadata !608, metadata !611, metadata !614, metadata !617, metadata !620, metadata !623, metadata !626, metadata !629, metadata !632, metadata !635, metadata !638, metadata !641, metadata !644, metadata !647, metadata !650, metadata !653, metadata !656, metadata !659, metadata !662, metadata !665, metadata !668, metadata !671, metadata !674, metadata !677, metadata !678, metadata !679, metadata !682, metadata !683, metadata !686, metadata !689, metadata !692, metadata !693, metadata !697, metadata !700, metadata !703, metadata !706, metadata !709, metadata !710, metadata !711, metadata !712, metadata !713, metadata !714, metadata !715, metadata !716, metadata !717, metadata !718, metadata !719, metadata !720, metadata !721, metadata !722, metadata !723, metadata !724, metadata !725, metadata !726, metadata !727, metadata !728, metadata !729, metadata !732, metadata !735, metadata !738, metadata !741, metadata !744, metadata !747}
!321 = metadata !{i32 786445, metadata !318, metadata !"_M_dataplus", metadata !322, i32 283, i64 64, i64 64, i64 0, i32 1, metadata !323} ; [ DW_TAG_member ]
!322 = metadata !{i32 786473, metadata !"/opt/Xilinx/SDSoC/2014.4/Vivado_HLS/2014.4/lnx64/tools/gcc/lib/gcc/x86_64-unknown-linux-gnu/4.6.3/../../../../include/c++/4.6.3/bits/basic_string.h", metadata !"/home/trungnguyen/SDSoC/workspace/correlation_ver1/correlation_ver1_linux/SDRelease/_sds/vhls", null} ; [ DW_TAG_file_type ]
!323 = metadata !{i32 786434, metadata !318, metadata !"_Alloc_hider", metadata !322, i32 266, i64 64, i64 64, i32 0, i32 0, null, metadata !324, i32 0, null, null} ; [ DW_TAG_class_type ]
!324 = metadata !{metadata !325, metadata !389, metadata !390}
!325 = metadata !{i32 786460, metadata !323, null, metadata !322, i32 0, i64 0, i64 0, i64 0, i32 0, metadata !326} ; [ DW_TAG_inheritance ]
!326 = metadata !{i32 786434, metadata !316, metadata !"allocator<char>", metadata !327, i32 143, i64 8, i64 8, i32 0, i32 0, null, metadata !328, i32 0, null, metadata !387} ; [ DW_TAG_class_type ]
!327 = metadata !{i32 786473, metadata !"/opt/Xilinx/SDSoC/2014.4/Vivado_HLS/2014.4/lnx64/tools/gcc/lib/gcc/x86_64-unknown-linux-gnu/4.6.3/../../../../include/c++/4.6.3/bits/allocator.h", metadata !"/home/trungnguyen/SDSoC/workspace/correlation_ver1/correlation_ver1_linux/SDRelease/_sds/vhls", null} ; [ DW_TAG_file_type ]
!328 = metadata !{metadata !329, metadata !377, metadata !381, metadata !386}
!329 = metadata !{i32 786460, metadata !326, null, metadata !327, i32 0, i64 0, i64 0, i64 0, i32 0, metadata !330} ; [ DW_TAG_inheritance ]
!330 = metadata !{i32 786434, metadata !331, metadata !"new_allocator<char>", metadata !332, i32 54, i64 8, i64 8, i32 0, i32 0, null, metadata !333, i32 0, null, metadata !375} ; [ DW_TAG_class_type ]
!331 = metadata !{i32 786489, null, metadata !"__gnu_cxx", metadata !332, i32 38} ; [ DW_TAG_namespace ]
!332 = metadata !{i32 786473, metadata !"/opt/Xilinx/SDSoC/2014.4/Vivado_HLS/2014.4/lnx64/tools/gcc/lib/gcc/x86_64-unknown-linux-gnu/4.6.3/../../../../include/c++/4.6.3/ext/new_allocator.h", metadata !"/home/trungnguyen/SDSoC/workspace/correlation_ver1/correlation_ver1_linux/SDRelease/_sds/vhls", null} ; [ DW_TAG_file_type ]
!333 = metadata !{metadata !334, metadata !338, metadata !343, metadata !344, metadata !351, metadata !357, metadata !363, metadata !366, metadata !369, metadata !372}
!334 = metadata !{i32 786478, i32 0, metadata !330, metadata !"new_allocator", metadata !"new_allocator", metadata !"", metadata !332, i32 69, metadata !335, i1 false, i1 false, i32 0, i32 0, null, i32 256, i1 false, null, null, i32 0, metadata !18, i32 69} ; [ DW_TAG_subprogram ]
!335 = metadata !{i32 786453, i32 0, metadata !"", i32 0, i32 0, i64 0, i64 0, i64 0, i32 0, null, metadata !336, i32 0, i32 0} ; [ DW_TAG_subroutine_type ]
!336 = metadata !{null, metadata !337}
!337 = metadata !{i32 786447, i32 0, metadata !"", i32 0, i32 0, i64 64, i64 64, i64 0, i32 64, metadata !330} ; [ DW_TAG_pointer_type ]
!338 = metadata !{i32 786478, i32 0, metadata !330, metadata !"new_allocator", metadata !"new_allocator", metadata !"", metadata !332, i32 71, metadata !339, i1 false, i1 false, i32 0, i32 0, null, i32 256, i1 false, null, null, i32 0, metadata !18, i32 71} ; [ DW_TAG_subprogram ]
!339 = metadata !{i32 786453, i32 0, metadata !"", i32 0, i32 0, i64 0, i64 0, i64 0, i32 0, null, metadata !340, i32 0, i32 0} ; [ DW_TAG_subroutine_type ]
!340 = metadata !{null, metadata !337, metadata !341}
!341 = metadata !{i32 786448, null, null, null, i32 0, i64 0, i64 0, i64 0, i32 0, metadata !342} ; [ DW_TAG_reference_type ]
!342 = metadata !{i32 786470, null, metadata !"", null, i32 0, i64 0, i64 0, i64 0, i32 0, metadata !330} ; [ DW_TAG_const_type ]
!343 = metadata !{i32 786478, i32 0, metadata !330, metadata !"~new_allocator", metadata !"~new_allocator", metadata !"", metadata !332, i32 76, metadata !335, i1 false, i1 false, i32 0, i32 0, null, i32 256, i1 false, null, null, i32 0, metadata !18, i32 76} ; [ DW_TAG_subprogram ]
!344 = metadata !{i32 786478, i32 0, metadata !330, metadata !"address", metadata !"address", metadata !"_ZNK9__gnu_cxx13new_allocatorIcE7addressERc", metadata !332, i32 79, metadata !345, i1 false, i1 false, i32 0, i32 0, null, i32 256, i1 false, null, null, i32 0, metadata !18, i32 79} ; [ DW_TAG_subprogram ]
!345 = metadata !{i32 786453, i32 0, metadata !"", i32 0, i32 0, i64 0, i64 0, i64 0, i32 0, null, metadata !346, i32 0, i32 0} ; [ DW_TAG_subroutine_type ]
!346 = metadata !{metadata !347, metadata !348, metadata !349}
!347 = metadata !{i32 786454, metadata !330, metadata !"pointer", metadata !332, i32 59, i64 0, i64 0, i64 0, i32 0, metadata !223} ; [ DW_TAG_typedef ]
!348 = metadata !{i32 786447, i32 0, metadata !"", i32 0, i32 0, i64 64, i64 64, i64 0, i32 64, metadata !342} ; [ DW_TAG_pointer_type ]
!349 = metadata !{i32 786454, metadata !330, metadata !"reference", metadata !332, i32 61, i64 0, i64 0, i64 0, i32 0, metadata !350} ; [ DW_TAG_typedef ]
!350 = metadata !{i32 786448, null, null, null, i32 0, i64 0, i64 0, i64 0, i32 0, metadata !184} ; [ DW_TAG_reference_type ]
!351 = metadata !{i32 786478, i32 0, metadata !330, metadata !"address", metadata !"address", metadata !"_ZNK9__gnu_cxx13new_allocatorIcE7addressERKc", metadata !332, i32 82, metadata !352, i1 false, i1 false, i32 0, i32 0, null, i32 256, i1 false, null, null, i32 0, metadata !18, i32 82} ; [ DW_TAG_subprogram ]
!352 = metadata !{i32 786453, i32 0, metadata !"", i32 0, i32 0, i64 0, i64 0, i64 0, i32 0, null, metadata !353, i32 0, i32 0} ; [ DW_TAG_subroutine_type ]
!353 = metadata !{metadata !354, metadata !348, metadata !355}
!354 = metadata !{i32 786454, metadata !330, metadata !"const_pointer", metadata !332, i32 60, i64 0, i64 0, i64 0, i32 0, metadata !182} ; [ DW_TAG_typedef ]
!355 = metadata !{i32 786454, metadata !330, metadata !"const_reference", metadata !332, i32 62, i64 0, i64 0, i64 0, i32 0, metadata !356} ; [ DW_TAG_typedef ]
!356 = metadata !{i32 786448, null, null, null, i32 0, i64 0, i64 0, i64 0, i32 0, metadata !183} ; [ DW_TAG_reference_type ]
!357 = metadata !{i32 786478, i32 0, metadata !330, metadata !"allocate", metadata !"allocate", metadata !"_ZN9__gnu_cxx13new_allocatorIcE8allocateEmPKv", metadata !332, i32 87, metadata !358, i1 false, i1 false, i32 0, i32 0, null, i32 256, i1 false, null, null, i32 0, metadata !18, i32 87} ; [ DW_TAG_subprogram ]
!358 = metadata !{i32 786453, i32 0, metadata !"", i32 0, i32 0, i64 0, i64 0, i64 0, i32 0, null, metadata !359, i32 0, i32 0} ; [ DW_TAG_subroutine_type ]
!359 = metadata !{metadata !347, metadata !337, metadata !360, metadata !361}
!360 = metadata !{i32 786454, null, metadata !"size_type", metadata !332, i32 57, i64 0, i64 0, i64 0, i32 0, metadata !149} ; [ DW_TAG_typedef ]
!361 = metadata !{i32 786447, null, metadata !"", null, i32 0, i64 64, i64 64, i64 0, i32 0, metadata !362} ; [ DW_TAG_pointer_type ]
!362 = metadata !{i32 786470, null, metadata !"", null, i32 0, i64 0, i64 0, i64 0, i32 0, null} ; [ DW_TAG_const_type ]
!363 = metadata !{i32 786478, i32 0, metadata !330, metadata !"deallocate", metadata !"deallocate", metadata !"_ZN9__gnu_cxx13new_allocatorIcE10deallocateEPcm", metadata !332, i32 97, metadata !364, i1 false, i1 false, i32 0, i32 0, null, i32 256, i1 false, null, null, i32 0, metadata !18, i32 97} ; [ DW_TAG_subprogram ]
!364 = metadata !{i32 786453, i32 0, metadata !"", i32 0, i32 0, i64 0, i64 0, i64 0, i32 0, null, metadata !365, i32 0, i32 0} ; [ DW_TAG_subroutine_type ]
!365 = metadata !{null, metadata !337, metadata !347, metadata !360}
!366 = metadata !{i32 786478, i32 0, metadata !330, metadata !"max_size", metadata !"max_size", metadata !"_ZNK9__gnu_cxx13new_allocatorIcE8max_sizeEv", metadata !332, i32 101, metadata !367, i1 false, i1 false, i32 0, i32 0, null, i32 256, i1 false, null, null, i32 0, metadata !18, i32 101} ; [ DW_TAG_subprogram ]
!367 = metadata !{i32 786453, i32 0, metadata !"", i32 0, i32 0, i64 0, i64 0, i64 0, i32 0, null, metadata !368, i32 0, i32 0} ; [ DW_TAG_subroutine_type ]
!368 = metadata !{metadata !360, metadata !348}
!369 = metadata !{i32 786478, i32 0, metadata !330, metadata !"construct", metadata !"construct", metadata !"_ZN9__gnu_cxx13new_allocatorIcE9constructEPcRKc", metadata !332, i32 107, metadata !370, i1 false, i1 false, i32 0, i32 0, null, i32 256, i1 false, null, null, i32 0, metadata !18, i32 107} ; [ DW_TAG_subprogram ]
!370 = metadata !{i32 786453, i32 0, metadata !"", i32 0, i32 0, i64 0, i64 0, i64 0, i32 0, null, metadata !371, i32 0, i32 0} ; [ DW_TAG_subroutine_type ]
!371 = metadata !{null, metadata !337, metadata !347, metadata !356}
!372 = metadata !{i32 786478, i32 0, metadata !330, metadata !"destroy", metadata !"destroy", metadata !"_ZN9__gnu_cxx13new_allocatorIcE7destroyEPc", metadata !332, i32 118, metadata !373, i1 false, i1 false, i32 0, i32 0, null, i32 256, i1 false, null, null, i32 0, metadata !18, i32 118} ; [ DW_TAG_subprogram ]
!373 = metadata !{i32 786453, i32 0, metadata !"", i32 0, i32 0, i64 0, i64 0, i64 0, i32 0, null, metadata !374, i32 0, i32 0} ; [ DW_TAG_subroutine_type ]
!374 = metadata !{null, metadata !337, metadata !347}
!375 = metadata !{metadata !376}
!376 = metadata !{i32 786479, null, metadata !"_Tp", metadata !184, null, i32 0, i32 0} ; [ DW_TAG_template_type_parameter ]
!377 = metadata !{i32 786478, i32 0, metadata !326, metadata !"allocator", metadata !"allocator", metadata !"", metadata !327, i32 107, metadata !378, i1 false, i1 false, i32 0, i32 0, null, i32 256, i1 false, null, null, i32 0, metadata !18, i32 107} ; [ DW_TAG_subprogram ]
!378 = metadata !{i32 786453, i32 0, metadata !"", i32 0, i32 0, i64 0, i64 0, i64 0, i32 0, null, metadata !379, i32 0, i32 0} ; [ DW_TAG_subroutine_type ]
!379 = metadata !{null, metadata !380}
!380 = metadata !{i32 786447, i32 0, metadata !"", i32 0, i32 0, i64 64, i64 64, i64 0, i32 64, metadata !326} ; [ DW_TAG_pointer_type ]
!381 = metadata !{i32 786478, i32 0, metadata !326, metadata !"allocator", metadata !"allocator", metadata !"", metadata !327, i32 109, metadata !382, i1 false, i1 false, i32 0, i32 0, null, i32 256, i1 false, null, null, i32 0, metadata !18, i32 109} ; [ DW_TAG_subprogram ]
!382 = metadata !{i32 786453, i32 0, metadata !"", i32 0, i32 0, i64 0, i64 0, i64 0, i32 0, null, metadata !383, i32 0, i32 0} ; [ DW_TAG_subroutine_type ]
!383 = metadata !{null, metadata !380, metadata !384}
!384 = metadata !{i32 786448, null, null, null, i32 0, i64 0, i64 0, i64 0, i32 0, metadata !385} ; [ DW_TAG_reference_type ]
!385 = metadata !{i32 786470, null, metadata !"", null, i32 0, i64 0, i64 0, i64 0, i32 0, metadata !326} ; [ DW_TAG_const_type ]
!386 = metadata !{i32 786478, i32 0, metadata !326, metadata !"~allocator", metadata !"~allocator", metadata !"", metadata !327, i32 115, metadata !378, i1 false, i1 false, i32 0, i32 0, null, i32 256, i1 false, null, null, i32 0, metadata !18, i32 115} ; [ DW_TAG_subprogram ]
!387 = metadata !{metadata !388}
!388 = metadata !{i32 786479, null, metadata !"_Alloc", metadata !184, null, i32 0, i32 0} ; [ DW_TAG_template_type_parameter ]
!389 = metadata !{i32 786445, metadata !323, metadata !"_M_p", metadata !322, i32 271, i64 64, i64 64, i64 0, i32 0, metadata !223} ; [ DW_TAG_member ]
!390 = metadata !{i32 786478, i32 0, metadata !323, metadata !"_Alloc_hider", metadata !"_Alloc_hider", metadata !"", metadata !322, i32 268, metadata !391, i1 false, i1 false, i32 0, i32 0, null, i32 256, i1 false, null, null, i32 0, metadata !18, i32 268} ; [ DW_TAG_subprogram ]
!391 = metadata !{i32 786453, i32 0, metadata !"", i32 0, i32 0, i64 0, i64 0, i64 0, i32 0, null, metadata !392, i32 0, i32 0} ; [ DW_TAG_subroutine_type ]
!392 = metadata !{null, metadata !393, metadata !223, metadata !384}
!393 = metadata !{i32 786447, i32 0, metadata !"", i32 0, i32 0, i64 64, i64 64, i64 0, i32 64, metadata !323} ; [ DW_TAG_pointer_type ]
!394 = metadata !{i32 786478, i32 0, metadata !318, metadata !"_M_data", metadata !"_M_data", metadata !"_ZNKSs7_M_dataEv", metadata !322, i32 286, metadata !395, i1 false, i1 false, i32 0, i32 0, null, i32 257, i1 false, null, null, i32 0, metadata !18, i32 286} ; [ DW_TAG_subprogram ]
!395 = metadata !{i32 786453, i32 0, metadata !"", i32 0, i32 0, i64 0, i64 0, i64 0, i32 0, null, metadata !396, i32 0, i32 0} ; [ DW_TAG_subroutine_type ]
!396 = metadata !{metadata !223, metadata !397}
!397 = metadata !{i32 786447, i32 0, metadata !"", i32 0, i32 0, i64 64, i64 64, i64 0, i32 64, metadata !398} ; [ DW_TAG_pointer_type ]
!398 = metadata !{i32 786470, null, metadata !"", null, i32 0, i64 0, i64 0, i64 0, i32 0, metadata !318} ; [ DW_TAG_const_type ]
!399 = metadata !{i32 786478, i32 0, metadata !318, metadata !"_M_data", metadata !"_M_data", metadata !"_ZNSs7_M_dataEPc", metadata !322, i32 290, metadata !400, i1 false, i1 false, i32 0, i32 0, null, i32 257, i1 false, null, null, i32 0, metadata !18, i32 290} ; [ DW_TAG_subprogram ]
!400 = metadata !{i32 786453, i32 0, metadata !"", i32 0, i32 0, i64 0, i64 0, i64 0, i32 0, null, metadata !401, i32 0, i32 0} ; [ DW_TAG_subroutine_type ]
!401 = metadata !{metadata !223, metadata !402, metadata !223}
!402 = metadata !{i32 786447, i32 0, metadata !"", i32 0, i32 0, i64 64, i64 64, i64 0, i32 64, metadata !318} ; [ DW_TAG_pointer_type ]
!403 = metadata !{i32 786478, i32 0, metadata !318, metadata !"_M_rep", metadata !"_M_rep", metadata !"_ZNKSs6_M_repEv", metadata !322, i32 294, metadata !404, i1 false, i1 false, i32 0, i32 0, null, i32 257, i1 false, null, null, i32 0, metadata !18, i32 294} ; [ DW_TAG_subprogram ]
!404 = metadata !{i32 786453, i32 0, metadata !"", i32 0, i32 0, i64 0, i64 0, i64 0, i32 0, null, metadata !405, i32 0, i32 0} ; [ DW_TAG_subroutine_type ]
!405 = metadata !{metadata !406, metadata !397}
!406 = metadata !{i32 786447, null, metadata !"", null, i32 0, i64 64, i64 64, i64 0, i32 0, metadata !407} ; [ DW_TAG_pointer_type ]
!407 = metadata !{i32 786434, metadata !318, metadata !"_Rep", metadata !322, i32 149, i64 192, i64 64, i32 0, i32 0, null, metadata !408, i32 0, null, null} ; [ DW_TAG_class_type ]
!408 = metadata !{metadata !409, metadata !417, metadata !421, metadata !426, metadata !427, metadata !431, metadata !432, metadata !435, metadata !438, metadata !441, metadata !444, metadata !447, metadata !448, metadata !449}
!409 = metadata !{i32 786460, metadata !407, null, metadata !322, i32 0, i64 0, i64 0, i64 0, i32 0, metadata !410} ; [ DW_TAG_inheritance ]
!410 = metadata !{i32 786434, metadata !318, metadata !"_Rep_base", metadata !322, i32 142, i64 192, i64 64, i32 0, i32 0, null, metadata !411, i32 0, null, null} ; [ DW_TAG_class_type ]
!411 = metadata !{metadata !412, metadata !415, metadata !416}
!412 = metadata !{i32 786445, metadata !410, metadata !"_M_length", metadata !322, i32 144, i64 64, i64 64, i64 0, i32 0, metadata !413} ; [ DW_TAG_member ]
!413 = metadata !{i32 786454, metadata !318, metadata !"size_type", metadata !322, i32 115, i64 0, i64 0, i64 0, i32 0, metadata !414} ; [ DW_TAG_typedef ]
!414 = metadata !{i32 786454, metadata !326, metadata !"size_type", metadata !322, i32 95, i64 0, i64 0, i64 0, i32 0, metadata !149} ; [ DW_TAG_typedef ]
!415 = metadata !{i32 786445, metadata !410, metadata !"_M_capacity", metadata !322, i32 145, i64 64, i64 64, i64 64, i32 0, metadata !413} ; [ DW_TAG_member ]
!416 = metadata !{i32 786445, metadata !410, metadata !"_M_refcount", metadata !322, i32 146, i64 32, i64 32, i64 128, i32 0, metadata !96} ; [ DW_TAG_member ]
!417 = metadata !{i32 786478, i32 0, metadata !407, metadata !"_S_empty_rep", metadata !"_S_empty_rep", metadata !"_ZNSs4_Rep12_S_empty_repEv", metadata !322, i32 175, metadata !418, i1 false, i1 false, i32 0, i32 0, null, i32 256, i1 false, null, null, i32 0, metadata !18, i32 175} ; [ DW_TAG_subprogram ]
!418 = metadata !{i32 786453, i32 0, metadata !"", i32 0, i32 0, i64 0, i64 0, i64 0, i32 0, null, metadata !419, i32 0, i32 0} ; [ DW_TAG_subroutine_type ]
!419 = metadata !{metadata !420}
!420 = metadata !{i32 786448, null, null, null, i32 0, i64 0, i64 0, i64 0, i32 0, metadata !407} ; [ DW_TAG_reference_type ]
!421 = metadata !{i32 786478, i32 0, metadata !407, metadata !"_M_is_leaked", metadata !"_M_is_leaked", metadata !"_ZNKSs4_Rep12_M_is_leakedEv", metadata !322, i32 185, metadata !422, i1 false, i1 false, i32 0, i32 0, null, i32 256, i1 false, null, null, i32 0, metadata !18, i32 185} ; [ DW_TAG_subprogram ]
!422 = metadata !{i32 786453, i32 0, metadata !"", i32 0, i32 0, i64 0, i64 0, i64 0, i32 0, null, metadata !423, i32 0, i32 0} ; [ DW_TAG_subroutine_type ]
!423 = metadata !{metadata !248, metadata !424}
!424 = metadata !{i32 786447, i32 0, metadata !"", i32 0, i32 0, i64 64, i64 64, i64 0, i32 64, metadata !425} ; [ DW_TAG_pointer_type ]
!425 = metadata !{i32 786470, null, metadata !"", null, i32 0, i64 0, i64 0, i64 0, i32 0, metadata !407} ; [ DW_TAG_const_type ]
!426 = metadata !{i32 786478, i32 0, metadata !407, metadata !"_M_is_shared", metadata !"_M_is_shared", metadata !"_ZNKSs4_Rep12_M_is_sharedEv", metadata !322, i32 189, metadata !422, i1 false, i1 false, i32 0, i32 0, null, i32 256, i1 false, null, null, i32 0, metadata !18, i32 189} ; [ DW_TAG_subprogram ]
!427 = metadata !{i32 786478, i32 0, metadata !407, metadata !"_M_set_leaked", metadata !"_M_set_leaked", metadata !"_ZNSs4_Rep13_M_set_leakedEv", metadata !322, i32 193, metadata !428, i1 false, i1 false, i32 0, i32 0, null, i32 256, i1 false, null, null, i32 0, metadata !18, i32 193} ; [ DW_TAG_subprogram ]
!428 = metadata !{i32 786453, i32 0, metadata !"", i32 0, i32 0, i64 0, i64 0, i64 0, i32 0, null, metadata !429, i32 0, i32 0} ; [ DW_TAG_subroutine_type ]
!429 = metadata !{null, metadata !430}
!430 = metadata !{i32 786447, i32 0, metadata !"", i32 0, i32 0, i64 64, i64 64, i64 0, i32 64, metadata !407} ; [ DW_TAG_pointer_type ]
!431 = metadata !{i32 786478, i32 0, metadata !407, metadata !"_M_set_sharable", metadata !"_M_set_sharable", metadata !"_ZNSs4_Rep15_M_set_sharableEv", metadata !322, i32 197, metadata !428, i1 false, i1 false, i32 0, i32 0, null, i32 256, i1 false, null, null, i32 0, metadata !18, i32 197} ; [ DW_TAG_subprogram ]
!432 = metadata !{i32 786478, i32 0, metadata !407, metadata !"_M_set_length_and_sharable", metadata !"_M_set_length_and_sharable", metadata !"_ZNSs4_Rep26_M_set_length_and_sharableEm", metadata !322, i32 201, metadata !433, i1 false, i1 false, i32 0, i32 0, null, i32 256, i1 false, null, null, i32 0, metadata !18, i32 201} ; [ DW_TAG_subprogram ]
!433 = metadata !{i32 786453, i32 0, metadata !"", i32 0, i32 0, i64 0, i64 0, i64 0, i32 0, null, metadata !434, i32 0, i32 0} ; [ DW_TAG_subroutine_type ]
!434 = metadata !{null, metadata !430, metadata !413}
!435 = metadata !{i32 786478, i32 0, metadata !407, metadata !"_M_refdata", metadata !"_M_refdata", metadata !"_ZNSs4_Rep10_M_refdataEv", metadata !322, i32 216, metadata !436, i1 false, i1 false, i32 0, i32 0, null, i32 256, i1 false, null, null, i32 0, metadata !18, i32 216} ; [ DW_TAG_subprogram ]
!436 = metadata !{i32 786453, i32 0, metadata !"", i32 0, i32 0, i64 0, i64 0, i64 0, i32 0, null, metadata !437, i32 0, i32 0} ; [ DW_TAG_subroutine_type ]
!437 = metadata !{metadata !223, metadata !430}
!438 = metadata !{i32 786478, i32 0, metadata !407, metadata !"_M_grab", metadata !"_M_grab", metadata !"_ZNSs4_Rep7_M_grabERKSaIcES2_", metadata !322, i32 220, metadata !439, i1 false, i1 false, i32 0, i32 0, null, i32 256, i1 false, null, null, i32 0, metadata !18, i32 220} ; [ DW_TAG_subprogram ]
!439 = metadata !{i32 786453, i32 0, metadata !"", i32 0, i32 0, i64 0, i64 0, i64 0, i32 0, null, metadata !440, i32 0, i32 0} ; [ DW_TAG_subroutine_type ]
!440 = metadata !{metadata !223, metadata !430, metadata !384, metadata !384}
!441 = metadata !{i32 786478, i32 0, metadata !407, metadata !"_S_create", metadata !"_S_create", metadata !"_ZNSs4_Rep9_S_createEmmRKSaIcE", metadata !322, i32 228, metadata !442, i1 false, i1 false, i32 0, i32 0, null, i32 256, i1 false, null, null, i32 0, metadata !18, i32 228} ; [ DW_TAG_subprogram ]
!442 = metadata !{i32 786453, i32 0, metadata !"", i32 0, i32 0, i64 0, i64 0, i64 0, i32 0, null, metadata !443, i32 0, i32 0} ; [ DW_TAG_subroutine_type ]
!443 = metadata !{metadata !406, metadata !413, metadata !413, metadata !384}
!444 = metadata !{i32 786478, i32 0, metadata !407, metadata !"_M_dispose", metadata !"_M_dispose", metadata !"_ZNSs4_Rep10_M_disposeERKSaIcE", metadata !322, i32 231, metadata !445, i1 false, i1 false, i32 0, i32 0, null, i32 256, i1 false, null, null, i32 0, metadata !18, i32 231} ; [ DW_TAG_subprogram ]
!445 = metadata !{i32 786453, i32 0, metadata !"", i32 0, i32 0, i64 0, i64 0, i64 0, i32 0, null, metadata !446, i32 0, i32 0} ; [ DW_TAG_subroutine_type ]
!446 = metadata !{null, metadata !430, metadata !384}
!447 = metadata !{i32 786478, i32 0, metadata !407, metadata !"_M_destroy", metadata !"_M_destroy", metadata !"_ZNSs4_Rep10_M_destroyERKSaIcE", metadata !322, i32 249, metadata !445, i1 false, i1 false, i32 0, i32 0, null, i32 256, i1 false, null, null, i32 0, metadata !18, i32 249} ; [ DW_TAG_subprogram ]
!448 = metadata !{i32 786478, i32 0, metadata !407, metadata !"_M_refcopy", metadata !"_M_refcopy", metadata !"_ZNSs4_Rep10_M_refcopyEv", metadata !322, i32 252, metadata !436, i1 false, i1 false, i32 0, i32 0, null, i32 256, i1 false, null, null, i32 0, metadata !18, i32 252} ; [ DW_TAG_subprogram ]
!449 = metadata !{i32 786478, i32 0, metadata !407, metadata !"_M_clone", metadata !"_M_clone", metadata !"_ZNSs4_Rep8_M_cloneERKSaIcEm", metadata !322, i32 262, metadata !450, i1 false, i1 false, i32 0, i32 0, null, i32 256, i1 false, null, null, i32 0, metadata !18, i32 262} ; [ DW_TAG_subprogram ]
!450 = metadata !{i32 786453, i32 0, metadata !"", i32 0, i32 0, i64 0, i64 0, i64 0, i32 0, null, metadata !451, i32 0, i32 0} ; [ DW_TAG_subroutine_type ]
!451 = metadata !{metadata !223, metadata !430, metadata !384, metadata !413}
!452 = metadata !{i32 786478, i32 0, metadata !318, metadata !"_M_ibegin", metadata !"_M_ibegin", metadata !"_ZNKSs9_M_ibeginEv", metadata !322, i32 300, metadata !453, i1 false, i1 false, i32 0, i32 0, null, i32 257, i1 false, null, null, i32 0, metadata !18, i32 300} ; [ DW_TAG_subprogram ]
!453 = metadata !{i32 786453, i32 0, metadata !"", i32 0, i32 0, i64 0, i64 0, i64 0, i32 0, null, metadata !454, i32 0, i32 0} ; [ DW_TAG_subroutine_type ]
!454 = metadata !{metadata !455, metadata !397}
!455 = metadata !{i32 786454, metadata !318, metadata !"iterator", metadata !319, i32 121, i64 0, i64 0, i64 0, i32 0, metadata !456} ; [ DW_TAG_typedef ]
!456 = metadata !{i32 786434, null, metadata !"__normal_iterator<char *, std::basic_string<char> >", metadata !457, i32 702, i32 0, i32 0, i32 0, i32 4, null, null, i32 0} ; [ DW_TAG_class_type ]
!457 = metadata !{i32 786473, metadata !"/opt/Xilinx/SDSoC/2014.4/Vivado_HLS/2014.4/lnx64/tools/gcc/lib/gcc/x86_64-unknown-linux-gnu/4.6.3/../../../../include/c++/4.6.3/bits/stl_iterator.h", metadata !"/home/trungnguyen/SDSoC/workspace/correlation_ver1/correlation_ver1_linux/SDRelease/_sds/vhls", null} ; [ DW_TAG_file_type ]
!458 = metadata !{i32 786478, i32 0, metadata !318, metadata !"_M_iend", metadata !"_M_iend", metadata !"_ZNKSs7_M_iendEv", metadata !322, i32 304, metadata !453, i1 false, i1 false, i32 0, i32 0, null, i32 257, i1 false, null, null, i32 0, metadata !18, i32 304} ; [ DW_TAG_subprogram ]
!459 = metadata !{i32 786478, i32 0, metadata !318, metadata !"_M_leak", metadata !"_M_leak", metadata !"_ZNSs7_M_leakEv", metadata !322, i32 308, metadata !460, i1 false, i1 false, i32 0, i32 0, null, i32 257, i1 false, null, null, i32 0, metadata !18, i32 308} ; [ DW_TAG_subprogram ]
!460 = metadata !{i32 786453, i32 0, metadata !"", i32 0, i32 0, i64 0, i64 0, i64 0, i32 0, null, metadata !461, i32 0, i32 0} ; [ DW_TAG_subroutine_type ]
!461 = metadata !{null, metadata !402}
!462 = metadata !{i32 786478, i32 0, metadata !318, metadata !"_M_check", metadata !"_M_check", metadata !"_ZNKSs8_M_checkEmPKc", metadata !322, i32 315, metadata !463, i1 false, i1 false, i32 0, i32 0, null, i32 257, i1 false, null, null, i32 0, metadata !18, i32 315} ; [ DW_TAG_subprogram ]
!463 = metadata !{i32 786453, i32 0, metadata !"", i32 0, i32 0, i64 0, i64 0, i64 0, i32 0, null, metadata !464, i32 0, i32 0} ; [ DW_TAG_subroutine_type ]
!464 = metadata !{metadata !413, metadata !397, metadata !413, metadata !182}
!465 = metadata !{i32 786478, i32 0, metadata !318, metadata !"_M_check_length", metadata !"_M_check_length", metadata !"_ZNKSs15_M_check_lengthEmmPKc", metadata !322, i32 323, metadata !466, i1 false, i1 false, i32 0, i32 0, null, i32 257, i1 false, null, null, i32 0, metadata !18, i32 323} ; [ DW_TAG_subprogram ]
!466 = metadata !{i32 786453, i32 0, metadata !"", i32 0, i32 0, i64 0, i64 0, i64 0, i32 0, null, metadata !467, i32 0, i32 0} ; [ DW_TAG_subroutine_type ]
!467 = metadata !{null, metadata !397, metadata !413, metadata !413, metadata !182}
!468 = metadata !{i32 786478, i32 0, metadata !318, metadata !"_M_limit", metadata !"_M_limit", metadata !"_ZNKSs8_M_limitEmm", metadata !322, i32 331, metadata !469, i1 false, i1 false, i32 0, i32 0, null, i32 257, i1 false, null, null, i32 0, metadata !18, i32 331} ; [ DW_TAG_subprogram ]
!469 = metadata !{i32 786453, i32 0, metadata !"", i32 0, i32 0, i64 0, i64 0, i64 0, i32 0, null, metadata !470, i32 0, i32 0} ; [ DW_TAG_subroutine_type ]
!470 = metadata !{metadata !413, metadata !397, metadata !413, metadata !413}
!471 = metadata !{i32 786478, i32 0, metadata !318, metadata !"_M_disjunct", metadata !"_M_disjunct", metadata !"_ZNKSs11_M_disjunctEPKc", metadata !322, i32 339, metadata !472, i1 false, i1 false, i32 0, i32 0, null, i32 257, i1 false, null, null, i32 0, metadata !18, i32 339} ; [ DW_TAG_subprogram ]
!472 = metadata !{i32 786453, i32 0, metadata !"", i32 0, i32 0, i64 0, i64 0, i64 0, i32 0, null, metadata !473, i32 0, i32 0} ; [ DW_TAG_subroutine_type ]
!473 = metadata !{metadata !248, metadata !397, metadata !182}
!474 = metadata !{i32 786478, i32 0, metadata !318, metadata !"_M_copy", metadata !"_M_copy", metadata !"_ZNSs7_M_copyEPcPKcm", metadata !322, i32 348, metadata !475, i1 false, i1 false, i32 0, i32 0, null, i32 257, i1 false, null, null, i32 0, metadata !18, i32 348} ; [ DW_TAG_subprogram ]
!475 = metadata !{i32 786453, i32 0, metadata !"", i32 0, i32 0, i64 0, i64 0, i64 0, i32 0, null, metadata !476, i32 0, i32 0} ; [ DW_TAG_subroutine_type ]
!476 = metadata !{null, metadata !223, metadata !182, metadata !413}
!477 = metadata !{i32 786478, i32 0, metadata !318, metadata !"_M_move", metadata !"_M_move", metadata !"_ZNSs7_M_moveEPcPKcm", metadata !322, i32 357, metadata !475, i1 false, i1 false, i32 0, i32 0, null, i32 257, i1 false, null, null, i32 0, metadata !18, i32 357} ; [ DW_TAG_subprogram ]
!478 = metadata !{i32 786478, i32 0, metadata !318, metadata !"_M_assign", metadata !"_M_assign", metadata !"_ZNSs9_M_assignEPcmc", metadata !322, i32 366, metadata !479, i1 false, i1 false, i32 0, i32 0, null, i32 257, i1 false, null, null, i32 0, metadata !18, i32 366} ; [ DW_TAG_subprogram ]
!479 = metadata !{i32 786453, i32 0, metadata !"", i32 0, i32 0, i64 0, i64 0, i64 0, i32 0, null, metadata !480, i32 0, i32 0} ; [ DW_TAG_subroutine_type ]
!480 = metadata !{null, metadata !223, metadata !413, metadata !184}
!481 = metadata !{i32 786478, i32 0, metadata !318, metadata !"_S_copy_chars", metadata !"_S_copy_chars", metadata !"_ZNSs13_S_copy_charsEPcN9__gnu_cxx17__normal_iteratorIS_SsEES2_", metadata !322, i32 385, metadata !482, i1 false, i1 false, i32 0, i32 0, null, i32 257, i1 false, null, null, i32 0, metadata !18, i32 385} ; [ DW_TAG_subprogram ]
!482 = metadata !{i32 786453, i32 0, metadata !"", i32 0, i32 0, i64 0, i64 0, i64 0, i32 0, null, metadata !483, i32 0, i32 0} ; [ DW_TAG_subroutine_type ]
!483 = metadata !{null, metadata !223, metadata !455, metadata !455}
!484 = metadata !{i32 786478, i32 0, metadata !318, metadata !"_S_copy_chars", metadata !"_S_copy_chars", metadata !"_ZNSs13_S_copy_charsEPcN9__gnu_cxx17__normal_iteratorIPKcSsEES4_", metadata !322, i32 389, metadata !485, i1 false, i1 false, i32 0, i32 0, null, i32 257, i1 false, null, null, i32 0, metadata !18, i32 389} ; [ DW_TAG_subprogram ]
!485 = metadata !{i32 786453, i32 0, metadata !"", i32 0, i32 0, i64 0, i64 0, i64 0, i32 0, null, metadata !486, i32 0, i32 0} ; [ DW_TAG_subroutine_type ]
!486 = metadata !{null, metadata !223, metadata !487, metadata !487}
!487 = metadata !{i32 786454, metadata !318, metadata !"const_iterator", metadata !319, i32 123, i64 0, i64 0, i64 0, i32 0, metadata !488} ; [ DW_TAG_typedef ]
!488 = metadata !{i32 786434, null, metadata !"__normal_iterator<const char *, std::basic_string<char> >", metadata !457, i32 702, i32 0, i32 0, i32 0, i32 4, null, null, i32 0} ; [ DW_TAG_class_type ]
!489 = metadata !{i32 786478, i32 0, metadata !318, metadata !"_S_copy_chars", metadata !"_S_copy_chars", metadata !"_ZNSs13_S_copy_charsEPcS_S_", metadata !322, i32 393, metadata !490, i1 false, i1 false, i32 0, i32 0, null, i32 257, i1 false, null, null, i32 0, metadata !18, i32 393} ; [ DW_TAG_subprogram ]
!490 = metadata !{i32 786453, i32 0, metadata !"", i32 0, i32 0, i64 0, i64 0, i64 0, i32 0, null, metadata !491, i32 0, i32 0} ; [ DW_TAG_subroutine_type ]
!491 = metadata !{null, metadata !223, metadata !223, metadata !223}
!492 = metadata !{i32 786478, i32 0, metadata !318, metadata !"_S_copy_chars", metadata !"_S_copy_chars", metadata !"_ZNSs13_S_copy_charsEPcPKcS1_", metadata !322, i32 397, metadata !493, i1 false, i1 false, i32 0, i32 0, null, i32 257, i1 false, null, null, i32 0, metadata !18, i32 397} ; [ DW_TAG_subprogram ]
!493 = metadata !{i32 786453, i32 0, metadata !"", i32 0, i32 0, i64 0, i64 0, i64 0, i32 0, null, metadata !494, i32 0, i32 0} ; [ DW_TAG_subroutine_type ]
!494 = metadata !{null, metadata !223, metadata !182, metadata !182}
!495 = metadata !{i32 786478, i32 0, metadata !318, metadata !"_S_compare", metadata !"_S_compare", metadata !"_ZNSs10_S_compareEmm", metadata !322, i32 401, metadata !496, i1 false, i1 false, i32 0, i32 0, null, i32 257, i1 false, null, null, i32 0, metadata !18, i32 401} ; [ DW_TAG_subprogram ]
!496 = metadata !{i32 786453, i32 0, metadata !"", i32 0, i32 0, i64 0, i64 0, i64 0, i32 0, null, metadata !497, i32 0, i32 0} ; [ DW_TAG_subroutine_type ]
!497 = metadata !{metadata !15, metadata !413, metadata !413}
!498 = metadata !{i32 786478, i32 0, metadata !318, metadata !"_M_mutate", metadata !"_M_mutate", metadata !"_ZNSs9_M_mutateEmmm", metadata !322, i32 414, metadata !499, i1 false, i1 false, i32 0, i32 0, null, i32 257, i1 false, null, null, i32 0, metadata !18, i32 414} ; [ DW_TAG_subprogram ]
!499 = metadata !{i32 786453, i32 0, metadata !"", i32 0, i32 0, i64 0, i64 0, i64 0, i32 0, null, metadata !500, i32 0, i32 0} ; [ DW_TAG_subroutine_type ]
!500 = metadata !{null, metadata !402, metadata !413, metadata !413, metadata !413}
!501 = metadata !{i32 786478, i32 0, metadata !318, metadata !"_M_leak_hard", metadata !"_M_leak_hard", metadata !"_ZNSs12_M_leak_hardEv", metadata !322, i32 417, metadata !460, i1 false, i1 false, i32 0, i32 0, null, i32 257, i1 false, null, null, i32 0, metadata !18, i32 417} ; [ DW_TAG_subprogram ]
!502 = metadata !{i32 786478, i32 0, metadata !318, metadata !"_S_empty_rep", metadata !"_S_empty_rep", metadata !"_ZNSs12_S_empty_repEv", metadata !322, i32 420, metadata !418, i1 false, i1 false, i32 0, i32 0, null, i32 257, i1 false, null, null, i32 0, metadata !18, i32 420} ; [ DW_TAG_subprogram ]
!503 = metadata !{i32 786478, i32 0, metadata !318, metadata !"basic_string", metadata !"basic_string", metadata !"", metadata !322, i32 431, metadata !460, i1 false, i1 false, i32 0, i32 0, null, i32 256, i1 false, null, null, i32 0, metadata !18, i32 431} ; [ DW_TAG_subprogram ]
!504 = metadata !{i32 786478, i32 0, metadata !318, metadata !"basic_string", metadata !"basic_string", metadata !"", metadata !322, i32 442, metadata !505, i1 false, i1 false, i32 0, i32 0, null, i32 384, i1 false, null, null, i32 0, metadata !18, i32 442} ; [ DW_TAG_subprogram ]
!505 = metadata !{i32 786453, i32 0, metadata !"", i32 0, i32 0, i64 0, i64 0, i64 0, i32 0, null, metadata !506, i32 0, i32 0} ; [ DW_TAG_subroutine_type ]
!506 = metadata !{null, metadata !402, metadata !384}
!507 = metadata !{i32 786478, i32 0, metadata !318, metadata !"basic_string", metadata !"basic_string", metadata !"", metadata !322, i32 449, metadata !508, i1 false, i1 false, i32 0, i32 0, null, i32 256, i1 false, null, null, i32 0, metadata !18, i32 449} ; [ DW_TAG_subprogram ]
!508 = metadata !{i32 786453, i32 0, metadata !"", i32 0, i32 0, i64 0, i64 0, i64 0, i32 0, null, metadata !509, i32 0, i32 0} ; [ DW_TAG_subroutine_type ]
!509 = metadata !{null, metadata !402, metadata !510}
!510 = metadata !{i32 786448, null, null, null, i32 0, i64 0, i64 0, i64 0, i32 0, metadata !398} ; [ DW_TAG_reference_type ]
!511 = metadata !{i32 786478, i32 0, metadata !318, metadata !"basic_string", metadata !"basic_string", metadata !"", metadata !322, i32 456, metadata !512, i1 false, i1 false, i32 0, i32 0, null, i32 256, i1 false, null, null, i32 0, metadata !18, i32 456} ; [ DW_TAG_subprogram ]
!512 = metadata !{i32 786453, i32 0, metadata !"", i32 0, i32 0, i64 0, i64 0, i64 0, i32 0, null, metadata !513, i32 0, i32 0} ; [ DW_TAG_subroutine_type ]
!513 = metadata !{null, metadata !402, metadata !510, metadata !413, metadata !413}
!514 = metadata !{i32 786478, i32 0, metadata !318, metadata !"basic_string", metadata !"basic_string", metadata !"", metadata !322, i32 465, metadata !515, i1 false, i1 false, i32 0, i32 0, null, i32 256, i1 false, null, null, i32 0, metadata !18, i32 465} ; [ DW_TAG_subprogram ]
!515 = metadata !{i32 786453, i32 0, metadata !"", i32 0, i32 0, i64 0, i64 0, i64 0, i32 0, null, metadata !516, i32 0, i32 0} ; [ DW_TAG_subroutine_type ]
!516 = metadata !{null, metadata !402, metadata !510, metadata !413, metadata !413, metadata !384}
!517 = metadata !{i32 786478, i32 0, metadata !318, metadata !"basic_string", metadata !"basic_string", metadata !"", metadata !322, i32 477, metadata !518, i1 false, i1 false, i32 0, i32 0, null, i32 256, i1 false, null, null, i32 0, metadata !18, i32 477} ; [ DW_TAG_subprogram ]
!518 = metadata !{i32 786453, i32 0, metadata !"", i32 0, i32 0, i64 0, i64 0, i64 0, i32 0, null, metadata !519, i32 0, i32 0} ; [ DW_TAG_subroutine_type ]
!519 = metadata !{null, metadata !402, metadata !182, metadata !413, metadata !384}
!520 = metadata !{i32 786478, i32 0, metadata !318, metadata !"basic_string", metadata !"basic_string", metadata !"", metadata !322, i32 484, metadata !521, i1 false, i1 false, i32 0, i32 0, null, i32 256, i1 false, null, null, i32 0, metadata !18, i32 484} ; [ DW_TAG_subprogram ]
!521 = metadata !{i32 786453, i32 0, metadata !"", i32 0, i32 0, i64 0, i64 0, i64 0, i32 0, null, metadata !522, i32 0, i32 0} ; [ DW_TAG_subroutine_type ]
!522 = metadata !{null, metadata !402, metadata !182, metadata !384}
!523 = metadata !{i32 786478, i32 0, metadata !318, metadata !"basic_string", metadata !"basic_string", metadata !"", metadata !322, i32 491, metadata !524, i1 false, i1 false, i32 0, i32 0, null, i32 256, i1 false, null, null, i32 0, metadata !18, i32 491} ; [ DW_TAG_subprogram ]
!524 = metadata !{i32 786453, i32 0, metadata !"", i32 0, i32 0, i64 0, i64 0, i64 0, i32 0, null, metadata !525, i32 0, i32 0} ; [ DW_TAG_subroutine_type ]
!525 = metadata !{null, metadata !402, metadata !413, metadata !184, metadata !384}
!526 = metadata !{i32 786478, i32 0, metadata !318, metadata !"~basic_string", metadata !"~basic_string", metadata !"", metadata !322, i32 532, metadata !460, i1 false, i1 false, i32 0, i32 0, null, i32 256, i1 false, null, null, i32 0, metadata !18, i32 532} ; [ DW_TAG_subprogram ]
!527 = metadata !{i32 786478, i32 0, metadata !318, metadata !"operator=", metadata !"operator=", metadata !"_ZNSsaSERKSs", metadata !322, i32 540, metadata !528, i1 false, i1 false, i32 0, i32 0, null, i32 256, i1 false, null, null, i32 0, metadata !18, i32 540} ; [ DW_TAG_subprogram ]
!528 = metadata !{i32 786453, i32 0, metadata !"", i32 0, i32 0, i64 0, i64 0, i64 0, i32 0, null, metadata !529, i32 0, i32 0} ; [ DW_TAG_subroutine_type ]
!529 = metadata !{metadata !530, metadata !402, metadata !510}
!530 = metadata !{i32 786448, null, null, null, i32 0, i64 0, i64 0, i64 0, i32 0, metadata !318} ; [ DW_TAG_reference_type ]
!531 = metadata !{i32 786478, i32 0, metadata !318, metadata !"operator=", metadata !"operator=", metadata !"_ZNSsaSEPKc", metadata !322, i32 548, metadata !532, i1 false, i1 false, i32 0, i32 0, null, i32 256, i1 false, null, null, i32 0, metadata !18, i32 548} ; [ DW_TAG_subprogram ]
!532 = metadata !{i32 786453, i32 0, metadata !"", i32 0, i32 0, i64 0, i64 0, i64 0, i32 0, null, metadata !533, i32 0, i32 0} ; [ DW_TAG_subroutine_type ]
!533 = metadata !{metadata !530, metadata !402, metadata !182}
!534 = metadata !{i32 786478, i32 0, metadata !318, metadata !"operator=", metadata !"operator=", metadata !"_ZNSsaSEc", metadata !322, i32 559, metadata !535, i1 false, i1 false, i32 0, i32 0, null, i32 256, i1 false, null, null, i32 0, metadata !18, i32 559} ; [ DW_TAG_subprogram ]
!535 = metadata !{i32 786453, i32 0, metadata !"", i32 0, i32 0, i64 0, i64 0, i64 0, i32 0, null, metadata !536, i32 0, i32 0} ; [ DW_TAG_subroutine_type ]
!536 = metadata !{metadata !530, metadata !402, metadata !184}
!537 = metadata !{i32 786478, i32 0, metadata !318, metadata !"begin", metadata !"begin", metadata !"_ZNSs5beginEv", metadata !322, i32 599, metadata !538, i1 false, i1 false, i32 0, i32 0, null, i32 256, i1 false, null, null, i32 0, metadata !18, i32 599} ; [ DW_TAG_subprogram ]
!538 = metadata !{i32 786453, i32 0, metadata !"", i32 0, i32 0, i64 0, i64 0, i64 0, i32 0, null, metadata !539, i32 0, i32 0} ; [ DW_TAG_subroutine_type ]
!539 = metadata !{metadata !455, metadata !402}
!540 = metadata !{i32 786478, i32 0, metadata !318, metadata !"begin", metadata !"begin", metadata !"_ZNKSs5beginEv", metadata !322, i32 610, metadata !541, i1 false, i1 false, i32 0, i32 0, null, i32 256, i1 false, null, null, i32 0, metadata !18, i32 610} ; [ DW_TAG_subprogram ]
!541 = metadata !{i32 786453, i32 0, metadata !"", i32 0, i32 0, i64 0, i64 0, i64 0, i32 0, null, metadata !542, i32 0, i32 0} ; [ DW_TAG_subroutine_type ]
!542 = metadata !{metadata !487, metadata !397}
!543 = metadata !{i32 786478, i32 0, metadata !318, metadata !"end", metadata !"end", metadata !"_ZNSs3endEv", metadata !322, i32 618, metadata !538, i1 false, i1 false, i32 0, i32 0, null, i32 256, i1 false, null, null, i32 0, metadata !18, i32 618} ; [ DW_TAG_subprogram ]
!544 = metadata !{i32 786478, i32 0, metadata !318, metadata !"end", metadata !"end", metadata !"_ZNKSs3endEv", metadata !322, i32 629, metadata !541, i1 false, i1 false, i32 0, i32 0, null, i32 256, i1 false, null, null, i32 0, metadata !18, i32 629} ; [ DW_TAG_subprogram ]
!545 = metadata !{i32 786478, i32 0, metadata !318, metadata !"rbegin", metadata !"rbegin", metadata !"_ZNSs6rbeginEv", metadata !322, i32 638, metadata !546, i1 false, i1 false, i32 0, i32 0, null, i32 256, i1 false, null, null, i32 0, metadata !18, i32 638} ; [ DW_TAG_subprogram ]
!546 = metadata !{i32 786453, i32 0, metadata !"", i32 0, i32 0, i64 0, i64 0, i64 0, i32 0, null, metadata !547, i32 0, i32 0} ; [ DW_TAG_subroutine_type ]
!547 = metadata !{metadata !548, metadata !402}
!548 = metadata !{i32 786454, metadata !318, metadata !"reverse_iterator", metadata !319, i32 125, i64 0, i64 0, i64 0, i32 0, metadata !549} ; [ DW_TAG_typedef ]
!549 = metadata !{i32 786434, null, metadata !"reverse_iterator<__gnu_cxx::__normal_iterator<char *, std::basic_string<char> > >", metadata !457, i32 97, i32 0, i32 0, i32 0, i32 4, null, null, i32 0} ; [ DW_TAG_class_type ]
!550 = metadata !{i32 786478, i32 0, metadata !318, metadata !"rbegin", metadata !"rbegin", metadata !"_ZNKSs6rbeginEv", metadata !322, i32 647, metadata !551, i1 false, i1 false, i32 0, i32 0, null, i32 256, i1 false, null, null, i32 0, metadata !18, i32 647} ; [ DW_TAG_subprogram ]
!551 = metadata !{i32 786453, i32 0, metadata !"", i32 0, i32 0, i64 0, i64 0, i64 0, i32 0, null, metadata !552, i32 0, i32 0} ; [ DW_TAG_subroutine_type ]
!552 = metadata !{metadata !553, metadata !397}
!553 = metadata !{i32 786454, metadata !318, metadata !"const_reverse_iterator", metadata !319, i32 124, i64 0, i64 0, i64 0, i32 0, metadata !554} ; [ DW_TAG_typedef ]
!554 = metadata !{i32 786434, null, metadata !"reverse_iterator<__gnu_cxx::__normal_iterator<const char *, std::basic_string<char> > >", metadata !457, i32 97, i32 0, i32 0, i32 0, i32 4, null, null, i32 0} ; [ DW_TAG_class_type ]
!555 = metadata !{i32 786478, i32 0, metadata !318, metadata !"rend", metadata !"rend", metadata !"_ZNSs4rendEv", metadata !322, i32 656, metadata !546, i1 false, i1 false, i32 0, i32 0, null, i32 256, i1 false, null, null, i32 0, metadata !18, i32 656} ; [ DW_TAG_subprogram ]
!556 = metadata !{i32 786478, i32 0, metadata !318, metadata !"rend", metadata !"rend", metadata !"_ZNKSs4rendEv", metadata !322, i32 665, metadata !551, i1 false, i1 false, i32 0, i32 0, null, i32 256, i1 false, null, null, i32 0, metadata !18, i32 665} ; [ DW_TAG_subprogram ]
!557 = metadata !{i32 786478, i32 0, metadata !318, metadata !"size", metadata !"size", metadata !"_ZNKSs4sizeEv", metadata !322, i32 709, metadata !558, i1 false, i1 false, i32 0, i32 0, null, i32 256, i1 false, null, null, i32 0, metadata !18, i32 709} ; [ DW_TAG_subprogram ]
!558 = metadata !{i32 786453, i32 0, metadata !"", i32 0, i32 0, i64 0, i64 0, i64 0, i32 0, null, metadata !559, i32 0, i32 0} ; [ DW_TAG_subroutine_type ]
!559 = metadata !{metadata !413, metadata !397}
!560 = metadata !{i32 786478, i32 0, metadata !318, metadata !"length", metadata !"length", metadata !"_ZNKSs6lengthEv", metadata !322, i32 715, metadata !558, i1 false, i1 false, i32 0, i32 0, null, i32 256, i1 false, null, null, i32 0, metadata !18, i32 715} ; [ DW_TAG_subprogram ]
!561 = metadata !{i32 786478, i32 0, metadata !318, metadata !"max_size", metadata !"max_size", metadata !"_ZNKSs8max_sizeEv", metadata !322, i32 720, metadata !558, i1 false, i1 false, i32 0, i32 0, null, i32 256, i1 false, null, null, i32 0, metadata !18, i32 720} ; [ DW_TAG_subprogram ]
!562 = metadata !{i32 786478, i32 0, metadata !318, metadata !"resize", metadata !"resize", metadata !"_ZNSs6resizeEmc", metadata !322, i32 734, metadata !563, i1 false, i1 false, i32 0, i32 0, null, i32 256, i1 false, null, null, i32 0, metadata !18, i32 734} ; [ DW_TAG_subprogram ]
!563 = metadata !{i32 786453, i32 0, metadata !"", i32 0, i32 0, i64 0, i64 0, i64 0, i32 0, null, metadata !564, i32 0, i32 0} ; [ DW_TAG_subroutine_type ]
!564 = metadata !{null, metadata !402, metadata !413, metadata !184}
!565 = metadata !{i32 786478, i32 0, metadata !318, metadata !"resize", metadata !"resize", metadata !"_ZNSs6resizeEm", metadata !322, i32 747, metadata !566, i1 false, i1 false, i32 0, i32 0, null, i32 256, i1 false, null, null, i32 0, metadata !18, i32 747} ; [ DW_TAG_subprogram ]
!566 = metadata !{i32 786453, i32 0, metadata !"", i32 0, i32 0, i64 0, i64 0, i64 0, i32 0, null, metadata !567, i32 0, i32 0} ; [ DW_TAG_subroutine_type ]
!567 = metadata !{null, metadata !402, metadata !413}
!568 = metadata !{i32 786478, i32 0, metadata !318, metadata !"capacity", metadata !"capacity", metadata !"_ZNKSs8capacityEv", metadata !322, i32 767, metadata !558, i1 false, i1 false, i32 0, i32 0, null, i32 256, i1 false, null, null, i32 0, metadata !18, i32 767} ; [ DW_TAG_subprogram ]
!569 = metadata !{i32 786478, i32 0, metadata !318, metadata !"reserve", metadata !"reserve", metadata !"_ZNSs7reserveEm", metadata !322, i32 788, metadata !566, i1 false, i1 false, i32 0, i32 0, null, i32 256, i1 false, null, null, i32 0, metadata !18, i32 788} ; [ DW_TAG_subprogram ]
!570 = metadata !{i32 786478, i32 0, metadata !318, metadata !"clear", metadata !"clear", metadata !"_ZNSs5clearEv", metadata !322, i32 794, metadata !460, i1 false, i1 false, i32 0, i32 0, null, i32 256, i1 false, null, null, i32 0, metadata !18, i32 794} ; [ DW_TAG_subprogram ]
!571 = metadata !{i32 786478, i32 0, metadata !318, metadata !"empty", metadata !"empty", metadata !"_ZNKSs5emptyEv", metadata !322, i32 802, metadata !572, i1 false, i1 false, i32 0, i32 0, null, i32 256, i1 false, null, null, i32 0, metadata !18, i32 802} ; [ DW_TAG_subprogram ]
!572 = metadata !{i32 786453, i32 0, metadata !"", i32 0, i32 0, i64 0, i64 0, i64 0, i32 0, null, metadata !573, i32 0, i32 0} ; [ DW_TAG_subroutine_type ]
!573 = metadata !{metadata !248, metadata !397}
!574 = metadata !{i32 786478, i32 0, metadata !318, metadata !"operator[]", metadata !"operator[]", metadata !"_ZNKSsixEm", metadata !322, i32 817, metadata !575, i1 false, i1 false, i32 0, i32 0, null, i32 256, i1 false, null, null, i32 0, metadata !18, i32 817} ; [ DW_TAG_subprogram ]
!575 = metadata !{i32 786453, i32 0, metadata !"", i32 0, i32 0, i64 0, i64 0, i64 0, i32 0, null, metadata !576, i32 0, i32 0} ; [ DW_TAG_subroutine_type ]
!576 = metadata !{metadata !577, metadata !397, metadata !413}
!577 = metadata !{i32 786454, metadata !318, metadata !"const_reference", metadata !319, i32 118, i64 0, i64 0, i64 0, i32 0, metadata !578} ; [ DW_TAG_typedef ]
!578 = metadata !{i32 786454, metadata !326, metadata !"const_reference", metadata !319, i32 100, i64 0, i64 0, i64 0, i32 0, metadata !356} ; [ DW_TAG_typedef ]
!579 = metadata !{i32 786478, i32 0, metadata !318, metadata !"operator[]", metadata !"operator[]", metadata !"_ZNSsixEm", metadata !322, i32 834, metadata !580, i1 false, i1 false, i32 0, i32 0, null, i32 256, i1 false, null, null, i32 0, metadata !18, i32 834} ; [ DW_TAG_subprogram ]
!580 = metadata !{i32 786453, i32 0, metadata !"", i32 0, i32 0, i64 0, i64 0, i64 0, i32 0, null, metadata !581, i32 0, i32 0} ; [ DW_TAG_subroutine_type ]
!581 = metadata !{metadata !582, metadata !402, metadata !413}
!582 = metadata !{i32 786454, metadata !318, metadata !"reference", metadata !319, i32 117, i64 0, i64 0, i64 0, i32 0, metadata !583} ; [ DW_TAG_typedef ]
!583 = metadata !{i32 786454, metadata !326, metadata !"reference", metadata !319, i32 99, i64 0, i64 0, i64 0, i32 0, metadata !350} ; [ DW_TAG_typedef ]
!584 = metadata !{i32 786478, i32 0, metadata !318, metadata !"at", metadata !"at", metadata !"_ZNKSs2atEm", metadata !322, i32 855, metadata !575, i1 false, i1 false, i32 0, i32 0, null, i32 256, i1 false, null, null, i32 0, metadata !18, i32 855} ; [ DW_TAG_subprogram ]
!585 = metadata !{i32 786478, i32 0, metadata !318, metadata !"at", metadata !"at", metadata !"_ZNSs2atEm", metadata !322, i32 908, metadata !580, i1 false, i1 false, i32 0, i32 0, null, i32 256, i1 false, null, null, i32 0, metadata !18, i32 908} ; [ DW_TAG_subprogram ]
!586 = metadata !{i32 786478, i32 0, metadata !318, metadata !"operator+=", metadata !"operator+=", metadata !"_ZNSspLERKSs", metadata !322, i32 923, metadata !528, i1 false, i1 false, i32 0, i32 0, null, i32 256, i1 false, null, null, i32 0, metadata !18, i32 923} ; [ DW_TAG_subprogram ]
!587 = metadata !{i32 786478, i32 0, metadata !318, metadata !"operator+=", metadata !"operator+=", metadata !"_ZNSspLEPKc", metadata !322, i32 932, metadata !532, i1 false, i1 false, i32 0, i32 0, null, i32 256, i1 false, null, null, i32 0, metadata !18, i32 932} ; [ DW_TAG_subprogram ]
!588 = metadata !{i32 786478, i32 0, metadata !318, metadata !"operator+=", metadata !"operator+=", metadata !"_ZNSspLEc", metadata !322, i32 941, metadata !535, i1 false, i1 false, i32 0, i32 0, null, i32 256, i1 false, null, null, i32 0, metadata !18, i32 941} ; [ DW_TAG_subprogram ]
!589 = metadata !{i32 786478, i32 0, metadata !318, metadata !"append", metadata !"append", metadata !"_ZNSs6appendERKSs", metadata !322, i32 964, metadata !528, i1 false, i1 false, i32 0, i32 0, null, i32 256, i1 false, null, null, i32 0, metadata !18, i32 964} ; [ DW_TAG_subprogram ]
!590 = metadata !{i32 786478, i32 0, metadata !318, metadata !"append", metadata !"append", metadata !"_ZNSs6appendERKSsmm", metadata !322, i32 979, metadata !591, i1 false, i1 false, i32 0, i32 0, null, i32 256, i1 false, null, null, i32 0, metadata !18, i32 979} ; [ DW_TAG_subprogram ]
!591 = metadata !{i32 786453, i32 0, metadata !"", i32 0, i32 0, i64 0, i64 0, i64 0, i32 0, null, metadata !592, i32 0, i32 0} ; [ DW_TAG_subroutine_type ]
!592 = metadata !{metadata !530, metadata !402, metadata !510, metadata !413, metadata !413}
!593 = metadata !{i32 786478, i32 0, metadata !318, metadata !"append", metadata !"append", metadata !"_ZNSs6appendEPKcm", metadata !322, i32 988, metadata !594, i1 false, i1 false, i32 0, i32 0, null, i32 256, i1 false, null, null, i32 0, metadata !18, i32 988} ; [ DW_TAG_subprogram ]
!594 = metadata !{i32 786453, i32 0, metadata !"", i32 0, i32 0, i64 0, i64 0, i64 0, i32 0, null, metadata !595, i32 0, i32 0} ; [ DW_TAG_subroutine_type ]
!595 = metadata !{metadata !530, metadata !402, metadata !182, metadata !413}
!596 = metadata !{i32 786478, i32 0, metadata !318, metadata !"append", metadata !"append", metadata !"_ZNSs6appendEPKc", metadata !322, i32 996, metadata !532, i1 false, i1 false, i32 0, i32 0, null, i32 256, i1 false, null, null, i32 0, metadata !18, i32 996} ; [ DW_TAG_subprogram ]
!597 = metadata !{i32 786478, i32 0, metadata !318, metadata !"append", metadata !"append", metadata !"_ZNSs6appendEmc", metadata !322, i32 1011, metadata !598, i1 false, i1 false, i32 0, i32 0, null, i32 256, i1 false, null, null, i32 0, metadata !18, i32 1011} ; [ DW_TAG_subprogram ]
!598 = metadata !{i32 786453, i32 0, metadata !"", i32 0, i32 0, i64 0, i64 0, i64 0, i32 0, null, metadata !599, i32 0, i32 0} ; [ DW_TAG_subroutine_type ]
!599 = metadata !{metadata !530, metadata !402, metadata !413, metadata !184}
!600 = metadata !{i32 786478, i32 0, metadata !318, metadata !"push_back", metadata !"push_back", metadata !"_ZNSs9push_backEc", metadata !322, i32 1042, metadata !601, i1 false, i1 false, i32 0, i32 0, null, i32 256, i1 false, null, null, i32 0, metadata !18, i32 1042} ; [ DW_TAG_subprogram ]
!601 = metadata !{i32 786453, i32 0, metadata !"", i32 0, i32 0, i64 0, i64 0, i64 0, i32 0, null, metadata !602, i32 0, i32 0} ; [ DW_TAG_subroutine_type ]
!602 = metadata !{null, metadata !402, metadata !184}
!603 = metadata !{i32 786478, i32 0, metadata !318, metadata !"assign", metadata !"assign", metadata !"_ZNSs6assignERKSs", metadata !322, i32 1057, metadata !528, i1 false, i1 false, i32 0, i32 0, null, i32 256, i1 false, null, null, i32 0, metadata !18, i32 1057} ; [ DW_TAG_subprogram ]
!604 = metadata !{i32 786478, i32 0, metadata !318, metadata !"assign", metadata !"assign", metadata !"_ZNSs6assignERKSsmm", metadata !322, i32 1089, metadata !591, i1 false, i1 false, i32 0, i32 0, null, i32 256, i1 false, null, null, i32 0, metadata !18, i32 1089} ; [ DW_TAG_subprogram ]
!605 = metadata !{i32 786478, i32 0, metadata !318, metadata !"assign", metadata !"assign", metadata !"_ZNSs6assignEPKcm", metadata !322, i32 1105, metadata !594, i1 false, i1 false, i32 0, i32 0, null, i32 256, i1 false, null, null, i32 0, metadata !18, i32 1105} ; [ DW_TAG_subprogram ]
!606 = metadata !{i32 786478, i32 0, metadata !318, metadata !"assign", metadata !"assign", metadata !"_ZNSs6assignEPKc", metadata !322, i32 1117, metadata !532, i1 false, i1 false, i32 0, i32 0, null, i32 256, i1 false, null, null, i32 0, metadata !18, i32 1117} ; [ DW_TAG_subprogram ]
!607 = metadata !{i32 786478, i32 0, metadata !318, metadata !"assign", metadata !"assign", metadata !"_ZNSs6assignEmc", metadata !322, i32 1133, metadata !598, i1 false, i1 false, i32 0, i32 0, null, i32 256, i1 false, null, null, i32 0, metadata !18, i32 1133} ; [ DW_TAG_subprogram ]
!608 = metadata !{i32 786478, i32 0, metadata !318, metadata !"insert", metadata !"insert", metadata !"_ZNSs6insertEN9__gnu_cxx17__normal_iteratorIPcSsEEmc", metadata !322, i32 1173, metadata !609, i1 false, i1 false, i32 0, i32 0, null, i32 256, i1 false, null, null, i32 0, metadata !18, i32 1173} ; [ DW_TAG_subprogram ]
!609 = metadata !{i32 786453, i32 0, metadata !"", i32 0, i32 0, i64 0, i64 0, i64 0, i32 0, null, metadata !610, i32 0, i32 0} ; [ DW_TAG_subroutine_type ]
!610 = metadata !{null, metadata !402, metadata !455, metadata !413, metadata !184}
!611 = metadata !{i32 786478, i32 0, metadata !318, metadata !"insert", metadata !"insert", metadata !"_ZNSs6insertEmRKSs", metadata !322, i32 1219, metadata !612, i1 false, i1 false, i32 0, i32 0, null, i32 256, i1 false, null, null, i32 0, metadata !18, i32 1219} ; [ DW_TAG_subprogram ]
!612 = metadata !{i32 786453, i32 0, metadata !"", i32 0, i32 0, i64 0, i64 0, i64 0, i32 0, null, metadata !613, i32 0, i32 0} ; [ DW_TAG_subroutine_type ]
!613 = metadata !{metadata !530, metadata !402, metadata !413, metadata !510}
!614 = metadata !{i32 786478, i32 0, metadata !318, metadata !"insert", metadata !"insert", metadata !"_ZNSs6insertEmRKSsmm", metadata !322, i32 1241, metadata !615, i1 false, i1 false, i32 0, i32 0, null, i32 256, i1 false, null, null, i32 0, metadata !18, i32 1241} ; [ DW_TAG_subprogram ]
!615 = metadata !{i32 786453, i32 0, metadata !"", i32 0, i32 0, i64 0, i64 0, i64 0, i32 0, null, metadata !616, i32 0, i32 0} ; [ DW_TAG_subroutine_type ]
!616 = metadata !{metadata !530, metadata !402, metadata !413, metadata !510, metadata !413, metadata !413}
!617 = metadata !{i32 786478, i32 0, metadata !318, metadata !"insert", metadata !"insert", metadata !"_ZNSs6insertEmPKcm", metadata !322, i32 1264, metadata !618, i1 false, i1 false, i32 0, i32 0, null, i32 256, i1 false, null, null, i32 0, metadata !18, i32 1264} ; [ DW_TAG_subprogram ]
!618 = metadata !{i32 786453, i32 0, metadata !"", i32 0, i32 0, i64 0, i64 0, i64 0, i32 0, null, metadata !619, i32 0, i32 0} ; [ DW_TAG_subroutine_type ]
!619 = metadata !{metadata !530, metadata !402, metadata !413, metadata !182, metadata !413}
!620 = metadata !{i32 786478, i32 0, metadata !318, metadata !"insert", metadata !"insert", metadata !"_ZNSs6insertEmPKc", metadata !322, i32 1282, metadata !621, i1 false, i1 false, i32 0, i32 0, null, i32 256, i1 false, null, null, i32 0, metadata !18, i32 1282} ; [ DW_TAG_subprogram ]
!621 = metadata !{i32 786453, i32 0, metadata !"", i32 0, i32 0, i64 0, i64 0, i64 0, i32 0, null, metadata !622, i32 0, i32 0} ; [ DW_TAG_subroutine_type ]
!622 = metadata !{metadata !530, metadata !402, metadata !413, metadata !182}
!623 = metadata !{i32 786478, i32 0, metadata !318, metadata !"insert", metadata !"insert", metadata !"_ZNSs6insertEmmc", metadata !322, i32 1305, metadata !624, i1 false, i1 false, i32 0, i32 0, null, i32 256, i1 false, null, null, i32 0, metadata !18, i32 1305} ; [ DW_TAG_subprogram ]
!624 = metadata !{i32 786453, i32 0, metadata !"", i32 0, i32 0, i64 0, i64 0, i64 0, i32 0, null, metadata !625, i32 0, i32 0} ; [ DW_TAG_subroutine_type ]
!625 = metadata !{metadata !530, metadata !402, metadata !413, metadata !413, metadata !184}
!626 = metadata !{i32 786478, i32 0, metadata !318, metadata !"insert", metadata !"insert", metadata !"_ZNSs6insertEN9__gnu_cxx17__normal_iteratorIPcSsEEc", metadata !322, i32 1322, metadata !627, i1 false, i1 false, i32 0, i32 0, null, i32 256, i1 false, null, null, i32 0, metadata !18, i32 1322} ; [ DW_TAG_subprogram ]
!627 = metadata !{i32 786453, i32 0, metadata !"", i32 0, i32 0, i64 0, i64 0, i64 0, i32 0, null, metadata !628, i32 0, i32 0} ; [ DW_TAG_subroutine_type ]
!628 = metadata !{metadata !455, metadata !402, metadata !455, metadata !184}
!629 = metadata !{i32 786478, i32 0, metadata !318, metadata !"erase", metadata !"erase", metadata !"_ZNSs5eraseEmm", metadata !322, i32 1346, metadata !630, i1 false, i1 false, i32 0, i32 0, null, i32 256, i1 false, null, null, i32 0, metadata !18, i32 1346} ; [ DW_TAG_subprogram ]
!630 = metadata !{i32 786453, i32 0, metadata !"", i32 0, i32 0, i64 0, i64 0, i64 0, i32 0, null, metadata !631, i32 0, i32 0} ; [ DW_TAG_subroutine_type ]
!631 = metadata !{metadata !530, metadata !402, metadata !413, metadata !413}
!632 = metadata !{i32 786478, i32 0, metadata !318, metadata !"erase", metadata !"erase", metadata !"_ZNSs5eraseEN9__gnu_cxx17__normal_iteratorIPcSsEE", metadata !322, i32 1362, metadata !633, i1 false, i1 false, i32 0, i32 0, null, i32 256, i1 false, null, null, i32 0, metadata !18, i32 1362} ; [ DW_TAG_subprogram ]
!633 = metadata !{i32 786453, i32 0, metadata !"", i32 0, i32 0, i64 0, i64 0, i64 0, i32 0, null, metadata !634, i32 0, i32 0} ; [ DW_TAG_subroutine_type ]
!634 = metadata !{metadata !455, metadata !402, metadata !455}
!635 = metadata !{i32 786478, i32 0, metadata !318, metadata !"erase", metadata !"erase", metadata !"_ZNSs5eraseEN9__gnu_cxx17__normal_iteratorIPcSsEES2_", metadata !322, i32 1382, metadata !636, i1 false, i1 false, i32 0, i32 0, null, i32 256, i1 false, null, null, i32 0, metadata !18, i32 1382} ; [ DW_TAG_subprogram ]
!636 = metadata !{i32 786453, i32 0, metadata !"", i32 0, i32 0, i64 0, i64 0, i64 0, i32 0, null, metadata !637, i32 0, i32 0} ; [ DW_TAG_subroutine_type ]
!637 = metadata !{metadata !455, metadata !402, metadata !455, metadata !455}
!638 = metadata !{i32 786478, i32 0, metadata !318, metadata !"replace", metadata !"replace", metadata !"_ZNSs7replaceEmmRKSs", metadata !322, i32 1401, metadata !639, i1 false, i1 false, i32 0, i32 0, null, i32 256, i1 false, null, null, i32 0, metadata !18, i32 1401} ; [ DW_TAG_subprogram ]
!639 = metadata !{i32 786453, i32 0, metadata !"", i32 0, i32 0, i64 0, i64 0, i64 0, i32 0, null, metadata !640, i32 0, i32 0} ; [ DW_TAG_subroutine_type ]
!640 = metadata !{metadata !530, metadata !402, metadata !413, metadata !413, metadata !510}
!641 = metadata !{i32 786478, i32 0, metadata !318, metadata !"replace", metadata !"replace", metadata !"_ZNSs7replaceEmmRKSsmm", metadata !322, i32 1423, metadata !642, i1 false, i1 false, i32 0, i32 0, null, i32 256, i1 false, null, null, i32 0, metadata !18, i32 1423} ; [ DW_TAG_subprogram ]
!642 = metadata !{i32 786453, i32 0, metadata !"", i32 0, i32 0, i64 0, i64 0, i64 0, i32 0, null, metadata !643, i32 0, i32 0} ; [ DW_TAG_subroutine_type ]
!643 = metadata !{metadata !530, metadata !402, metadata !413, metadata !413, metadata !510, metadata !413, metadata !413}
!644 = metadata !{i32 786478, i32 0, metadata !318, metadata !"replace", metadata !"replace", metadata !"_ZNSs7replaceEmmPKcm", metadata !322, i32 1447, metadata !645, i1 false, i1 false, i32 0, i32 0, null, i32 256, i1 false, null, null, i32 0, metadata !18, i32 1447} ; [ DW_TAG_subprogram ]
!645 = metadata !{i32 786453, i32 0, metadata !"", i32 0, i32 0, i64 0, i64 0, i64 0, i32 0, null, metadata !646, i32 0, i32 0} ; [ DW_TAG_subroutine_type ]
!646 = metadata !{metadata !530, metadata !402, metadata !413, metadata !413, metadata !182, metadata !413}
!647 = metadata !{i32 786478, i32 0, metadata !318, metadata !"replace", metadata !"replace", metadata !"_ZNSs7replaceEmmPKc", metadata !322, i32 1466, metadata !648, i1 false, i1 false, i32 0, i32 0, null, i32 256, i1 false, null, null, i32 0, metadata !18, i32 1466} ; [ DW_TAG_subprogram ]
!648 = metadata !{i32 786453, i32 0, metadata !"", i32 0, i32 0, i64 0, i64 0, i64 0, i32 0, null, metadata !649, i32 0, i32 0} ; [ DW_TAG_subroutine_type ]
!649 = metadata !{metadata !530, metadata !402, metadata !413, metadata !413, metadata !182}
!650 = metadata !{i32 786478, i32 0, metadata !318, metadata !"replace", metadata !"replace", metadata !"_ZNSs7replaceEmmmc", metadata !322, i32 1489, metadata !651, i1 false, i1 false, i32 0, i32 0, null, i32 256, i1 false, null, null, i32 0, metadata !18, i32 1489} ; [ DW_TAG_subprogram ]
!651 = metadata !{i32 786453, i32 0, metadata !"", i32 0, i32 0, i64 0, i64 0, i64 0, i32 0, null, metadata !652, i32 0, i32 0} ; [ DW_TAG_subroutine_type ]
!652 = metadata !{metadata !530, metadata !402, metadata !413, metadata !413, metadata !413, metadata !184}
!653 = metadata !{i32 786478, i32 0, metadata !318, metadata !"replace", metadata !"replace", metadata !"_ZNSs7replaceEN9__gnu_cxx17__normal_iteratorIPcSsEES2_RKSs", metadata !322, i32 1507, metadata !654, i1 false, i1 false, i32 0, i32 0, null, i32 256, i1 false, null, null, i32 0, metadata !18, i32 1507} ; [ DW_TAG_subprogram ]
!654 = metadata !{i32 786453, i32 0, metadata !"", i32 0, i32 0, i64 0, i64 0, i64 0, i32 0, null, metadata !655, i32 0, i32 0} ; [ DW_TAG_subroutine_type ]
!655 = metadata !{metadata !530, metadata !402, metadata !455, metadata !455, metadata !510}
!656 = metadata !{i32 786478, i32 0, metadata !318, metadata !"replace", metadata !"replace", metadata !"_ZNSs7replaceEN9__gnu_cxx17__normal_iteratorIPcSsEES2_PKcm", metadata !322, i32 1525, metadata !657, i1 false, i1 false, i32 0, i32 0, null, i32 256, i1 false, null, null, i32 0, metadata !18, i32 1525} ; [ DW_TAG_subprogram ]
!657 = metadata !{i32 786453, i32 0, metadata !"", i32 0, i32 0, i64 0, i64 0, i64 0, i32 0, null, metadata !658, i32 0, i32 0} ; [ DW_TAG_subroutine_type ]
!658 = metadata !{metadata !530, metadata !402, metadata !455, metadata !455, metadata !182, metadata !413}
!659 = metadata !{i32 786478, i32 0, metadata !318, metadata !"replace", metadata !"replace", metadata !"_ZNSs7replaceEN9__gnu_cxx17__normal_iteratorIPcSsEES2_PKc", metadata !322, i32 1546, metadata !660, i1 false, i1 false, i32 0, i32 0, null, i32 256, i1 false, null, null, i32 0, metadata !18, i32 1546} ; [ DW_TAG_subprogram ]
!660 = metadata !{i32 786453, i32 0, metadata !"", i32 0, i32 0, i64 0, i64 0, i64 0, i32 0, null, metadata !661, i32 0, i32 0} ; [ DW_TAG_subroutine_type ]
!661 = metadata !{metadata !530, metadata !402, metadata !455, metadata !455, metadata !182}
!662 = metadata !{i32 786478, i32 0, metadata !318, metadata !"replace", metadata !"replace", metadata !"_ZNSs7replaceEN9__gnu_cxx17__normal_iteratorIPcSsEES2_mc", metadata !322, i32 1567, metadata !663, i1 false, i1 false, i32 0, i32 0, null, i32 256, i1 false, null, null, i32 0, metadata !18, i32 1567} ; [ DW_TAG_subprogram ]
!663 = metadata !{i32 786453, i32 0, metadata !"", i32 0, i32 0, i64 0, i64 0, i64 0, i32 0, null, metadata !664, i32 0, i32 0} ; [ DW_TAG_subroutine_type ]
!664 = metadata !{metadata !530, metadata !402, metadata !455, metadata !455, metadata !413, metadata !184}
!665 = metadata !{i32 786478, i32 0, metadata !318, metadata !"replace", metadata !"replace", metadata !"_ZNSs7replaceEN9__gnu_cxx17__normal_iteratorIPcSsEES2_S1_S1_", metadata !322, i32 1603, metadata !666, i1 false, i1 false, i32 0, i32 0, null, i32 256, i1 false, null, null, i32 0, metadata !18, i32 1603} ; [ DW_TAG_subprogram ]
!666 = metadata !{i32 786453, i32 0, metadata !"", i32 0, i32 0, i64 0, i64 0, i64 0, i32 0, null, metadata !667, i32 0, i32 0} ; [ DW_TAG_subroutine_type ]
!667 = metadata !{metadata !530, metadata !402, metadata !455, metadata !455, metadata !223, metadata !223}
!668 = metadata !{i32 786478, i32 0, metadata !318, metadata !"replace", metadata !"replace", metadata !"_ZNSs7replaceEN9__gnu_cxx17__normal_iteratorIPcSsEES2_PKcS4_", metadata !322, i32 1613, metadata !669, i1 false, i1 false, i32 0, i32 0, null, i32 256, i1 false, null, null, i32 0, metadata !18, i32 1613} ; [ DW_TAG_subprogram ]
!669 = metadata !{i32 786453, i32 0, metadata !"", i32 0, i32 0, i64 0, i64 0, i64 0, i32 0, null, metadata !670, i32 0, i32 0} ; [ DW_TAG_subroutine_type ]
!670 = metadata !{metadata !530, metadata !402, metadata !455, metadata !455, metadata !182, metadata !182}
!671 = metadata !{i32 786478, i32 0, metadata !318, metadata !"replace", metadata !"replace", metadata !"_ZNSs7replaceEN9__gnu_cxx17__normal_iteratorIPcSsEES2_S2_S2_", metadata !322, i32 1624, metadata !672, i1 false, i1 false, i32 0, i32 0, null, i32 256, i1 false, null, null, i32 0, metadata !18, i32 1624} ; [ DW_TAG_subprogram ]
!672 = metadata !{i32 786453, i32 0, metadata !"", i32 0, i32 0, i64 0, i64 0, i64 0, i32 0, null, metadata !673, i32 0, i32 0} ; [ DW_TAG_subroutine_type ]
!673 = metadata !{metadata !530, metadata !402, metadata !455, metadata !455, metadata !455, metadata !455}
!674 = metadata !{i32 786478, i32 0, metadata !318, metadata !"replace", metadata !"replace", metadata !"_ZNSs7replaceEN9__gnu_cxx17__normal_iteratorIPcSsEES2_NS0_IPKcSsEES5_", metadata !322, i32 1634, metadata !675, i1 false, i1 false, i32 0, i32 0, null, i32 256, i1 false, null, null, i32 0, metadata !18, i32 1634} ; [ DW_TAG_subprogram ]
!675 = metadata !{i32 786453, i32 0, metadata !"", i32 0, i32 0, i64 0, i64 0, i64 0, i32 0, null, metadata !676, i32 0, i32 0} ; [ DW_TAG_subroutine_type ]
!676 = metadata !{metadata !530, metadata !402, metadata !455, metadata !455, metadata !487, metadata !487}
!677 = metadata !{i32 786478, i32 0, metadata !318, metadata !"_M_replace_aux", metadata !"_M_replace_aux", metadata !"_ZNSs14_M_replace_auxEmmmc", metadata !322, i32 1676, metadata !651, i1 false, i1 false, i32 0, i32 0, null, i32 257, i1 false, null, null, i32 0, metadata !18, i32 1676} ; [ DW_TAG_subprogram ]
!678 = metadata !{i32 786478, i32 0, metadata !318, metadata !"_M_replace_safe", metadata !"_M_replace_safe", metadata !"_ZNSs15_M_replace_safeEmmPKcm", metadata !322, i32 1680, metadata !645, i1 false, i1 false, i32 0, i32 0, null, i32 257, i1 false, null, null, i32 0, metadata !18, i32 1680} ; [ DW_TAG_subprogram ]
!679 = metadata !{i32 786478, i32 0, metadata !318, metadata !"_S_construct_aux_2", metadata !"_S_construct_aux_2", metadata !"_ZNSs18_S_construct_aux_2EmcRKSaIcE", metadata !322, i32 1704, metadata !680, i1 false, i1 false, i32 0, i32 0, null, i32 257, i1 false, null, null, i32 0, metadata !18, i32 1704} ; [ DW_TAG_subprogram ]
!680 = metadata !{i32 786453, i32 0, metadata !"", i32 0, i32 0, i64 0, i64 0, i64 0, i32 0, null, metadata !681, i32 0, i32 0} ; [ DW_TAG_subroutine_type ]
!681 = metadata !{metadata !223, metadata !413, metadata !184, metadata !384}
!682 = metadata !{i32 786478, i32 0, metadata !318, metadata !"_S_construct", metadata !"_S_construct", metadata !"_ZNSs12_S_constructEmcRKSaIcE", metadata !322, i32 1729, metadata !680, i1 false, i1 false, i32 0, i32 0, null, i32 257, i1 false, null, null, i32 0, metadata !18, i32 1729} ; [ DW_TAG_subprogram ]
!683 = metadata !{i32 786478, i32 0, metadata !318, metadata !"copy", metadata !"copy", metadata !"_ZNKSs4copyEPcmm", metadata !322, i32 1745, metadata !684, i1 false, i1 false, i32 0, i32 0, null, i32 256, i1 false, null, null, i32 0, metadata !18, i32 1745} ; [ DW_TAG_subprogram ]
!684 = metadata !{i32 786453, i32 0, metadata !"", i32 0, i32 0, i64 0, i64 0, i64 0, i32 0, null, metadata !685, i32 0, i32 0} ; [ DW_TAG_subroutine_type ]
!685 = metadata !{metadata !413, metadata !397, metadata !223, metadata !413, metadata !413}
!686 = metadata !{i32 786478, i32 0, metadata !318, metadata !"swap", metadata !"swap", metadata !"_ZNSs4swapERSs", metadata !322, i32 1755, metadata !687, i1 false, i1 false, i32 0, i32 0, null, i32 256, i1 false, null, null, i32 0, metadata !18, i32 1755} ; [ DW_TAG_subprogram ]
!687 = metadata !{i32 786453, i32 0, metadata !"", i32 0, i32 0, i64 0, i64 0, i64 0, i32 0, null, metadata !688, i32 0, i32 0} ; [ DW_TAG_subroutine_type ]
!688 = metadata !{null, metadata !402, metadata !530}
!689 = metadata !{i32 786478, i32 0, metadata !318, metadata !"c_str", metadata !"c_str", metadata !"_ZNKSs5c_strEv", metadata !322, i32 1765, metadata !690, i1 false, i1 false, i32 0, i32 0, null, i32 256, i1 false, null, null, i32 0, metadata !18, i32 1765} ; [ DW_TAG_subprogram ]
!690 = metadata !{i32 786453, i32 0, metadata !"", i32 0, i32 0, i64 0, i64 0, i64 0, i32 0, null, metadata !691, i32 0, i32 0} ; [ DW_TAG_subroutine_type ]
!691 = metadata !{metadata !182, metadata !397}
!692 = metadata !{i32 786478, i32 0, metadata !318, metadata !"data", metadata !"data", metadata !"_ZNKSs4dataEv", metadata !322, i32 1775, metadata !690, i1 false, i1 false, i32 0, i32 0, null, i32 256, i1 false, null, null, i32 0, metadata !18, i32 1775} ; [ DW_TAG_subprogram ]
!693 = metadata !{i32 786478, i32 0, metadata !318, metadata !"get_allocator", metadata !"get_allocator", metadata !"_ZNKSs13get_allocatorEv", metadata !322, i32 1782, metadata !694, i1 false, i1 false, i32 0, i32 0, null, i32 256, i1 false, null, null, i32 0, metadata !18, i32 1782} ; [ DW_TAG_subprogram ]
!694 = metadata !{i32 786453, i32 0, metadata !"", i32 0, i32 0, i64 0, i64 0, i64 0, i32 0, null, metadata !695, i32 0, i32 0} ; [ DW_TAG_subroutine_type ]
!695 = metadata !{metadata !696, metadata !397}
!696 = metadata !{i32 786454, metadata !318, metadata !"allocator_type", metadata !319, i32 114, i64 0, i64 0, i64 0, i32 0, metadata !326} ; [ DW_TAG_typedef ]
!697 = metadata !{i32 786478, i32 0, metadata !318, metadata !"find", metadata !"find", metadata !"_ZNKSs4findEPKcmm", metadata !322, i32 1797, metadata !698, i1 false, i1 false, i32 0, i32 0, null, i32 256, i1 false, null, null, i32 0, metadata !18, i32 1797} ; [ DW_TAG_subprogram ]
!698 = metadata !{i32 786453, i32 0, metadata !"", i32 0, i32 0, i64 0, i64 0, i64 0, i32 0, null, metadata !699, i32 0, i32 0} ; [ DW_TAG_subroutine_type ]
!699 = metadata !{metadata !413, metadata !397, metadata !182, metadata !413, metadata !413}
!700 = metadata !{i32 786478, i32 0, metadata !318, metadata !"find", metadata !"find", metadata !"_ZNKSs4findERKSsm", metadata !322, i32 1810, metadata !701, i1 false, i1 false, i32 0, i32 0, null, i32 256, i1 false, null, null, i32 0, metadata !18, i32 1810} ; [ DW_TAG_subprogram ]
!701 = metadata !{i32 786453, i32 0, metadata !"", i32 0, i32 0, i64 0, i64 0, i64 0, i32 0, null, metadata !702, i32 0, i32 0} ; [ DW_TAG_subroutine_type ]
!702 = metadata !{metadata !413, metadata !397, metadata !510, metadata !413}
!703 = metadata !{i32 786478, i32 0, metadata !318, metadata !"find", metadata !"find", metadata !"_ZNKSs4findEPKcm", metadata !322, i32 1824, metadata !704, i1 false, i1 false, i32 0, i32 0, null, i32 256, i1 false, null, null, i32 0, metadata !18, i32 1824} ; [ DW_TAG_subprogram ]
!704 = metadata !{i32 786453, i32 0, metadata !"", i32 0, i32 0, i64 0, i64 0, i64 0, i32 0, null, metadata !705, i32 0, i32 0} ; [ DW_TAG_subroutine_type ]
!705 = metadata !{metadata !413, metadata !397, metadata !182, metadata !413}
!706 = metadata !{i32 786478, i32 0, metadata !318, metadata !"find", metadata !"find", metadata !"_ZNKSs4findEcm", metadata !322, i32 1841, metadata !707, i1 false, i1 false, i32 0, i32 0, null, i32 256, i1 false, null, null, i32 0, metadata !18, i32 1841} ; [ DW_TAG_subprogram ]
!707 = metadata !{i32 786453, i32 0, metadata !"", i32 0, i32 0, i64 0, i64 0, i64 0, i32 0, null, metadata !708, i32 0, i32 0} ; [ DW_TAG_subroutine_type ]
!708 = metadata !{metadata !413, metadata !397, metadata !184, metadata !413}
!709 = metadata !{i32 786478, i32 0, metadata !318, metadata !"rfind", metadata !"rfind", metadata !"_ZNKSs5rfindERKSsm", metadata !322, i32 1854, metadata !701, i1 false, i1 false, i32 0, i32 0, null, i32 256, i1 false, null, null, i32 0, metadata !18, i32 1854} ; [ DW_TAG_subprogram ]
!710 = metadata !{i32 786478, i32 0, metadata !318, metadata !"rfind", metadata !"rfind", metadata !"_ZNKSs5rfindEPKcmm", metadata !322, i32 1869, metadata !698, i1 false, i1 false, i32 0, i32 0, null, i32 256, i1 false, null, null, i32 0, metadata !18, i32 1869} ; [ DW_TAG_subprogram ]
!711 = metadata !{i32 786478, i32 0, metadata !318, metadata !"rfind", metadata !"rfind", metadata !"_ZNKSs5rfindEPKcm", metadata !322, i32 1882, metadata !704, i1 false, i1 false, i32 0, i32 0, null, i32 256, i1 false, null, null, i32 0, metadata !18, i32 1882} ; [ DW_TAG_subprogram ]
!712 = metadata !{i32 786478, i32 0, metadata !318, metadata !"rfind", metadata !"rfind", metadata !"_ZNKSs5rfindEcm", metadata !322, i32 1899, metadata !707, i1 false, i1 false, i32 0, i32 0, null, i32 256, i1 false, null, null, i32 0, metadata !18, i32 1899} ; [ DW_TAG_subprogram ]
!713 = metadata !{i32 786478, i32 0, metadata !318, metadata !"find_first_of", metadata !"find_first_of", metadata !"_ZNKSs13find_first_ofERKSsm", metadata !322, i32 1912, metadata !701, i1 false, i1 false, i32 0, i32 0, null, i32 256, i1 false, null, null, i32 0, metadata !18, i32 1912} ; [ DW_TAG_subprogram ]
!714 = metadata !{i32 786478, i32 0, metadata !318, metadata !"find_first_of", metadata !"find_first_of", metadata !"_ZNKSs13find_first_ofEPKcmm", metadata !322, i32 1927, metadata !698, i1 false, i1 false, i32 0, i32 0, null, i32 256, i1 false, null, null, i32 0, metadata !18, i32 1927} ; [ DW_TAG_subprogram ]
!715 = metadata !{i32 786478, i32 0, metadata !318, metadata !"find_first_of", metadata !"find_first_of", metadata !"_ZNKSs13find_first_ofEPKcm", metadata !322, i32 1940, metadata !704, i1 false, i1 false, i32 0, i32 0, null, i32 256, i1 false, null, null, i32 0, metadata !18, i32 1940} ; [ DW_TAG_subprogram ]
!716 = metadata !{i32 786478, i32 0, metadata !318, metadata !"find_first_of", metadata !"find_first_of", metadata !"_ZNKSs13find_first_ofEcm", metadata !322, i32 1959, metadata !707, i1 false, i1 false, i32 0, i32 0, null, i32 256, i1 false, null, null, i32 0, metadata !18, i32 1959} ; [ DW_TAG_subprogram ]
!717 = metadata !{i32 786478, i32 0, metadata !318, metadata !"find_last_of", metadata !"find_last_of", metadata !"_ZNKSs12find_last_ofERKSsm", metadata !322, i32 1973, metadata !701, i1 false, i1 false, i32 0, i32 0, null, i32 256, i1 false, null, null, i32 0, metadata !18, i32 1973} ; [ DW_TAG_subprogram ]
!718 = metadata !{i32 786478, i32 0, metadata !318, metadata !"find_last_of", metadata !"find_last_of", metadata !"_ZNKSs12find_last_ofEPKcmm", metadata !322, i32 1988, metadata !698, i1 false, i1 false, i32 0, i32 0, null, i32 256, i1 false, null, null, i32 0, metadata !18, i32 1988} ; [ DW_TAG_subprogram ]
!719 = metadata !{i32 786478, i32 0, metadata !318, metadata !"find_last_of", metadata !"find_last_of", metadata !"_ZNKSs12find_last_ofEPKcm", metadata !322, i32 2001, metadata !704, i1 false, i1 false, i32 0, i32 0, null, i32 256, i1 false, null, null, i32 0, metadata !18, i32 2001} ; [ DW_TAG_subprogram ]
!720 = metadata !{i32 786478, i32 0, metadata !318, metadata !"find_last_of", metadata !"find_last_of", metadata !"_ZNKSs12find_last_ofEcm", metadata !322, i32 2020, metadata !707, i1 false, i1 false, i32 0, i32 0, null, i32 256, i1 false, null, null, i32 0, metadata !18, i32 2020} ; [ DW_TAG_subprogram ]
!721 = metadata !{i32 786478, i32 0, metadata !318, metadata !"find_first_not_of", metadata !"find_first_not_of", metadata !"_ZNKSs17find_first_not_ofERKSsm", metadata !322, i32 2034, metadata !701, i1 false, i1 false, i32 0, i32 0, null, i32 256, i1 false, null, null, i32 0, metadata !18, i32 2034} ; [ DW_TAG_subprogram ]
!722 = metadata !{i32 786478, i32 0, metadata !318, metadata !"find_first_not_of", metadata !"find_first_not_of", metadata !"_ZNKSs17find_first_not_ofEPKcmm", metadata !322, i32 2049, metadata !698, i1 false, i1 false, i32 0, i32 0, null, i32 256, i1 false, null, null, i32 0, metadata !18, i32 2049} ; [ DW_TAG_subprogram ]
!723 = metadata !{i32 786478, i32 0, metadata !318, metadata !"find_first_not_of", metadata !"find_first_not_of", metadata !"_ZNKSs17find_first_not_ofEPKcm", metadata !322, i32 2063, metadata !704, i1 false, i1 false, i32 0, i32 0, null, i32 256, i1 false, null, null, i32 0, metadata !18, i32 2063} ; [ DW_TAG_subprogram ]
!724 = metadata !{i32 786478, i32 0, metadata !318, metadata !"find_first_not_of", metadata !"find_first_not_of", metadata !"_ZNKSs17find_first_not_ofEcm", metadata !322, i32 2080, metadata !707, i1 false, i1 false, i32 0, i32 0, null, i32 256, i1 false, null, null, i32 0, metadata !18, i32 2080} ; [ DW_TAG_subprogram ]
!725 = metadata !{i32 786478, i32 0, metadata !318, metadata !"find_last_not_of", metadata !"find_last_not_of", metadata !"_ZNKSs16find_last_not_ofERKSsm", metadata !322, i32 2093, metadata !701, i1 false, i1 false, i32 0, i32 0, null, i32 256, i1 false, null, null, i32 0, metadata !18, i32 2093} ; [ DW_TAG_subprogram ]
!726 = metadata !{i32 786478, i32 0, metadata !318, metadata !"find_last_not_of", metadata !"find_last_not_of", metadata !"_ZNKSs16find_last_not_ofEPKcmm", metadata !322, i32 2109, metadata !698, i1 false, i1 false, i32 0, i32 0, null, i32 256, i1 false, null, null, i32 0, metadata !18, i32 2109} ; [ DW_TAG_subprogram ]
!727 = metadata !{i32 786478, i32 0, metadata !318, metadata !"find_last_not_of", metadata !"find_last_not_of", metadata !"_ZNKSs16find_last_not_ofEPKcm", metadata !322, i32 2122, metadata !704, i1 false, i1 false, i32 0, i32 0, null, i32 256, i1 false, null, null, i32 0, metadata !18, i32 2122} ; [ DW_TAG_subprogram ]
!728 = metadata !{i32 786478, i32 0, metadata !318, metadata !"find_last_not_of", metadata !"find_last_not_of", metadata !"_ZNKSs16find_last_not_ofEcm", metadata !322, i32 2139, metadata !707, i1 false, i1 false, i32 0, i32 0, null, i32 256, i1 false, null, null, i32 0, metadata !18, i32 2139} ; [ DW_TAG_subprogram ]
!729 = metadata !{i32 786478, i32 0, metadata !318, metadata !"substr", metadata !"substr", metadata !"_ZNKSs6substrEmm", metadata !322, i32 2154, metadata !730, i1 false, i1 false, i32 0, i32 0, null, i32 256, i1 false, null, null, i32 0, metadata !18, i32 2154} ; [ DW_TAG_subprogram ]
!730 = metadata !{i32 786453, i32 0, metadata !"", i32 0, i32 0, i64 0, i64 0, i64 0, i32 0, null, metadata !731, i32 0, i32 0} ; [ DW_TAG_subroutine_type ]
!731 = metadata !{metadata !318, metadata !397, metadata !413, metadata !413}
!732 = metadata !{i32 786478, i32 0, metadata !318, metadata !"compare", metadata !"compare", metadata !"_ZNKSs7compareERKSs", metadata !322, i32 2172, metadata !733, i1 false, i1 false, i32 0, i32 0, null, i32 256, i1 false, null, null, i32 0, metadata !18, i32 2172} ; [ DW_TAG_subprogram ]
!733 = metadata !{i32 786453, i32 0, metadata !"", i32 0, i32 0, i64 0, i64 0, i64 0, i32 0, null, metadata !734, i32 0, i32 0} ; [ DW_TAG_subroutine_type ]
!734 = metadata !{metadata !15, metadata !397, metadata !510}
!735 = metadata !{i32 786478, i32 0, metadata !318, metadata !"compare", metadata !"compare", metadata !"_ZNKSs7compareEmmRKSs", metadata !322, i32 2202, metadata !736, i1 false, i1 false, i32 0, i32 0, null, i32 256, i1 false, null, null, i32 0, metadata !18, i32 2202} ; [ DW_TAG_subprogram ]
!736 = metadata !{i32 786453, i32 0, metadata !"", i32 0, i32 0, i64 0, i64 0, i64 0, i32 0, null, metadata !737, i32 0, i32 0} ; [ DW_TAG_subroutine_type ]
!737 = metadata !{metadata !15, metadata !397, metadata !413, metadata !413, metadata !510}
!738 = metadata !{i32 786478, i32 0, metadata !318, metadata !"compare", metadata !"compare", metadata !"_ZNKSs7compareEmmRKSsmm", metadata !322, i32 2226, metadata !739, i1 false, i1 false, i32 0, i32 0, null, i32 256, i1 false, null, null, i32 0, metadata !18, i32 2226} ; [ DW_TAG_subprogram ]
!739 = metadata !{i32 786453, i32 0, metadata !"", i32 0, i32 0, i64 0, i64 0, i64 0, i32 0, null, metadata !740, i32 0, i32 0} ; [ DW_TAG_subroutine_type ]
!740 = metadata !{metadata !15, metadata !397, metadata !413, metadata !413, metadata !510, metadata !413, metadata !413}
!741 = metadata !{i32 786478, i32 0, metadata !318, metadata !"compare", metadata !"compare", metadata !"_ZNKSs7compareEPKc", metadata !322, i32 2244, metadata !742, i1 false, i1 false, i32 0, i32 0, null, i32 256, i1 false, null, null, i32 0, metadata !18, i32 2244} ; [ DW_TAG_subprogram ]
!742 = metadata !{i32 786453, i32 0, metadata !"", i32 0, i32 0, i64 0, i64 0, i64 0, i32 0, null, metadata !743, i32 0, i32 0} ; [ DW_TAG_subroutine_type ]
!743 = metadata !{metadata !15, metadata !397, metadata !182}
!744 = metadata !{i32 786478, i32 0, metadata !318, metadata !"compare", metadata !"compare", metadata !"_ZNKSs7compareEmmPKc", metadata !322, i32 2267, metadata !745, i1 false, i1 false, i32 0, i32 0, null, i32 256, i1 false, null, null, i32 0, metadata !18, i32 2267} ; [ DW_TAG_subprogram ]
!745 = metadata !{i32 786453, i32 0, metadata !"", i32 0, i32 0, i64 0, i64 0, i64 0, i32 0, null, metadata !746, i32 0, i32 0} ; [ DW_TAG_subroutine_type ]
!746 = metadata !{metadata !15, metadata !397, metadata !413, metadata !413, metadata !182}
!747 = metadata !{i32 786478, i32 0, metadata !318, metadata !"compare", metadata !"compare", metadata !"_ZNKSs7compareEmmPKcm", metadata !322, i32 2292, metadata !748, i1 false, i1 false, i32 0, i32 0, null, i32 256, i1 false, null, null, i32 0, metadata !18, i32 2292} ; [ DW_TAG_subprogram ]
!748 = metadata !{i32 786453, i32 0, metadata !"", i32 0, i32 0, i64 0, i64 0, i64 0, i32 0, null, metadata !749, i32 0, i32 0} ; [ DW_TAG_subroutine_type ]
!749 = metadata !{metadata !15, metadata !397, metadata !413, metadata !413, metadata !182, metadata !413}
!750 = metadata !{metadata !751, metadata !752, metadata !805}
!751 = metadata !{i32 786479, null, metadata !"_CharT", metadata !184, null, i32 0, i32 0} ; [ DW_TAG_template_type_parameter ]
!752 = metadata !{i32 786479, null, metadata !"_Traits", metadata !753, null, i32 0, i32 0} ; [ DW_TAG_template_type_parameter ]
!753 = metadata !{i32 786434, metadata !754, metadata !"char_traits<char>", metadata !755, i32 234, i64 8, i64 8, i32 0, i32 0, null, metadata !756, i32 0, null, metadata !804} ; [ DW_TAG_class_type ]
!754 = metadata !{i32 786489, null, metadata !"std", metadata !755, i32 210} ; [ DW_TAG_namespace ]
!755 = metadata !{i32 786473, metadata !"/opt/Xilinx/SDSoC/2014.4/Vivado_HLS/2014.4/lnx64/tools/gcc/lib/gcc/x86_64-unknown-linux-gnu/4.6.3/../../../../include/c++/4.6.3/bits/char_traits.h", metadata !"/home/trungnguyen/SDSoC/workspace/correlation_ver1/correlation_ver1_linux/SDRelease/_sds/vhls", null} ; [ DW_TAG_file_type ]
!756 = metadata !{metadata !757, metadata !764, metadata !767, metadata !768, metadata !772, metadata !775, metadata !778, metadata !782, metadata !783, metadata !786, metadata !792, metadata !795, metadata !798, metadata !801}
!757 = metadata !{i32 786478, i32 0, metadata !753, metadata !"assign", metadata !"assign", metadata !"_ZNSt11char_traitsIcE6assignERcRKc", metadata !755, i32 243, metadata !758, i1 false, i1 false, i32 0, i32 0, null, i32 256, i1 false, null, null, i32 0, metadata !18, i32 243} ; [ DW_TAG_subprogram ]
!758 = metadata !{i32 786453, i32 0, metadata !"", i32 0, i32 0, i64 0, i64 0, i64 0, i32 0, null, metadata !759, i32 0, i32 0} ; [ DW_TAG_subroutine_type ]
!759 = metadata !{null, metadata !760, metadata !762}
!760 = metadata !{i32 786448, null, null, null, i32 0, i64 0, i64 0, i64 0, i32 0, metadata !761} ; [ DW_TAG_reference_type ]
!761 = metadata !{i32 786454, metadata !753, metadata !"char_type", metadata !755, i32 236, i64 0, i64 0, i64 0, i32 0, metadata !184} ; [ DW_TAG_typedef ]
!762 = metadata !{i32 786448, null, null, null, i32 0, i64 0, i64 0, i64 0, i32 0, metadata !763} ; [ DW_TAG_reference_type ]
!763 = metadata !{i32 786470, null, metadata !"", null, i32 0, i64 0, i64 0, i64 0, i32 0, metadata !761} ; [ DW_TAG_const_type ]
!764 = metadata !{i32 786478, i32 0, metadata !753, metadata !"eq", metadata !"eq", metadata !"_ZNSt11char_traitsIcE2eqERKcS2_", metadata !755, i32 247, metadata !765, i1 false, i1 false, i32 0, i32 0, null, i32 256, i1 false, null, null, i32 0, metadata !18, i32 247} ; [ DW_TAG_subprogram ]
!765 = metadata !{i32 786453, i32 0, metadata !"", i32 0, i32 0, i64 0, i64 0, i64 0, i32 0, null, metadata !766, i32 0, i32 0} ; [ DW_TAG_subroutine_type ]
!766 = metadata !{metadata !248, metadata !762, metadata !762}
!767 = metadata !{i32 786478, i32 0, metadata !753, metadata !"lt", metadata !"lt", metadata !"_ZNSt11char_traitsIcE2ltERKcS2_", metadata !755, i32 251, metadata !765, i1 false, i1 false, i32 0, i32 0, null, i32 256, i1 false, null, null, i32 0, metadata !18, i32 251} ; [ DW_TAG_subprogram ]
!768 = metadata !{i32 786478, i32 0, metadata !753, metadata !"compare", metadata !"compare", metadata !"_ZNSt11char_traitsIcE7compareEPKcS2_m", metadata !755, i32 255, metadata !769, i1 false, i1 false, i32 0, i32 0, null, i32 256, i1 false, null, null, i32 0, metadata !18, i32 255} ; [ DW_TAG_subprogram ]
!769 = metadata !{i32 786453, i32 0, metadata !"", i32 0, i32 0, i64 0, i64 0, i64 0, i32 0, null, metadata !770, i32 0, i32 0} ; [ DW_TAG_subroutine_type ]
!770 = metadata !{metadata !15, metadata !771, metadata !771, metadata !149}
!771 = metadata !{i32 786447, null, metadata !"", null, i32 0, i64 64, i64 64, i64 0, i32 0, metadata !763} ; [ DW_TAG_pointer_type ]
!772 = metadata !{i32 786478, i32 0, metadata !753, metadata !"length", metadata !"length", metadata !"_ZNSt11char_traitsIcE6lengthEPKc", metadata !755, i32 259, metadata !773, i1 false, i1 false, i32 0, i32 0, null, i32 256, i1 false, null, null, i32 0, metadata !18, i32 259} ; [ DW_TAG_subprogram ]
!773 = metadata !{i32 786453, i32 0, metadata !"", i32 0, i32 0, i64 0, i64 0, i64 0, i32 0, null, metadata !774, i32 0, i32 0} ; [ DW_TAG_subroutine_type ]
!774 = metadata !{metadata !149, metadata !771}
!775 = metadata !{i32 786478, i32 0, metadata !753, metadata !"find", metadata !"find", metadata !"_ZNSt11char_traitsIcE4findEPKcmRS1_", metadata !755, i32 263, metadata !776, i1 false, i1 false, i32 0, i32 0, null, i32 256, i1 false, null, null, i32 0, metadata !18, i32 263} ; [ DW_TAG_subprogram ]
!776 = metadata !{i32 786453, i32 0, metadata !"", i32 0, i32 0, i64 0, i64 0, i64 0, i32 0, null, metadata !777, i32 0, i32 0} ; [ DW_TAG_subroutine_type ]
!777 = metadata !{metadata !771, metadata !771, metadata !149, metadata !762}
!778 = metadata !{i32 786478, i32 0, metadata !753, metadata !"move", metadata !"move", metadata !"_ZNSt11char_traitsIcE4moveEPcPKcm", metadata !755, i32 267, metadata !779, i1 false, i1 false, i32 0, i32 0, null, i32 256, i1 false, null, null, i32 0, metadata !18, i32 267} ; [ DW_TAG_subprogram ]
!779 = metadata !{i32 786453, i32 0, metadata !"", i32 0, i32 0, i64 0, i64 0, i64 0, i32 0, null, metadata !780, i32 0, i32 0} ; [ DW_TAG_subroutine_type ]
!780 = metadata !{metadata !781, metadata !781, metadata !771, metadata !149}
!781 = metadata !{i32 786447, null, metadata !"", null, i32 0, i64 64, i64 64, i64 0, i32 0, metadata !761} ; [ DW_TAG_pointer_type ]
!782 = metadata !{i32 786478, i32 0, metadata !753, metadata !"copy", metadata !"copy", metadata !"_ZNSt11char_traitsIcE4copyEPcPKcm", metadata !755, i32 271, metadata !779, i1 false, i1 false, i32 0, i32 0, null, i32 256, i1 false, null, null, i32 0, metadata !18, i32 271} ; [ DW_TAG_subprogram ]
!783 = metadata !{i32 786478, i32 0, metadata !753, metadata !"assign", metadata !"assign", metadata !"_ZNSt11char_traitsIcE6assignEPcmc", metadata !755, i32 275, metadata !784, i1 false, i1 false, i32 0, i32 0, null, i32 256, i1 false, null, null, i32 0, metadata !18, i32 275} ; [ DW_TAG_subprogram ]
!784 = metadata !{i32 786453, i32 0, metadata !"", i32 0, i32 0, i64 0, i64 0, i64 0, i32 0, null, metadata !785, i32 0, i32 0} ; [ DW_TAG_subroutine_type ]
!785 = metadata !{metadata !781, metadata !781, metadata !149, metadata !761}
!786 = metadata !{i32 786478, i32 0, metadata !753, metadata !"to_char_type", metadata !"to_char_type", metadata !"_ZNSt11char_traitsIcE12to_char_typeERKi", metadata !755, i32 279, metadata !787, i1 false, i1 false, i32 0, i32 0, null, i32 256, i1 false, null, null, i32 0, metadata !18, i32 279} ; [ DW_TAG_subprogram ]
!787 = metadata !{i32 786453, i32 0, metadata !"", i32 0, i32 0, i64 0, i64 0, i64 0, i32 0, null, metadata !788, i32 0, i32 0} ; [ DW_TAG_subroutine_type ]
!788 = metadata !{metadata !761, metadata !789}
!789 = metadata !{i32 786448, null, null, null, i32 0, i64 0, i64 0, i64 0, i32 0, metadata !790} ; [ DW_TAG_reference_type ]
!790 = metadata !{i32 786470, null, metadata !"", null, i32 0, i64 0, i64 0, i64 0, i32 0, metadata !791} ; [ DW_TAG_const_type ]
!791 = metadata !{i32 786454, metadata !753, metadata !"int_type", metadata !755, i32 237, i64 0, i64 0, i64 0, i32 0, metadata !15} ; [ DW_TAG_typedef ]
!792 = metadata !{i32 786478, i32 0, metadata !753, metadata !"to_int_type", metadata !"to_int_type", metadata !"_ZNSt11char_traitsIcE11to_int_typeERKc", metadata !755, i32 285, metadata !793, i1 false, i1 false, i32 0, i32 0, null, i32 256, i1 false, null, null, i32 0, metadata !18, i32 285} ; [ DW_TAG_subprogram ]
!793 = metadata !{i32 786453, i32 0, metadata !"", i32 0, i32 0, i64 0, i64 0, i64 0, i32 0, null, metadata !794, i32 0, i32 0} ; [ DW_TAG_subroutine_type ]
!794 = metadata !{metadata !791, metadata !762}
!795 = metadata !{i32 786478, i32 0, metadata !753, metadata !"eq_int_type", metadata !"eq_int_type", metadata !"_ZNSt11char_traitsIcE11eq_int_typeERKiS2_", metadata !755, i32 289, metadata !796, i1 false, i1 false, i32 0, i32 0, null, i32 256, i1 false, null, null, i32 0, metadata !18, i32 289} ; [ DW_TAG_subprogram ]
!796 = metadata !{i32 786453, i32 0, metadata !"", i32 0, i32 0, i64 0, i64 0, i64 0, i32 0, null, metadata !797, i32 0, i32 0} ; [ DW_TAG_subroutine_type ]
!797 = metadata !{metadata !248, metadata !789, metadata !789}
!798 = metadata !{i32 786478, i32 0, metadata !753, metadata !"eof", metadata !"eof", metadata !"_ZNSt11char_traitsIcE3eofEv", metadata !755, i32 293, metadata !799, i1 false, i1 false, i32 0, i32 0, null, i32 256, i1 false, null, null, i32 0, metadata !18, i32 293} ; [ DW_TAG_subprogram ]
!799 = metadata !{i32 786453, i32 0, metadata !"", i32 0, i32 0, i64 0, i64 0, i64 0, i32 0, null, metadata !800, i32 0, i32 0} ; [ DW_TAG_subroutine_type ]
!800 = metadata !{metadata !791}
!801 = metadata !{i32 786478, i32 0, metadata !753, metadata !"not_eof", metadata !"not_eof", metadata !"_ZNSt11char_traitsIcE7not_eofERKi", metadata !755, i32 297, metadata !802, i1 false, i1 false, i32 0, i32 0, null, i32 256, i1 false, null, null, i32 0, metadata !18, i32 297} ; [ DW_TAG_subprogram ]
!802 = metadata !{i32 786453, i32 0, metadata !"", i32 0, i32 0, i64 0, i64 0, i64 0, i32 0, null, metadata !803, i32 0, i32 0} ; [ DW_TAG_subroutine_type ]
!803 = metadata !{metadata !791, metadata !789}
!804 = metadata !{metadata !751}
!805 = metadata !{i32 786479, null, metadata !"_Alloc", metadata !326, null, i32 0, i32 0} ; [ DW_TAG_template_type_parameter ]
!806 = metadata !{i32 786447, i32 0, metadata !"", i32 0, i32 0, i64 64, i64 64, i64 0, i32 64, metadata !298} ; [ DW_TAG_pointer_type ]
!807 = metadata !{i32 786478, i32 0, metadata !125, metadata !"operator==", metadata !"operator==", metadata !"_ZNKSt6localeeqERKS_", metadata !127, i32 226, metadata !808, i1 false, i1 false, i32 0, i32 0, null, i32 256, i1 false, null, null, i32 0, metadata !18, i32 226} ; [ DW_TAG_subprogram ]
!808 = metadata !{i32 786453, i32 0, metadata !"", i32 0, i32 0, i64 0, i64 0, i64 0, i32 0, null, metadata !809, i32 0, i32 0} ; [ DW_TAG_subroutine_type ]
!809 = metadata !{metadata !248, metadata !806, metadata !297}
!810 = metadata !{i32 786478, i32 0, metadata !125, metadata !"operator!=", metadata !"operator!=", metadata !"_ZNKSt6localeneERKS_", metadata !127, i32 235, metadata !808, i1 false, i1 false, i32 0, i32 0, null, i32 256, i1 false, null, null, i32 0, metadata !18, i32 235} ; [ DW_TAG_subprogram ]
!811 = metadata !{i32 786478, i32 0, metadata !125, metadata !"global", metadata !"global", metadata !"_ZNSt6locale6globalERKS_", metadata !127, i32 270, metadata !812, i1 false, i1 false, i32 0, i32 0, null, i32 256, i1 false, null, null, i32 0, metadata !18, i32 270} ; [ DW_TAG_subprogram ]
!812 = metadata !{i32 786453, i32 0, metadata !"", i32 0, i32 0, i64 0, i64 0, i64 0, i32 0, null, metadata !813, i32 0, i32 0} ; [ DW_TAG_subroutine_type ]
!813 = metadata !{metadata !125, metadata !297}
!814 = metadata !{i32 786478, i32 0, metadata !125, metadata !"classic", metadata !"classic", metadata !"_ZNSt6locale7classicEv", metadata !127, i32 276, metadata !815, i1 false, i1 false, i32 0, i32 0, null, i32 256, i1 false, null, null, i32 0, metadata !18, i32 276} ; [ DW_TAG_subprogram ]
!815 = metadata !{i32 786453, i32 0, metadata !"", i32 0, i32 0, i64 0, i64 0, i64 0, i32 0, null, metadata !816, i32 0, i32 0} ; [ DW_TAG_subroutine_type ]
!816 = metadata !{metadata !297}
!817 = metadata !{i32 786478, i32 0, metadata !125, metadata !"locale", metadata !"locale", metadata !"", metadata !127, i32 311, metadata !818, i1 false, i1 false, i32 0, i32 0, null, i32 385, i1 false, null, null, i32 0, metadata !18, i32 311} ; [ DW_TAG_subprogram ]
!818 = metadata !{i32 786453, i32 0, metadata !"", i32 0, i32 0, i64 0, i64 0, i64 0, i32 0, null, metadata !819, i32 0, i32 0} ; [ DW_TAG_subroutine_type ]
!819 = metadata !{null, metadata !293, metadata !130}
!820 = metadata !{i32 786478, i32 0, metadata !125, metadata !"_S_initialize", metadata !"_S_initialize", metadata !"_ZNSt6locale13_S_initializeEv", metadata !127, i32 314, metadata !143, i1 false, i1 false, i32 0, i32 0, null, i32 257, i1 false, null, null, i32 0, metadata !18, i32 314} ; [ DW_TAG_subprogram ]
!821 = metadata !{i32 786478, i32 0, metadata !125, metadata !"_S_initialize_once", metadata !"_S_initialize_once", metadata !"_ZNSt6locale18_S_initialize_onceEv", metadata !127, i32 317, metadata !143, i1 false, i1 false, i32 0, i32 0, null, i32 257, i1 false, null, null, i32 0, metadata !18, i32 317} ; [ DW_TAG_subprogram ]
!822 = metadata !{i32 786478, i32 0, metadata !125, metadata !"_S_normalize_category", metadata !"_S_normalize_category", metadata !"_ZNSt6locale21_S_normalize_categoryEi", metadata !127, i32 320, metadata !823, i1 false, i1 false, i32 0, i32 0, null, i32 257, i1 false, null, null, i32 0, metadata !18, i32 320} ; [ DW_TAG_subprogram ]
!823 = metadata !{i32 786453, i32 0, metadata !"", i32 0, i32 0, i64 0, i64 0, i64 0, i32 0, null, metadata !824, i32 0, i32 0} ; [ DW_TAG_subroutine_type ]
!824 = metadata !{metadata !253, metadata !253}
!825 = metadata !{i32 786478, i32 0, metadata !125, metadata !"_M_coalesce", metadata !"_M_coalesce", metadata !"_ZNSt6locale11_M_coalesceERKS_S1_i", metadata !127, i32 323, metadata !306, i1 false, i1 false, i32 0, i32 0, null, i32 257, i1 false, null, null, i32 0, metadata !18, i32 323} ; [ DW_TAG_subprogram ]
!826 = metadata !{i32 786474, metadata !125, null, metadata !127, i32 0, i64 0, i64 0, i64 0, i32 0, metadata !131} ; [ DW_TAG_friend ]
!827 = metadata !{i32 786474, metadata !125, null, metadata !127, i32 0, i64 0, i64 0, i64 0, i32 0, metadata !138} ; [ DW_TAG_friend ]
!828 = metadata !{i32 786478, i32 0, metadata !27, metadata !"register_callback", metadata !"register_callback", metadata !"_ZNSt8ios_base17register_callbackEPFvNS_5eventERS_iEi", metadata !29, i32 450, metadata !829, i1 false, i1 false, i32 0, i32 0, null, i32 256, i1 false, null, null, i32 0, metadata !18, i32 450} ; [ DW_TAG_subprogram ]
!829 = metadata !{i32 786453, i32 0, metadata !"", i32 0, i32 0, i64 0, i64 0, i64 0, i32 0, null, metadata !830, i32 0, i32 0} ; [ DW_TAG_subroutine_type ]
!830 = metadata !{null, metadata !831, metadata !84, metadata !15}
!831 = metadata !{i32 786447, i32 0, metadata !"", i32 0, i32 0, i64 64, i64 64, i64 0, i32 64, metadata !27} ; [ DW_TAG_pointer_type ]
!832 = metadata !{i32 786478, i32 0, metadata !27, metadata !"_M_call_callbacks", metadata !"_M_call_callbacks", metadata !"_ZNSt8ios_base17_M_call_callbacksENS_5eventE", metadata !29, i32 494, metadata !833, i1 false, i1 false, i32 0, i32 0, null, i32 258, i1 false, null, null, i32 0, metadata !18, i32 494} ; [ DW_TAG_subprogram ]
!833 = metadata !{i32 786453, i32 0, metadata !"", i32 0, i32 0, i64 0, i64 0, i64 0, i32 0, null, metadata !834, i32 0, i32 0} ; [ DW_TAG_subroutine_type ]
!834 = metadata !{null, metadata !831, metadata !88}
!835 = metadata !{i32 786478, i32 0, metadata !27, metadata !"_M_dispose_callbacks", metadata !"_M_dispose_callbacks", metadata !"_ZNSt8ios_base20_M_dispose_callbacksEv", metadata !29, i32 497, metadata !836, i1 false, i1 false, i32 0, i32 0, null, i32 258, i1 false, null, null, i32 0, metadata !18, i32 497} ; [ DW_TAG_subprogram ]
!836 = metadata !{i32 786453, i32 0, metadata !"", i32 0, i32 0, i64 0, i64 0, i64 0, i32 0, null, metadata !837, i32 0, i32 0} ; [ DW_TAG_subroutine_type ]
!837 = metadata !{null, metadata !831}
!838 = metadata !{i32 786478, i32 0, metadata !27, metadata !"_M_grow_words", metadata !"_M_grow_words", metadata !"_ZNSt8ios_base13_M_grow_wordsEib", metadata !29, i32 520, metadata !839, i1 false, i1 false, i32 0, i32 0, null, i32 258, i1 false, null, null, i32 0, metadata !18, i32 520} ; [ DW_TAG_subprogram ]
!839 = metadata !{i32 786453, i32 0, metadata !"", i32 0, i32 0, i64 0, i64 0, i64 0, i32 0, null, metadata !840, i32 0, i32 0} ; [ DW_TAG_subroutine_type ]
!840 = metadata !{metadata !841, metadata !831, metadata !15, metadata !248}
!841 = metadata !{i32 786448, null, null, null, i32 0, i64 0, i64 0, i64 0, i32 0, metadata !108} ; [ DW_TAG_reference_type ]
!842 = metadata !{i32 786478, i32 0, metadata !27, metadata !"_M_init", metadata !"_M_init", metadata !"_ZNSt8ios_base7_M_initEv", metadata !29, i32 526, metadata !836, i1 false, i1 false, i32 0, i32 0, null, i32 258, i1 false, null, null, i32 0, metadata !18, i32 526} ; [ DW_TAG_subprogram ]
!843 = metadata !{i32 786478, i32 0, metadata !27, metadata !"flags", metadata !"flags", metadata !"_ZNKSt8ios_base5flagsEv", metadata !29, i32 552, metadata !844, i1 false, i1 false, i32 0, i32 0, null, i32 256, i1 false, null, null, i32 0, metadata !18, i32 552} ; [ DW_TAG_subprogram ]
!844 = metadata !{i32 786453, i32 0, metadata !"", i32 0, i32 0, i64 0, i64 0, i64 0, i32 0, null, metadata !845, i32 0, i32 0} ; [ DW_TAG_subroutine_type ]
!845 = metadata !{metadata !46, metadata !846}
!846 = metadata !{i32 786447, i32 0, metadata !"", i32 0, i32 0, i64 64, i64 64, i64 0, i32 64, metadata !847} ; [ DW_TAG_pointer_type ]
!847 = metadata !{i32 786470, null, metadata !"", null, i32 0, i64 0, i64 0, i64 0, i32 0, metadata !27} ; [ DW_TAG_const_type ]
!848 = metadata !{i32 786478, i32 0, metadata !27, metadata !"flags", metadata !"flags", metadata !"_ZNSt8ios_base5flagsESt13_Ios_Fmtflags", metadata !29, i32 563, metadata !849, i1 false, i1 false, i32 0, i32 0, null, i32 256, i1 false, null, null, i32 0, metadata !18, i32 563} ; [ DW_TAG_subprogram ]
!849 = metadata !{i32 786453, i32 0, metadata !"", i32 0, i32 0, i64 0, i64 0, i64 0, i32 0, null, metadata !850, i32 0, i32 0} ; [ DW_TAG_subroutine_type ]
!850 = metadata !{metadata !46, metadata !831, metadata !46}
!851 = metadata !{i32 786478, i32 0, metadata !27, metadata !"setf", metadata !"setf", metadata !"_ZNSt8ios_base4setfESt13_Ios_Fmtflags", metadata !29, i32 579, metadata !849, i1 false, i1 false, i32 0, i32 0, null, i32 256, i1 false, null, null, i32 0, metadata !18, i32 579} ; [ DW_TAG_subprogram ]
!852 = metadata !{i32 786478, i32 0, metadata !27, metadata !"setf", metadata !"setf", metadata !"_ZNSt8ios_base4setfESt13_Ios_FmtflagsS0_", metadata !29, i32 596, metadata !853, i1 false, i1 false, i32 0, i32 0, null, i32 256, i1 false, null, null, i32 0, metadata !18, i32 596} ; [ DW_TAG_subprogram ]
!853 = metadata !{i32 786453, i32 0, metadata !"", i32 0, i32 0, i64 0, i64 0, i64 0, i32 0, null, metadata !854, i32 0, i32 0} ; [ DW_TAG_subroutine_type ]
!854 = metadata !{metadata !46, metadata !831, metadata !46, metadata !46}
!855 = metadata !{i32 786478, i32 0, metadata !27, metadata !"unsetf", metadata !"unsetf", metadata !"_ZNSt8ios_base6unsetfESt13_Ios_Fmtflags", metadata !29, i32 611, metadata !856, i1 false, i1 false, i32 0, i32 0, null, i32 256, i1 false, null, null, i32 0, metadata !18, i32 611} ; [ DW_TAG_subprogram ]
!856 = metadata !{i32 786453, i32 0, metadata !"", i32 0, i32 0, i64 0, i64 0, i64 0, i32 0, null, metadata !857, i32 0, i32 0} ; [ DW_TAG_subroutine_type ]
!857 = metadata !{null, metadata !831, metadata !46}
!858 = metadata !{i32 786478, i32 0, metadata !27, metadata !"precision", metadata !"precision", metadata !"_ZNKSt8ios_base9precisionEv", metadata !29, i32 622, metadata !859, i1 false, i1 false, i32 0, i32 0, null, i32 256, i1 false, null, null, i32 0, metadata !18, i32 622} ; [ DW_TAG_subprogram ]
!859 = metadata !{i32 786453, i32 0, metadata !"", i32 0, i32 0, i64 0, i64 0, i64 0, i32 0, null, metadata !860, i32 0, i32 0} ; [ DW_TAG_subroutine_type ]
!860 = metadata !{metadata !37, metadata !846}
!861 = metadata !{i32 786478, i32 0, metadata !27, metadata !"precision", metadata !"precision", metadata !"_ZNSt8ios_base9precisionEl", metadata !29, i32 631, metadata !862, i1 false, i1 false, i32 0, i32 0, null, i32 256, i1 false, null, null, i32 0, metadata !18, i32 631} ; [ DW_TAG_subprogram ]
!862 = metadata !{i32 786453, i32 0, metadata !"", i32 0, i32 0, i64 0, i64 0, i64 0, i32 0, null, metadata !863, i32 0, i32 0} ; [ DW_TAG_subroutine_type ]
!863 = metadata !{metadata !37, metadata !831, metadata !37}
!864 = metadata !{i32 786478, i32 0, metadata !27, metadata !"width", metadata !"width", metadata !"_ZNKSt8ios_base5widthEv", metadata !29, i32 645, metadata !859, i1 false, i1 false, i32 0, i32 0, null, i32 256, i1 false, null, null, i32 0, metadata !18, i32 645} ; [ DW_TAG_subprogram ]
!865 = metadata !{i32 786478, i32 0, metadata !27, metadata !"width", metadata !"width", metadata !"_ZNSt8ios_base5widthEl", metadata !29, i32 654, metadata !862, i1 false, i1 false, i32 0, i32 0, null, i32 256, i1 false, null, null, i32 0, metadata !18, i32 654} ; [ DW_TAG_subprogram ]
!866 = metadata !{i32 786478, i32 0, metadata !27, metadata !"sync_with_stdio", metadata !"sync_with_stdio", metadata !"_ZNSt8ios_base15sync_with_stdioEb", metadata !29, i32 673, metadata !867, i1 false, i1 false, i32 0, i32 0, null, i32 256, i1 false, null, null, i32 0, metadata !18, i32 673} ; [ DW_TAG_subprogram ]
!867 = metadata !{i32 786453, i32 0, metadata !"", i32 0, i32 0, i64 0, i64 0, i64 0, i32 0, null, metadata !868, i32 0, i32 0} ; [ DW_TAG_subroutine_type ]
!868 = metadata !{metadata !248, metadata !248}
!869 = metadata !{i32 786478, i32 0, metadata !27, metadata !"imbue", metadata !"imbue", metadata !"_ZNSt8ios_base5imbueERKSt6locale", metadata !29, i32 685, metadata !870, i1 false, i1 false, i32 0, i32 0, null, i32 256, i1 false, null, null, i32 0, metadata !18, i32 685} ; [ DW_TAG_subprogram ]
!870 = metadata !{i32 786453, i32 0, metadata !"", i32 0, i32 0, i64 0, i64 0, i64 0, i32 0, null, metadata !871, i32 0, i32 0} ; [ DW_TAG_subroutine_type ]
!871 = metadata !{metadata !125, metadata !831, metadata !297}
!872 = metadata !{i32 786478, i32 0, metadata !27, metadata !"getloc", metadata !"getloc", metadata !"_ZNKSt8ios_base6getlocEv", metadata !29, i32 696, metadata !873, i1 false, i1 false, i32 0, i32 0, null, i32 256, i1 false, null, null, i32 0, metadata !18, i32 696} ; [ DW_TAG_subprogram ]
!873 = metadata !{i32 786453, i32 0, metadata !"", i32 0, i32 0, i64 0, i64 0, i64 0, i32 0, null, metadata !874, i32 0, i32 0} ; [ DW_TAG_subroutine_type ]
!874 = metadata !{metadata !125, metadata !846}
!875 = metadata !{i32 786478, i32 0, metadata !27, metadata !"_M_getloc", metadata !"_M_getloc", metadata !"_ZNKSt8ios_base9_M_getlocEv", metadata !29, i32 707, metadata !876, i1 false, i1 false, i32 0, i32 0, null, i32 256, i1 false, null, null, i32 0, metadata !18, i32 707} ; [ DW_TAG_subprogram ]
!876 = metadata !{i32 786453, i32 0, metadata !"", i32 0, i32 0, i64 0, i64 0, i64 0, i32 0, null, metadata !877, i32 0, i32 0} ; [ DW_TAG_subroutine_type ]
!877 = metadata !{metadata !297, metadata !846}
!878 = metadata !{i32 786478, i32 0, metadata !27, metadata !"xalloc", metadata !"xalloc", metadata !"_ZNSt8ios_base6xallocEv", metadata !29, i32 726, metadata !34, i1 false, i1 false, i32 0, i32 0, null, i32 256, i1 false, null, null, i32 0, metadata !18, i32 726} ; [ DW_TAG_subprogram ]
!879 = metadata !{i32 786478, i32 0, metadata !27, metadata !"iword", metadata !"iword", metadata !"_ZNSt8ios_base5iwordEi", metadata !29, i32 742, metadata !880, i1 false, i1 false, i32 0, i32 0, null, i32 256, i1 false, null, null, i32 0, metadata !18, i32 742} ; [ DW_TAG_subprogram ]
!880 = metadata !{i32 786453, i32 0, metadata !"", i32 0, i32 0, i64 0, i64 0, i64 0, i32 0, null, metadata !881, i32 0, i32 0} ; [ DW_TAG_subroutine_type ]
!881 = metadata !{metadata !882, metadata !831, metadata !15}
!882 = metadata !{i32 786448, null, null, null, i32 0, i64 0, i64 0, i64 0, i32 0, metadata !43} ; [ DW_TAG_reference_type ]
!883 = metadata !{i32 786478, i32 0, metadata !27, metadata !"pword", metadata !"pword", metadata !"_ZNSt8ios_base5pwordEi", metadata !29, i32 763, metadata !884, i1 false, i1 false, i32 0, i32 0, null, i32 256, i1 false, null, null, i32 0, metadata !18, i32 763} ; [ DW_TAG_subprogram ]
!884 = metadata !{i32 786453, i32 0, metadata !"", i32 0, i32 0, i64 0, i64 0, i64 0, i32 0, null, metadata !885, i32 0, i32 0} ; [ DW_TAG_subroutine_type ]
!885 = metadata !{metadata !886, metadata !831, metadata !15}
!886 = metadata !{i32 786448, null, null, null, i32 0, i64 0, i64 0, i64 0, i32 0, metadata !111} ; [ DW_TAG_reference_type ]
!887 = metadata !{i32 786478, i32 0, metadata !27, metadata !"~ios_base", metadata !"~ios_base", metadata !"", metadata !29, i32 779, metadata !836, i1 false, i1 false, i32 1, i32 0, metadata !27, i32 256, i1 false, null, null, i32 0, metadata !18, i32 779} ; [ DW_TAG_subprogram ]
!888 = metadata !{i32 786478, i32 0, metadata !27, metadata !"ios_base", metadata !"ios_base", metadata !"", metadata !29, i32 782, metadata !836, i1 false, i1 false, i32 0, i32 0, null, i32 258, i1 false, null, null, i32 0, metadata !18, i32 782} ; [ DW_TAG_subprogram ]
!889 = metadata !{i32 786478, i32 0, metadata !27, metadata !"ios_base", metadata !"ios_base", metadata !"", metadata !29, i32 787, metadata !890, i1 false, i1 false, i32 0, i32 0, null, i32 257, i1 false, null, null, i32 0, metadata !18, i32 787} ; [ DW_TAG_subprogram ]
!890 = metadata !{i32 786453, i32 0, metadata !"", i32 0, i32 0, i64 0, i64 0, i64 0, i32 0, null, metadata !891, i32 0, i32 0} ; [ DW_TAG_subroutine_type ]
!891 = metadata !{null, metadata !831, metadata !892}
!892 = metadata !{i32 786448, null, null, null, i32 0, i64 0, i64 0, i64 0, i32 0, metadata !847} ; [ DW_TAG_reference_type ]
!893 = metadata !{i32 786478, i32 0, metadata !27, metadata !"operator=", metadata !"operator=", metadata !"_ZNSt8ios_baseaSERKS_", metadata !29, i32 790, metadata !894, i1 false, i1 false, i32 0, i32 0, null, i32 257, i1 false, null, null, i32 0, metadata !18, i32 790} ; [ DW_TAG_subprogram ]
!894 = metadata !{i32 786453, i32 0, metadata !"", i32 0, i32 0, i64 0, i64 0, i64 0, i32 0, null, metadata !895, i32 0, i32 0} ; [ DW_TAG_subroutine_type ]
!895 = metadata !{metadata !93, metadata !831, metadata !892}
!896 = metadata !{i32 786470, null, metadata !"", null, i32 0, i64 0, i64 0, i64 0, i32 0, metadata !46} ; [ DW_TAG_const_type ]
!897 = metadata !{i32 786484, i32 0, metadata !27, metadata !"dec", metadata !"dec", metadata !"dec", metadata !29, i32 262, metadata !896, i32 1, i32 1, i17 2} ; [ DW_TAG_variable ]
!898 = metadata !{i32 786484, i32 0, metadata !27, metadata !"fixed", metadata !"fixed", metadata !"fixed", metadata !29, i32 265, metadata !896, i32 1, i32 1, i17 4} ; [ DW_TAG_variable ]
!899 = metadata !{i32 786484, i32 0, metadata !27, metadata !"hex", metadata !"hex", metadata !"hex", metadata !29, i32 268, metadata !896, i32 1, i32 1, i17 8} ; [ DW_TAG_variable ]
!900 = metadata !{i32 786484, i32 0, metadata !27, metadata !"internal", metadata !"internal", metadata !"internal", metadata !29, i32 273, metadata !896, i32 1, i32 1, i17 16} ; [ DW_TAG_variable ]
!901 = metadata !{i32 786484, i32 0, metadata !27, metadata !"left", metadata !"left", metadata !"left", metadata !29, i32 277, metadata !896, i32 1, i32 1, i17 32} ; [ DW_TAG_variable ]
!902 = metadata !{i32 786484, i32 0, metadata !27, metadata !"oct", metadata !"oct", metadata !"oct", metadata !29, i32 280, metadata !896, i32 1, i32 1, i17 64} ; [ DW_TAG_variable ]
!903 = metadata !{i32 786484, i32 0, metadata !27, metadata !"right", metadata !"right", metadata !"right", metadata !29, i32 284, metadata !896, i32 1, i32 1, i17 128} ; [ DW_TAG_variable ]
!904 = metadata !{i32 786484, i32 0, metadata !27, metadata !"scientific", metadata !"scientific", metadata !"scientific", metadata !29, i32 287, metadata !896, i32 1, i32 1, i17 256} ; [ DW_TAG_variable ]
!905 = metadata !{i32 786484, i32 0, metadata !27, metadata !"showbase", metadata !"showbase", metadata !"showbase", metadata !29, i32 291, metadata !896, i32 1, i32 1, i17 512} ; [ DW_TAG_variable ]
!906 = metadata !{i32 786484, i32 0, metadata !27, metadata !"showpoint", metadata !"showpoint", metadata !"showpoint", metadata !29, i32 295, metadata !896, i32 1, i32 1, i17 1024} ; [ DW_TAG_variable ]
!907 = metadata !{i32 786484, i32 0, metadata !27, metadata !"showpos", metadata !"showpos", metadata !"showpos", metadata !29, i32 298, metadata !896, i32 1, i32 1, i17 2048} ; [ DW_TAG_variable ]
!908 = metadata !{i32 786484, i32 0, metadata !27, metadata !"skipws", metadata !"skipws", metadata !"skipws", metadata !29, i32 301, metadata !896, i32 1, i32 1, i17 4096} ; [ DW_TAG_variable ]
!909 = metadata !{i32 786484, i32 0, metadata !27, metadata !"unitbuf", metadata !"unitbuf", metadata !"unitbuf", metadata !29, i32 304, metadata !896, i32 1, i32 1, i17 8192} ; [ DW_TAG_variable ]
!910 = metadata !{i32 786484, i32 0, metadata !27, metadata !"uppercase", metadata !"uppercase", metadata !"uppercase", metadata !29, i32 308, metadata !896, i32 1, i32 1, i17 16384} ; [ DW_TAG_variable ]
!911 = metadata !{i32 786484, i32 0, metadata !27, metadata !"adjustfield", metadata !"adjustfield", metadata !"adjustfield", metadata !29, i32 311, metadata !896, i32 1, i32 1, i17 176} ; [ DW_TAG_variable ]
!912 = metadata !{i32 786484, i32 0, metadata !27, metadata !"basefield", metadata !"basefield", metadata !"basefield", metadata !29, i32 314, metadata !896, i32 1, i32 1, i17 74} ; [ DW_TAG_variable ]
!913 = metadata !{i32 786484, i32 0, metadata !27, metadata !"floatfield", metadata !"floatfield", metadata !"floatfield", metadata !29, i32 317, metadata !896, i32 1, i32 1, i17 260} ; [ DW_TAG_variable ]
!914 = metadata !{i32 786484, i32 0, metadata !27, metadata !"badbit", metadata !"badbit", metadata !"badbit", metadata !29, i32 335, metadata !915, i32 1, i32 1, i17 1} ; [ DW_TAG_variable ]
!915 = metadata !{i32 786470, null, metadata !"", null, i32 0, i64 0, i64 0, i64 0, i32 0, metadata !69} ; [ DW_TAG_const_type ]
!916 = metadata !{i32 786484, i32 0, metadata !27, metadata !"eofbit", metadata !"eofbit", metadata !"eofbit", metadata !29, i32 338, metadata !915, i32 1, i32 1, i17 2} ; [ DW_TAG_variable ]
!917 = metadata !{i32 786484, i32 0, metadata !27, metadata !"failbit", metadata !"failbit", metadata !"failbit", metadata !29, i32 343, metadata !915, i32 1, i32 1, i17 4} ; [ DW_TAG_variable ]
!918 = metadata !{i32 786484, i32 0, metadata !27, metadata !"goodbit", metadata !"goodbit", metadata !"goodbit", metadata !29, i32 346, metadata !915, i32 1, i32 1, i17 0} ; [ DW_TAG_variable ]
!919 = metadata !{i32 786484, i32 0, metadata !27, metadata !"app", metadata !"app", metadata !"app", metadata !29, i32 365, metadata !920, i32 1, i32 1, i17 1} ; [ DW_TAG_variable ]
!920 = metadata !{i32 786470, null, metadata !"", null, i32 0, i64 0, i64 0, i64 0, i32 0, metadata !921} ; [ DW_TAG_const_type ]
!921 = metadata !{i32 786454, metadata !27, metadata !"openmode", metadata !29, i32 362, i64 0, i64 0, i64 0, i32 0, metadata !922} ; [ DW_TAG_typedef ]
!922 = metadata !{i32 786436, metadata !28, metadata !"_Ios_Openmode", metadata !29, i32 104, i64 17, i64 32, i32 0, i32 0, null, metadata !923, i32 0, i32 0} ; [ DW_TAG_enumeration_type ]
!923 = metadata !{metadata !924, metadata !925, metadata !926, metadata !927, metadata !928, metadata !929, metadata !930}
!924 = metadata !{i32 786472, metadata !"_S_app", i64 1} ; [ DW_TAG_enumerator ]
!925 = metadata !{i32 786472, metadata !"_S_ate", i64 2} ; [ DW_TAG_enumerator ]
!926 = metadata !{i32 786472, metadata !"_S_bin", i64 4} ; [ DW_TAG_enumerator ]
!927 = metadata !{i32 786472, metadata !"_S_in", i64 8} ; [ DW_TAG_enumerator ]
!928 = metadata !{i32 786472, metadata !"_S_out", i64 16} ; [ DW_TAG_enumerator ]
!929 = metadata !{i32 786472, metadata !"_S_trunc", i64 32} ; [ DW_TAG_enumerator ]
!930 = metadata !{i32 786472, metadata !"_S_ios_openmode_end", i64 65536} ; [ DW_TAG_enumerator ]
!931 = metadata !{i32 786484, i32 0, metadata !27, metadata !"ate", metadata !"ate", metadata !"ate", metadata !29, i32 368, metadata !920, i32 1, i32 1, i17 2} ; [ DW_TAG_variable ]
!932 = metadata !{i32 786484, i32 0, metadata !27, metadata !"binary", metadata !"binary", metadata !"binary", metadata !29, i32 373, metadata !920, i32 1, i32 1, i17 4} ; [ DW_TAG_variable ]
!933 = metadata !{i32 786484, i32 0, metadata !27, metadata !"in", metadata !"in", metadata !"in", metadata !29, i32 376, metadata !920, i32 1, i32 1, i17 8} ; [ DW_TAG_variable ]
!934 = metadata !{i32 786484, i32 0, metadata !27, metadata !"out", metadata !"out", metadata !"out", metadata !29, i32 379, metadata !920, i32 1, i32 1, i17 16} ; [ DW_TAG_variable ]
!935 = metadata !{i32 786484, i32 0, metadata !27, metadata !"trunc", metadata !"trunc", metadata !"trunc", metadata !29, i32 382, metadata !920, i32 1, i32 1, i17 32} ; [ DW_TAG_variable ]
!936 = metadata !{i32 786484, i32 0, metadata !27, metadata !"beg", metadata !"beg", metadata !"beg", metadata !29, i32 397, metadata !937, i32 1, i32 1, i17 0} ; [ DW_TAG_variable ]
!937 = metadata !{i32 786470, null, metadata !"", null, i32 0, i64 0, i64 0, i64 0, i32 0, metadata !938} ; [ DW_TAG_const_type ]
!938 = metadata !{i32 786454, metadata !27, metadata !"seekdir", metadata !29, i32 394, i64 0, i64 0, i64 0, i32 0, metadata !939} ; [ DW_TAG_typedef ]
!939 = metadata !{i32 786436, metadata !28, metadata !"_Ios_Seekdir", metadata !29, i32 182, i64 17, i64 32, i32 0, i32 0, null, metadata !940, i32 0, i32 0} ; [ DW_TAG_enumeration_type ]
!940 = metadata !{metadata !941, metadata !942, metadata !943, metadata !944}
!941 = metadata !{i32 786472, metadata !"_S_beg", i64 0} ; [ DW_TAG_enumerator ]
!942 = metadata !{i32 786472, metadata !"_S_cur", i64 1} ; [ DW_TAG_enumerator ]
!943 = metadata !{i32 786472, metadata !"_S_end", i64 2} ; [ DW_TAG_enumerator ]
!944 = metadata !{i32 786472, metadata !"_S_ios_seekdir_end", i64 65536} ; [ DW_TAG_enumerator ]
!945 = metadata !{i32 786484, i32 0, metadata !27, metadata !"cur", metadata !"cur", metadata !"cur", metadata !29, i32 400, metadata !937, i32 1, i32 1, i17 1} ; [ DW_TAG_variable ]
!946 = metadata !{i32 786484, i32 0, metadata !27, metadata !"end", metadata !"end", metadata !"end", metadata !29, i32 403, metadata !937, i32 1, i32 1, i17 2} ; [ DW_TAG_variable ]
!947 = metadata !{i32 786484, i32 0, metadata !125, metadata !"none", metadata !"none", metadata !"none", metadata !127, i32 99, metadata !948, i32 1, i32 1, i32 0} ; [ DW_TAG_variable ]
!948 = metadata !{i32 786470, null, metadata !"", null, i32 0, i64 0, i64 0, i64 0, i32 0, metadata !253} ; [ DW_TAG_const_type ]
!949 = metadata !{i32 786484, i32 0, metadata !125, metadata !"ctype", metadata !"ctype", metadata !"ctype", metadata !127, i32 100, metadata !948, i32 1, i32 1, i32 1} ; [ DW_TAG_variable ]
!950 = metadata !{i32 786484, i32 0, metadata !125, metadata !"numeric", metadata !"numeric", metadata !"numeric", metadata !127, i32 101, metadata !948, i32 1, i32 1, i32 2} ; [ DW_TAG_variable ]
!951 = metadata !{i32 786484, i32 0, metadata !125, metadata !"collate", metadata !"collate", metadata !"collate", metadata !127, i32 102, metadata !948, i32 1, i32 1, i32 4} ; [ DW_TAG_variable ]
!952 = metadata !{i32 786484, i32 0, metadata !125, metadata !"time", metadata !"time", metadata !"time", metadata !127, i32 103, metadata !948, i32 1, i32 1, i32 8} ; [ DW_TAG_variable ]
!953 = metadata !{i32 786484, i32 0, metadata !125, metadata !"monetary", metadata !"monetary", metadata !"monetary", metadata !127, i32 104, metadata !948, i32 1, i32 1, i32 16} ; [ DW_TAG_variable ]
!954 = metadata !{i32 786484, i32 0, metadata !125, metadata !"messages", metadata !"messages", metadata !"messages", metadata !127, i32 105, metadata !948, i32 1, i32 1, i32 32} ; [ DW_TAG_variable ]
!955 = metadata !{i32 786484, i32 0, metadata !125, metadata !"all", metadata !"all", metadata !"all", metadata !127, i32 106, metadata !948, i32 1, i32 1, i32 63} ; [ DW_TAG_variable ]
!956 = metadata !{i32 786484, i32 0, metadata !318, metadata !"npos", metadata !"npos", metadata !"npos", metadata !322, i32 279, metadata !957, i32 1, i32 1, i64 -1} ; [ DW_TAG_variable ]
!957 = metadata !{i32 786470, null, metadata !"", null, i32 0, i64 0, i64 0, i64 0, i32 0, metadata !413} ; [ DW_TAG_const_type ]
!958 = metadata !{i32 786484, i32 0, metadata !959, metadata !"__ioinit", metadata !"__ioinit", metadata !"_ZStL8__ioinit", metadata !960, i32 74, metadata !961, i32 1, i32 1, null} ; [ DW_TAG_variable ]
!959 = metadata !{i32 786489, null, metadata !"std", metadata !960, i32 42} ; [ DW_TAG_namespace ]
!960 = metadata !{i32 786473, metadata !"/opt/Xilinx/SDSoC/2014.4/Vivado_HLS/2014.4/lnx64/tools/gcc/lib/gcc/x86_64-unknown-linux-gnu/4.6.3/../../../../include/c++/4.6.3/iostream", metadata !"/home/trungnguyen/SDSoC/workspace/correlation_ver1/correlation_ver1_linux/SDRelease/_sds/vhls", null} ; [ DW_TAG_file_type ]
!961 = metadata !{i32 786434, metadata !27, metadata !"Init", metadata !29, i32 534, i64 8, i64 8, i32 0, i32 0, null, metadata !962, i32 0, null, null} ; [ DW_TAG_class_type ]
!962 = metadata !{metadata !963, metadata !967, metadata !968}
!963 = metadata !{i32 786478, i32 0, metadata !961, metadata !"Init", metadata !"Init", metadata !"", metadata !29, i32 538, metadata !964, i1 false, i1 false, i32 0, i32 0, null, i32 256, i1 false, null, null, i32 0, metadata !18, i32 538} ; [ DW_TAG_subprogram ]
!964 = metadata !{i32 786453, i32 0, metadata !"", i32 0, i32 0, i64 0, i64 0, i64 0, i32 0, null, metadata !965, i32 0, i32 0} ; [ DW_TAG_subroutine_type ]
!965 = metadata !{null, metadata !966}
!966 = metadata !{i32 786447, i32 0, metadata !"", i32 0, i32 0, i64 64, i64 64, i64 0, i32 64, metadata !961} ; [ DW_TAG_pointer_type ]
!967 = metadata !{i32 786478, i32 0, metadata !961, metadata !"~Init", metadata !"~Init", metadata !"", metadata !29, i32 539, metadata !964, i1 false, i1 false, i32 0, i32 0, null, i32 256, i1 false, null, null, i32 0, metadata !18, i32 539} ; [ DW_TAG_subprogram ]
!968 = metadata !{i32 786474, metadata !961, null, metadata !29, i32 0, i64 0, i64 0, i64 0, i32 0, metadata !27} ; [ DW_TAG_friend ]
!969 = metadata !{i32 786484, i32 0, metadata !970, metadata !"width", metadata !"width", metadata !"width", metadata !971, i32 2342, metadata !178, i32 1, i32 1, i32 100} ; [ DW_TAG_variable ]
!970 = metadata !{i32 786434, null, metadata !"ap_int_base<100, false, false>", metadata !971, i32 2337, i64 128, i64 64, i32 0, i32 0, null, metadata !972, i32 0, null, metadata !5564} ; [ DW_TAG_class_type ]
!971 = metadata !{i32 786473, metadata !"/opt/Xilinx/SDSoC/2014.4/Vivado_HLS/2014.4/common/technology/autopilot/ap_int_syn.h", metadata !"/home/trungnguyen/SDSoC/workspace/correlation_ver1/correlation_ver1_linux/SDRelease/_sds/vhls", null} ; [ DW_TAG_file_type ]
!972 = metadata !{metadata !973, metadata !991, metadata !995, metadata !1003, metadata !1004, metadata !1007, metadata !1011, metadata !1015, metadata !1019, metadata !1022, metadata !1025, metadata !1029, metadata !1032, metadata !1035, metadata !1040, metadata !1045, metadata !1048, metadata !1052, metadata !1055, metadata !1058, metadata !1063, metadata !1066, metadata !1067, metadata !1068, metadata !1072, metadata !1073, metadata !1076, metadata !1079, metadata !1082, metadata !1085, metadata !1088, metadata !1091, metadata !1094, metadata !1097, metadata !1100, metadata !1103, metadata !1107, metadata !1110, metadata !1113, metadata !1116, metadata !1119, metadata !1122, metadata !1125, metadata !1128, metadata !1129, metadata !1134, metadata !1137, metadata !1138, metadata !1139, metadata !1140, metadata !1141, metadata !1142, metadata !1145, metadata !1146, metadata !1149, metadata !1150, metadata !1151, metadata !1152, metadata !1153, metadata !1154, metadata !1157, metadata !1158, metadata !1159, metadata !1162, metadata !1163, metadata !1166, metadata !1175, metadata !1176, metadata !1179, metadata !5462, metadata !5527, metadata !5528, metadata !5531, metadata !5532, metadata !5536, metadata !5537, metadata !5538, metadata !5539, metadata !5542, metadata !5543, metadata !5544, metadata !5545, metadata !5546, metadata !5547, metadata !5548, metadata !5549, metadata !5550, metadata !5551, metadata !5552, metadata !5553, metadata !5556, metadata !5559, metadata !5562, metadata !5563}
!973 = metadata !{i32 786460, metadata !970, null, metadata !971, i32 0, i64 0, i64 0, i64 0, i32 0, metadata !974} ; [ DW_TAG_inheritance ]
!974 = metadata !{i32 786434, null, metadata !"ssdm_int<100 + 1024 * 0, false>", metadata !975, i32 108, i64 128, i64 64, i32 0, i32 0, null, metadata !976, i32 0, null, metadata !988} ; [ DW_TAG_class_type ]
!975 = metadata !{i32 786473, metadata !"/opt/Xilinx/SDSoC/2014.4/Vivado_HLS/2014.4/common/technology/autopilot/etc/autopilot_dt.def", metadata !"/home/trungnguyen/SDSoC/workspace/correlation_ver1/correlation_ver1_linux/SDRelease/_sds/vhls", null} ; [ DW_TAG_file_type ]
!976 = metadata !{metadata !977, metadata !979, metadata !983}
!977 = metadata !{i32 786445, metadata !974, metadata !"V", metadata !975, i32 108, i64 100, i64 64, i64 0, i32 0, metadata !978} ; [ DW_TAG_member ]
!978 = metadata !{i32 786468, null, metadata !"uint100", null, i32 0, i64 100, i64 64, i64 0, i32 0, i32 7} ; [ DW_TAG_base_type ]
!979 = metadata !{i32 786478, i32 0, metadata !974, metadata !"ssdm_int", metadata !"ssdm_int", metadata !"", metadata !975, i32 108, metadata !980, i1 false, i1 false, i32 0, i32 0, null, i32 256, i1 false, null, null, i32 0, metadata !18, i32 108} ; [ DW_TAG_subprogram ]
!980 = metadata !{i32 786453, i32 0, metadata !"", i32 0, i32 0, i64 0, i64 0, i64 0, i32 0, null, metadata !981, i32 0, i32 0} ; [ DW_TAG_subroutine_type ]
!981 = metadata !{null, metadata !982}
!982 = metadata !{i32 786447, i32 0, metadata !"", i32 0, i32 0, i64 64, i64 64, i64 0, i32 64, metadata !974} ; [ DW_TAG_pointer_type ]
!983 = metadata !{i32 786478, i32 0, metadata !974, metadata !"ssdm_int", metadata !"ssdm_int", metadata !"", metadata !975, i32 108, metadata !984, i1 false, i1 false, i32 0, i32 0, null, i32 320, i1 false, null, null, i32 0, metadata !18, i32 108} ; [ DW_TAG_subprogram ]
!984 = metadata !{i32 786453, i32 0, metadata !"", i32 0, i32 0, i64 0, i64 0, i64 0, i32 0, null, metadata !985, i32 0, i32 0} ; [ DW_TAG_subroutine_type ]
!985 = metadata !{null, metadata !982, metadata !986}
!986 = metadata !{i32 786448, null, null, null, i32 0, i64 0, i64 0, i64 0, i32 0, metadata !987} ; [ DW_TAG_reference_type ]
!987 = metadata !{i32 786470, null, metadata !"", null, i32 0, i64 0, i64 0, i64 0, i32 0, metadata !974} ; [ DW_TAG_const_type ]
!988 = metadata !{metadata !989, metadata !990}
!989 = metadata !{i32 786480, null, metadata !"_AP_N", metadata !15, i64 100, null, i32 0, i32 0} ; [ DW_TAG_template_value_parameter ]
!990 = metadata !{i32 786480, null, metadata !"_AP_S", metadata !248, i64 0, null, i32 0, i32 0} ; [ DW_TAG_template_value_parameter ]
!991 = metadata !{i32 786478, i32 0, metadata !970, metadata !"ap_int_base", metadata !"ap_int_base", metadata !"", metadata !971, i32 2375, metadata !992, i1 false, i1 false, i32 0, i32 0, null, i32 256, i1 false, null, null, i32 0, metadata !18, i32 2375} ; [ DW_TAG_subprogram ]
!992 = metadata !{i32 786453, i32 0, metadata !"", i32 0, i32 0, i64 0, i64 0, i64 0, i32 0, null, metadata !993, i32 0, i32 0} ; [ DW_TAG_subroutine_type ]
!993 = metadata !{null, metadata !994}
!994 = metadata !{i32 786447, i32 0, metadata !"", i32 0, i32 0, i64 64, i64 64, i64 0, i32 64, metadata !970} ; [ DW_TAG_pointer_type ]
!995 = metadata !{i32 786478, i32 0, metadata !970, metadata !"ap_int_base<100, false>", metadata !"ap_int_base<100, false>", metadata !"", metadata !971, i32 2387, metadata !996, i1 false, i1 false, i32 0, i32 0, null, i32 256, i1 false, null, metadata !1000, i32 0, metadata !18, i32 2387} ; [ DW_TAG_subprogram ]
!996 = metadata !{i32 786453, i32 0, metadata !"", i32 0, i32 0, i64 0, i64 0, i64 0, i32 0, null, metadata !997, i32 0, i32 0} ; [ DW_TAG_subroutine_type ]
!997 = metadata !{null, metadata !994, metadata !998}
!998 = metadata !{i32 786448, null, null, null, i32 0, i64 0, i64 0, i64 0, i32 0, metadata !999} ; [ DW_TAG_reference_type ]
!999 = metadata !{i32 786470, null, metadata !"", null, i32 0, i64 0, i64 0, i64 0, i32 0, metadata !970} ; [ DW_TAG_const_type ]
!1000 = metadata !{metadata !1001, metadata !1002}
!1001 = metadata !{i32 786480, null, metadata !"_AP_W2", metadata !15, i64 100, null, i32 0, i32 0} ; [ DW_TAG_template_value_parameter ]
!1002 = metadata !{i32 786480, null, metadata !"_AP_S2", metadata !248, i64 0, null, i32 0, i32 0} ; [ DW_TAG_template_value_parameter ]
!1003 = metadata !{i32 786478, i32 0, metadata !970, metadata !"ap_int_base<100, false>", metadata !"ap_int_base<100, false>", metadata !"", metadata !971, i32 2390, metadata !996, i1 false, i1 false, i32 0, i32 0, null, i32 256, i1 false, null, metadata !1000, i32 0, metadata !18, i32 2390} ; [ DW_TAG_subprogram ]
!1004 = metadata !{i32 786478, i32 0, metadata !970, metadata !"ap_int_base", metadata !"ap_int_base", metadata !"", metadata !971, i32 2397, metadata !1005, i1 false, i1 false, i32 0, i32 0, null, i32 384, i1 false, null, null, i32 0, metadata !18, i32 2397} ; [ DW_TAG_subprogram ]
!1005 = metadata !{i32 786453, i32 0, metadata !"", i32 0, i32 0, i64 0, i64 0, i64 0, i32 0, null, metadata !1006, i32 0, i32 0} ; [ DW_TAG_subroutine_type ]
!1006 = metadata !{null, metadata !994, metadata !248}
!1007 = metadata !{i32 786478, i32 0, metadata !970, metadata !"ap_int_base", metadata !"ap_int_base", metadata !"", metadata !971, i32 2398, metadata !1008, i1 false, i1 false, i32 0, i32 0, null, i32 384, i1 false, null, null, i32 0, metadata !18, i32 2398} ; [ DW_TAG_subprogram ]
!1008 = metadata !{i32 786453, i32 0, metadata !"", i32 0, i32 0, i64 0, i64 0, i64 0, i32 0, null, metadata !1009, i32 0, i32 0} ; [ DW_TAG_subroutine_type ]
!1009 = metadata !{null, metadata !994, metadata !1010}
!1010 = metadata !{i32 786468, null, metadata !"signed char", null, i32 0, i64 8, i64 8, i64 0, i32 0, i32 6} ; [ DW_TAG_base_type ]
!1011 = metadata !{i32 786478, i32 0, metadata !970, metadata !"ap_int_base", metadata !"ap_int_base", metadata !"", metadata !971, i32 2399, metadata !1012, i1 false, i1 false, i32 0, i32 0, null, i32 384, i1 false, null, null, i32 0, metadata !18, i32 2399} ; [ DW_TAG_subprogram ]
!1012 = metadata !{i32 786453, i32 0, metadata !"", i32 0, i32 0, i64 0, i64 0, i64 0, i32 0, null, metadata !1013, i32 0, i32 0} ; [ DW_TAG_subroutine_type ]
!1013 = metadata !{null, metadata !994, metadata !1014}
!1014 = metadata !{i32 786468, null, metadata !"unsigned char", null, i32 0, i64 8, i64 8, i64 0, i32 0, i32 8} ; [ DW_TAG_base_type ]
!1015 = metadata !{i32 786478, i32 0, metadata !970, metadata !"ap_int_base", metadata !"ap_int_base", metadata !"", metadata !971, i32 2400, metadata !1016, i1 false, i1 false, i32 0, i32 0, null, i32 384, i1 false, null, null, i32 0, metadata !18, i32 2400} ; [ DW_TAG_subprogram ]
!1016 = metadata !{i32 786453, i32 0, metadata !"", i32 0, i32 0, i64 0, i64 0, i64 0, i32 0, null, metadata !1017, i32 0, i32 0} ; [ DW_TAG_subroutine_type ]
!1017 = metadata !{null, metadata !994, metadata !1018}
!1018 = metadata !{i32 786468, null, metadata !"short", null, i32 0, i64 16, i64 16, i64 0, i32 0, i32 5} ; [ DW_TAG_base_type ]
!1019 = metadata !{i32 786478, i32 0, metadata !970, metadata !"ap_int_base", metadata !"ap_int_base", metadata !"", metadata !971, i32 2401, metadata !1020, i1 false, i1 false, i32 0, i32 0, null, i32 384, i1 false, null, null, i32 0, metadata !18, i32 2401} ; [ DW_TAG_subprogram ]
!1020 = metadata !{i32 786453, i32 0, metadata !"", i32 0, i32 0, i64 0, i64 0, i64 0, i32 0, null, metadata !1021, i32 0, i32 0} ; [ DW_TAG_subroutine_type ]
!1021 = metadata !{null, metadata !994, metadata !175}
!1022 = metadata !{i32 786478, i32 0, metadata !970, metadata !"ap_int_base", metadata !"ap_int_base", metadata !"", metadata !971, i32 2402, metadata !1023, i1 false, i1 false, i32 0, i32 0, null, i32 384, i1 false, null, null, i32 0, metadata !18, i32 2402} ; [ DW_TAG_subprogram ]
!1023 = metadata !{i32 786453, i32 0, metadata !"", i32 0, i32 0, i64 0, i64 0, i64 0, i32 0, null, metadata !1024, i32 0, i32 0} ; [ DW_TAG_subroutine_type ]
!1024 = metadata !{null, metadata !994, metadata !15}
!1025 = metadata !{i32 786478, i32 0, metadata !970, metadata !"ap_int_base", metadata !"ap_int_base", metadata !"", metadata !971, i32 2403, metadata !1026, i1 false, i1 false, i32 0, i32 0, null, i32 384, i1 false, null, null, i32 0, metadata !18, i32 2403} ; [ DW_TAG_subprogram ]
!1026 = metadata !{i32 786453, i32 0, metadata !"", i32 0, i32 0, i64 0, i64 0, i64 0, i32 0, null, metadata !1027, i32 0, i32 0} ; [ DW_TAG_subroutine_type ]
!1027 = metadata !{null, metadata !994, metadata !1028}
!1028 = metadata !{i32 786468, null, metadata !"unsigned int", null, i32 0, i64 32, i64 32, i64 0, i32 0, i32 7} ; [ DW_TAG_base_type ]
!1029 = metadata !{i32 786478, i32 0, metadata !970, metadata !"ap_int_base", metadata !"ap_int_base", metadata !"", metadata !971, i32 2404, metadata !1030, i1 false, i1 false, i32 0, i32 0, null, i32 384, i1 false, null, null, i32 0, metadata !18, i32 2404} ; [ DW_TAG_subprogram ]
!1030 = metadata !{i32 786453, i32 0, metadata !"", i32 0, i32 0, i64 0, i64 0, i64 0, i32 0, null, metadata !1031, i32 0, i32 0} ; [ DW_TAG_subroutine_type ]
!1031 = metadata !{null, metadata !994, metadata !43}
!1032 = metadata !{i32 786478, i32 0, metadata !970, metadata !"ap_int_base", metadata !"ap_int_base", metadata !"", metadata !971, i32 2405, metadata !1033, i1 false, i1 false, i32 0, i32 0, null, i32 384, i1 false, null, null, i32 0, metadata !18, i32 2405} ; [ DW_TAG_subprogram ]
!1033 = metadata !{i32 786453, i32 0, metadata !"", i32 0, i32 0, i64 0, i64 0, i64 0, i32 0, null, metadata !1034, i32 0, i32 0} ; [ DW_TAG_subroutine_type ]
!1034 = metadata !{null, metadata !994, metadata !150}
!1035 = metadata !{i32 786478, i32 0, metadata !970, metadata !"ap_int_base", metadata !"ap_int_base", metadata !"", metadata !971, i32 2406, metadata !1036, i1 false, i1 false, i32 0, i32 0, null, i32 384, i1 false, null, null, i32 0, metadata !18, i32 2406} ; [ DW_TAG_subprogram ]
!1036 = metadata !{i32 786453, i32 0, metadata !"", i32 0, i32 0, i64 0, i64 0, i64 0, i32 0, null, metadata !1037, i32 0, i32 0} ; [ DW_TAG_subroutine_type ]
!1037 = metadata !{null, metadata !994, metadata !1038}
!1038 = metadata !{i32 786454, null, metadata !"ap_slong", metadata !971, i32 112, i64 0, i64 0, i64 0, i32 0, metadata !1039} ; [ DW_TAG_typedef ]
!1039 = metadata !{i32 786468, null, metadata !"long long int", null, i32 0, i64 64, i64 64, i64 0, i32 0, i32 5} ; [ DW_TAG_base_type ]
!1040 = metadata !{i32 786478, i32 0, metadata !970, metadata !"ap_int_base", metadata !"ap_int_base", metadata !"", metadata !971, i32 2407, metadata !1041, i1 false, i1 false, i32 0, i32 0, null, i32 384, i1 false, null, null, i32 0, metadata !18, i32 2407} ; [ DW_TAG_subprogram ]
!1041 = metadata !{i32 786453, i32 0, metadata !"", i32 0, i32 0, i64 0, i64 0, i64 0, i32 0, null, metadata !1042, i32 0, i32 0} ; [ DW_TAG_subroutine_type ]
!1042 = metadata !{null, metadata !994, metadata !1043}
!1043 = metadata !{i32 786454, null, metadata !"ap_ulong", metadata !971, i32 111, i64 0, i64 0, i64 0, i32 0, metadata !1044} ; [ DW_TAG_typedef ]
!1044 = metadata !{i32 786468, null, metadata !"long long unsigned int", null, i32 0, i64 64, i64 64, i64 0, i32 0, i32 7} ; [ DW_TAG_base_type ]
!1045 = metadata !{i32 786478, i32 0, metadata !970, metadata !"ap_int_base", metadata !"ap_int_base", metadata !"", metadata !971, i32 2408, metadata !1046, i1 false, i1 false, i32 0, i32 0, null, i32 384, i1 false, null, null, i32 0, metadata !18, i32 2408} ; [ DW_TAG_subprogram ]
!1046 = metadata !{i32 786453, i32 0, metadata !"", i32 0, i32 0, i64 0, i64 0, i64 0, i32 0, null, metadata !1047, i32 0, i32 0} ; [ DW_TAG_subroutine_type ]
!1047 = metadata !{null, metadata !994, metadata !17}
!1048 = metadata !{i32 786478, i32 0, metadata !970, metadata !"ap_int_base", metadata !"ap_int_base", metadata !"", metadata !971, i32 2409, metadata !1049, i1 false, i1 false, i32 0, i32 0, null, i32 384, i1 false, null, null, i32 0, metadata !18, i32 2409} ; [ DW_TAG_subprogram ]
!1049 = metadata !{i32 786453, i32 0, metadata !"", i32 0, i32 0, i64 0, i64 0, i64 0, i32 0, null, metadata !1050, i32 0, i32 0} ; [ DW_TAG_subroutine_type ]
!1050 = metadata !{null, metadata !994, metadata !1051}
!1051 = metadata !{i32 786468, null, metadata !"double", null, i32 0, i64 64, i64 64, i64 0, i32 0, i32 4} ; [ DW_TAG_base_type ]
!1052 = metadata !{i32 786478, i32 0, metadata !970, metadata !"ap_int_base", metadata !"ap_int_base", metadata !"", metadata !971, i32 2436, metadata !1053, i1 false, i1 false, i32 0, i32 0, null, i32 256, i1 false, null, null, i32 0, metadata !18, i32 2436} ; [ DW_TAG_subprogram ]
!1053 = metadata !{i32 786453, i32 0, metadata !"", i32 0, i32 0, i64 0, i64 0, i64 0, i32 0, null, metadata !1054, i32 0, i32 0} ; [ DW_TAG_subroutine_type ]
!1054 = metadata !{null, metadata !994, metadata !182}
!1055 = metadata !{i32 786478, i32 0, metadata !970, metadata !"ap_int_base", metadata !"ap_int_base", metadata !"", metadata !971, i32 2443, metadata !1056, i1 false, i1 false, i32 0, i32 0, null, i32 256, i1 false, null, null, i32 0, metadata !18, i32 2443} ; [ DW_TAG_subprogram ]
!1056 = metadata !{i32 786453, i32 0, metadata !"", i32 0, i32 0, i64 0, i64 0, i64 0, i32 0, null, metadata !1057, i32 0, i32 0} ; [ DW_TAG_subroutine_type ]
!1057 = metadata !{null, metadata !994, metadata !182, metadata !1010}
!1058 = metadata !{i32 786478, i32 0, metadata !970, metadata !"read", metadata !"read", metadata !"_ZNV11ap_int_baseILi100ELb0ELb0EE4readEv", metadata !971, i32 2464, metadata !1059, i1 false, i1 false, i32 0, i32 0, null, i32 256, i1 false, null, null, i32 0, metadata !18, i32 2464} ; [ DW_TAG_subprogram ]
!1059 = metadata !{i32 786453, i32 0, metadata !"", i32 0, i32 0, i64 0, i64 0, i64 0, i32 0, null, metadata !1060, i32 0, i32 0} ; [ DW_TAG_subroutine_type ]
!1060 = metadata !{metadata !970, metadata !1061}
!1061 = metadata !{i32 786447, i32 0, metadata !"", i32 0, i32 0, i64 64, i64 64, i64 0, i32 64, metadata !1062} ; [ DW_TAG_pointer_type ]
!1062 = metadata !{i32 786485, null, metadata !"", null, i32 0, i64 0, i64 0, i64 0, i32 0, metadata !970} ; [ DW_TAG_volatile_type ]
!1063 = metadata !{i32 786478, i32 0, metadata !970, metadata !"write", metadata !"write", metadata !"_ZNV11ap_int_baseILi100ELb0ELb0EE5writeERKS0_", metadata !971, i32 2470, metadata !1064, i1 false, i1 false, i32 0, i32 0, null, i32 256, i1 false, null, null, i32 0, metadata !18, i32 2470} ; [ DW_TAG_subprogram ]
!1064 = metadata !{i32 786453, i32 0, metadata !"", i32 0, i32 0, i64 0, i64 0, i64 0, i32 0, null, metadata !1065, i32 0, i32 0} ; [ DW_TAG_subroutine_type ]
!1065 = metadata !{null, metadata !1061, metadata !998}
!1066 = metadata !{i32 786478, i32 0, metadata !970, metadata !"operator=", metadata !"operator=", metadata !"_ZNV11ap_int_baseILi100ELb0ELb0EEaSERVKS0_", metadata !971, i32 2482, metadata !1064, i1 false, i1 false, i32 0, i32 0, null, i32 256, i1 false, null, null, i32 0, metadata !18, i32 2482} ; [ DW_TAG_subprogram ]
!1067 = metadata !{i32 786478, i32 0, metadata !970, metadata !"operator=", metadata !"operator=", metadata !"_ZNV11ap_int_baseILi100ELb0ELb0EEaSERKS0_", metadata !971, i32 2491, metadata !1064, i1 false, i1 false, i32 0, i32 0, null, i32 256, i1 false, null, null, i32 0, metadata !18, i32 2491} ; [ DW_TAG_subprogram ]
!1068 = metadata !{i32 786478, i32 0, metadata !970, metadata !"operator=", metadata !"operator=", metadata !"_ZN11ap_int_baseILi100ELb0ELb0EEaSERVKS0_", metadata !971, i32 2514, metadata !1069, i1 false, i1 false, i32 0, i32 0, null, i32 256, i1 false, null, null, i32 0, metadata !18, i32 2514} ; [ DW_TAG_subprogram ]
!1069 = metadata !{i32 786453, i32 0, metadata !"", i32 0, i32 0, i64 0, i64 0, i64 0, i32 0, null, metadata !1070, i32 0, i32 0} ; [ DW_TAG_subroutine_type ]
!1070 = metadata !{metadata !1071, metadata !994, metadata !998}
!1071 = metadata !{i32 786448, null, null, null, i32 0, i64 0, i64 0, i64 0, i32 0, metadata !970} ; [ DW_TAG_reference_type ]
!1072 = metadata !{i32 786478, i32 0, metadata !970, metadata !"operator=", metadata !"operator=", metadata !"_ZN11ap_int_baseILi100ELb0ELb0EEaSERKS0_", metadata !971, i32 2519, metadata !1069, i1 false, i1 false, i32 0, i32 0, null, i32 256, i1 false, null, null, i32 0, metadata !18, i32 2519} ; [ DW_TAG_subprogram ]
!1073 = metadata !{i32 786478, i32 0, metadata !970, metadata !"operator=", metadata !"operator=", metadata !"_ZN11ap_int_baseILi100ELb0ELb0EEaSEPKc", metadata !971, i32 2523, metadata !1074, i1 false, i1 false, i32 0, i32 0, null, i32 256, i1 false, null, null, i32 0, metadata !18, i32 2523} ; [ DW_TAG_subprogram ]
!1074 = metadata !{i32 786453, i32 0, metadata !"", i32 0, i32 0, i64 0, i64 0, i64 0, i32 0, null, metadata !1075, i32 0, i32 0} ; [ DW_TAG_subroutine_type ]
!1075 = metadata !{metadata !1071, metadata !994, metadata !182}
!1076 = metadata !{i32 786478, i32 0, metadata !970, metadata !"set", metadata !"set", metadata !"_ZN11ap_int_baseILi100ELb0ELb0EE3setEPKca", metadata !971, i32 2531, metadata !1077, i1 false, i1 false, i32 0, i32 0, null, i32 256, i1 false, null, null, i32 0, metadata !18, i32 2531} ; [ DW_TAG_subprogram ]
!1077 = metadata !{i32 786453, i32 0, metadata !"", i32 0, i32 0, i64 0, i64 0, i64 0, i32 0, null, metadata !1078, i32 0, i32 0} ; [ DW_TAG_subroutine_type ]
!1078 = metadata !{metadata !1071, metadata !994, metadata !182, metadata !1010}
!1079 = metadata !{i32 786478, i32 0, metadata !970, metadata !"operator=", metadata !"operator=", metadata !"_ZN11ap_int_baseILi100ELb0ELb0EEaSEc", metadata !971, i32 2545, metadata !1080, i1 false, i1 false, i32 0, i32 0, null, i32 256, i1 false, null, null, i32 0, metadata !18, i32 2545} ; [ DW_TAG_subprogram ]
!1080 = metadata !{i32 786453, i32 0, metadata !"", i32 0, i32 0, i64 0, i64 0, i64 0, i32 0, null, metadata !1081, i32 0, i32 0} ; [ DW_TAG_subroutine_type ]
!1081 = metadata !{metadata !1071, metadata !994, metadata !184}
!1082 = metadata !{i32 786478, i32 0, metadata !970, metadata !"operator=", metadata !"operator=", metadata !"_ZN11ap_int_baseILi100ELb0ELb0EEaSEh", metadata !971, i32 2546, metadata !1083, i1 false, i1 false, i32 0, i32 0, null, i32 256, i1 false, null, null, i32 0, metadata !18, i32 2546} ; [ DW_TAG_subprogram ]
!1083 = metadata !{i32 786453, i32 0, metadata !"", i32 0, i32 0, i64 0, i64 0, i64 0, i32 0, null, metadata !1084, i32 0, i32 0} ; [ DW_TAG_subroutine_type ]
!1084 = metadata !{metadata !1071, metadata !994, metadata !1014}
!1085 = metadata !{i32 786478, i32 0, metadata !970, metadata !"operator=", metadata !"operator=", metadata !"_ZN11ap_int_baseILi100ELb0ELb0EEaSEs", metadata !971, i32 2547, metadata !1086, i1 false, i1 false, i32 0, i32 0, null, i32 256, i1 false, null, null, i32 0, metadata !18, i32 2547} ; [ DW_TAG_subprogram ]
!1086 = metadata !{i32 786453, i32 0, metadata !"", i32 0, i32 0, i64 0, i64 0, i64 0, i32 0, null, metadata !1087, i32 0, i32 0} ; [ DW_TAG_subroutine_type ]
!1087 = metadata !{metadata !1071, metadata !994, metadata !1018}
!1088 = metadata !{i32 786478, i32 0, metadata !970, metadata !"operator=", metadata !"operator=", metadata !"_ZN11ap_int_baseILi100ELb0ELb0EEaSEt", metadata !971, i32 2548, metadata !1089, i1 false, i1 false, i32 0, i32 0, null, i32 256, i1 false, null, null, i32 0, metadata !18, i32 2548} ; [ DW_TAG_subprogram ]
!1089 = metadata !{i32 786453, i32 0, metadata !"", i32 0, i32 0, i64 0, i64 0, i64 0, i32 0, null, metadata !1090, i32 0, i32 0} ; [ DW_TAG_subroutine_type ]
!1090 = metadata !{metadata !1071, metadata !994, metadata !175}
!1091 = metadata !{i32 786478, i32 0, metadata !970, metadata !"operator=", metadata !"operator=", metadata !"_ZN11ap_int_baseILi100ELb0ELb0EEaSEi", metadata !971, i32 2549, metadata !1092, i1 false, i1 false, i32 0, i32 0, null, i32 256, i1 false, null, null, i32 0, metadata !18, i32 2549} ; [ DW_TAG_subprogram ]
!1092 = metadata !{i32 786453, i32 0, metadata !"", i32 0, i32 0, i64 0, i64 0, i64 0, i32 0, null, metadata !1093, i32 0, i32 0} ; [ DW_TAG_subroutine_type ]
!1093 = metadata !{metadata !1071, metadata !994, metadata !15}
!1094 = metadata !{i32 786478, i32 0, metadata !970, metadata !"operator=", metadata !"operator=", metadata !"_ZN11ap_int_baseILi100ELb0ELb0EEaSEj", metadata !971, i32 2550, metadata !1095, i1 false, i1 false, i32 0, i32 0, null, i32 256, i1 false, null, null, i32 0, metadata !18, i32 2550} ; [ DW_TAG_subprogram ]
!1095 = metadata !{i32 786453, i32 0, metadata !"", i32 0, i32 0, i64 0, i64 0, i64 0, i32 0, null, metadata !1096, i32 0, i32 0} ; [ DW_TAG_subroutine_type ]
!1096 = metadata !{metadata !1071, metadata !994, metadata !1028}
!1097 = metadata !{i32 786478, i32 0, metadata !970, metadata !"operator=", metadata !"operator=", metadata !"_ZN11ap_int_baseILi100ELb0ELb0EEaSEx", metadata !971, i32 2551, metadata !1098, i1 false, i1 false, i32 0, i32 0, null, i32 256, i1 false, null, null, i32 0, metadata !18, i32 2551} ; [ DW_TAG_subprogram ]
!1098 = metadata !{i32 786453, i32 0, metadata !"", i32 0, i32 0, i64 0, i64 0, i64 0, i32 0, null, metadata !1099, i32 0, i32 0} ; [ DW_TAG_subroutine_type ]
!1099 = metadata !{metadata !1071, metadata !994, metadata !1038}
