; ModuleID = '/home/trungnguyen/SDSoC/thesis/SDRelease/_sds/vhls/correlation_accel_v1/solution/.autopilot/db/a.g.1.bc'
target datalayout = "e-p:64:64:64-i1:8:8-i8:8:8-i16:16:16-i32:32:32-i64:64:64-f32:32:32-f64:64:64-v64:64:64-v128:128:128-a0:0:64-s0:64:64-f80:128:128-n8:16:32:64-S128"
target triple = "x86_64-unknown-linux-gnu"

@.str1804 = private unnamed_addr constant [1 x i8] zeroinitializer, align 1 ; [#uses=1 type=[1 x i8]*]
@.str1805 = private unnamed_addr constant [6 x i8] c"m_axi\00", align 1 ; [#uses=1 type=[6 x i8]*]
@.str1806 = private unnamed_addr constant [7 x i8] c"direct\00", align 1 ; [#uses=1 type=[7 x i8]*]
@.str1807 = private unnamed_addr constant [11 x i8] c"ap_ctrl_hs\00", align 1 ; [#uses=1 type=[11 x i8]*]
@weight_rom = internal global [252 x float] zeroinitializer, align 16 ; [#uses=2 type=[252 x float]*]
@.str1808 = private unnamed_addr constant [11 x i8] c"OUTER_LOOP\00", align 1 ; [#uses=1 type=[11 x i8]*]
@bramA = internal unnamed_addr global [252 x float] zeroinitializer, align 16 ; [#uses=3 type=[252 x float]*]
@bramB = internal unnamed_addr global [252 x float] zeroinitializer, align 16 ; [#uses=3 type=[252 x float]*]
@.str1809 = private unnamed_addr constant [11 x i8] c"INNER_LOOP\00", align 1 ; [#uses=1 type=[11 x i8]*]
@counter = internal unnamed_addr global i32 0, align 4 ; [#uses=3 type=i32*]
@.str1810 = private unnamed_addr constant [16 x i8] c"RESET_REGISTERS\00", align 1 ; [#uses=1 type=[16 x i8]*]
@.str1811 = private unnamed_addr constant [18 x i8] c"ACCUMULATION_LOOP\00", align 1 ; [#uses=1 type=[18 x i8]*]
@.str1812 = private unnamed_addr constant [16 x i8] c"LAST_ACCUM_LOOP\00", align 1 ; [#uses=1 type=[16 x i8]*]
@.str1814 = private unnamed_addr constant [16 x i8] c"INIT_WEIGHT_ROM\00", align 1 ; [#uses=1 type=[16 x i8]*]
@.str1815 = private unnamed_addr constant [19 x i8] c"COMP_SUM_OF_WEIGHT\00", align 1 ; [#uses=1 type=[19 x i8]*]
@llvm.global_ctors = appending global [1 x { i32, void ()* }] [{ i32, void ()* } { i32 65535, void ()* @_GLOBAL__I_a }] ; [#uses=0 type=[1 x { i32, void ()* }]*]
@str = internal constant [21 x i8] c"correlation_accel_v1\00" ; [#uses=1 type=[21 x i8]*]
@str1 = internal constant [72 x i8] c"memcpy.correlation_accel_v1(int, int, float*, float*)::bramA.in_indices\00" ; [#uses=1 type=[72 x i8]*]
@str2 = internal constant [1 x i8] zeroinitializer ; [#uses=1 type=[1 x i8]*]
@str3 = internal constant [1 x i8] zeroinitializer ; [#uses=1 type=[1 x i8]*]
@.str4 = internal constant [17 x i8] c"burstread.region\00" ; [#uses=2 type=[17 x i8]*]
@str5 = internal constant [72 x i8] c"memcpy.correlation_accel_v1(int, int, float*, float*)::bramB.in_indices\00" ; [#uses=1 type=[72 x i8]*]
@str6 = internal constant [1 x i8] zeroinitializer ; [#uses=1 type=[1 x i8]*]
@str7 = internal constant [1 x i8] zeroinitializer ; [#uses=1 type=[1 x i8]*]
@.str15 = internal constant [17 x i8] c"burstread.region\00" ; [#uses=2 type=[17 x i8]*]

; [#uses=0]
define i32 @correlation_accel_v1(i32 %number_of_days, i32 %number_of_indices, float* %in_indices, float* %out_correlation) nounwind uwtable {
  call void (...)* @_ssdm_op_SpecBitsMap(i32 0) nounwind, !map !14920
  call void (...)* @_ssdm_op_SpecTopModule([21 x i8]* @str) nounwind
  %acc_returnA = alloca [6 x float], align 16     ; [#uses=3 type=[6 x float]*]
  call void @llvm.dbg.declare(metadata !{[6 x float]* %acc_returnA}, metadata !14926), !dbg !14935 ; [debug line = 75:12] [debug variable = acc_returnA]
  %acc_returnB = alloca [6 x float], align 16     ; [#uses=3 type=[6 x float]*]
  call void @llvm.dbg.declare(metadata !{[6 x float]* %acc_returnB}, metadata !14936), !dbg !14937 ; [debug line = 76:12] [debug variable = acc_returnB]
  %acc_weight_returnSquareA = alloca [6 x float], align 16 ; [#uses=3 type=[6 x float]*]
  call void @llvm.dbg.declare(metadata !{[6 x float]* %acc_weight_returnSquareA}, metadata !14938), !dbg !14939 ; [debug line = 77:12] [debug variable = acc_weight_returnSquareA]
  %acc_weight_returnA = alloca [6 x float], align 16 ; [#uses=3 type=[6 x float]*]
  call void @llvm.dbg.declare(metadata !{[6 x float]* %acc_weight_returnA}, metadata !14940), !dbg !14941 ; [debug line = 78:12] [debug variable = acc_weight_returnA]
  %acc_weight_returnSquareB = alloca [6 x float], align 16 ; [#uses=3 type=[6 x float]*]
  call void @llvm.dbg.declare(metadata !{[6 x float]* %acc_weight_returnSquareB}, metadata !14942), !dbg !14943 ; [debug line = 79:12] [debug variable = acc_weight_returnSquareB]
  %acc_weight_returnB = alloca [6 x float], align 16 ; [#uses=3 type=[6 x float]*]
  call void @llvm.dbg.declare(metadata !{[6 x float]* %acc_weight_returnB}, metadata !14944), !dbg !14945 ; [debug line = 80:12] [debug variable = acc_weight_returnB]
  %acc_weight_returnA_returnB = alloca [6 x float], align 16 ; [#uses=3 type=[6 x float]*]
  call void @llvm.dbg.declare(metadata !{[6 x float]* %acc_weight_returnA_returnB}, metadata !14946), !dbg !14947 ; [debug line = 81:12] [debug variable = acc_weight_returnA_returnB]
  call void @llvm.dbg.value(metadata !{i32 %number_of_days}, i64 0, metadata !14948), !dbg !14949 ; [debug line = 26:6] [debug variable = number_of_days]
  call void @llvm.dbg.value(metadata !{i32 %number_of_indices}, i64 0, metadata !14950), !dbg !14951 ; [debug line = 27:6] [debug variable = number_of_indices]
  call void @llvm.dbg.value(metadata !{float* %in_indices}, i64 0, metadata !14952), !dbg !14953 ; [debug line = 29:8] [debug variable = in_indices]
  call void @llvm.dbg.value(metadata !{float* %out_correlation}, i64 0, metadata !14954), !dbg !14955 ; [debug line = 30:8] [debug variable = out_correlation]
  call void (...)* @_ssdm_SpecArrayDimSize(float* %in_indices, i32 2520000) nounwind, !dbg !14956 ; [debug line = 32:2]
  call void (...)* @_ssdm_SpecArrayDimSize(float* %out_correlation, i32 49995000) nounwind, !dbg !14957 ; [debug line = 32:49]
  call void (...)* @_ssdm_op_SpecLatency(i32 1, i32 65535, i8* getelementptr inbounds ([1 x i8]* @.str1804, i64 0, i64 0)) nounwind, !dbg !14958 ; [debug line = 34:1]
  call void (...)* @_ssdm_op_SpecInterface(float* %in_indices, i8* getelementptr inbounds ([6 x i8]* @.str1805, i64 0, i64 0), i32 0, i32 0, i32 0, i32 2520000, i8* getelementptr inbounds ([1 x i8]* @.str1804, i64 0, i64 0), i8* getelementptr inbounds ([7 x i8]* @.str1806, i64 0, i64 0), i8* getelementptr inbounds ([1 x i8]* @.str1804, i64 0, i64 0)) nounwind, !dbg !14959 ; [debug line = 38:1]
  call void (...)* @_ssdm_op_SpecInterface(float* %out_correlation, i8* getelementptr inbounds ([6 x i8]* @.str1805, i64 0, i64 0), i32 0, i32 0, i32 0, i32 49995000, i8* getelementptr inbounds ([1 x i8]* @.str1804, i64 0, i64 0), i8* getelementptr inbounds ([7 x i8]* @.str1806, i64 0, i64 0), i8* getelementptr inbounds ([1 x i8]* @.str1804, i64 0, i64 0)) nounwind, !dbg !14960 ; [debug line = 39:1]
  call void (...)* @_ssdm_op_SpecInterface(i32 0, i8* getelementptr inbounds ([11 x i8]* @.str1807, i64 0, i64 0), i32 0, i32 0, i32 0, i32 0, i8* getelementptr inbounds ([1 x i8]* @.str1804, i64 0, i64 0), i8* getelementptr inbounds ([1 x i8]* @.str1804, i64 0, i64 0), i8* getelementptr inbounds ([1 x i8]* @.str1804, i64 0, i64 0)) nounwind, !dbg !14961 ; [debug line = 41:1]
  call void @llvm.dbg.value(metadata !{i32 %number_of_days}, i64 0, metadata !14962), !dbg !14963 ; [debug line = 43:37] [debug variable = NUMBER_OF_DAYS]
  call void @llvm.dbg.value(metadata !{i32 %number_of_indices}, i64 0, metadata !14964), !dbg !14965 ; [debug line = 44:43] [debug variable = NUMBER_OF_INDICES]
  call fastcc void @weight_rom_init(float* getelementptr inbounds ([252 x float]* @weight_rom, i64 0, i64 0), i32 %number_of_days), !dbg !14966 ; [debug line = 50:2]
  %tmp = add nsw i32 %number_of_indices, -1, !dbg !14967 ; [#uses=1 type=i32] [debug line = 56:24]
  %tmp.1 = add nsw i32 %number_of_days, -1, !dbg !14968 ; [#uses=2 type=i32] [debug line = 104:19]
  %tmp.2 = sitofp i32 %tmp.1 to float, !dbg !14970 ; [#uses=2 type=float] [debug line = 149:65]
  br label %1, !dbg !14967                        ; [debug line = 56:24]

; <label>:1                                       ; preds = %14, %0
  %row_index = phi i32 [ 0, %0 ], [ %row_index.1, %14 ] ; [#uses=4 type=i32]
  %tmp.3 = icmp slt i32 %row_index, %tmp, !dbg !14967 ; [#uses=1 type=i1] [debug line = 56:24]
  br i1 %tmp.3, label %2, label %15, !dbg !14967  ; [debug line = 56:24]

; <label>:2                                       ; preds = %1
  call void (...)* @_ssdm_op_SpecLoopName(i8* getelementptr inbounds ([11 x i8]* @.str1808, i64 0, i64 0)) nounwind, !dbg !14971 ; [debug line = 56:74]
  %rbegin1 = call i32 (...)* @_ssdm_op_SpecRegionBegin(i8* getelementptr inbounds ([11 x i8]* @.str1808, i64 0, i64 0)) nounwind, !dbg !14972 ; [#uses=1 type=i32] [debug line = 56:110]
  %tmp.4 = mul nsw i32 %row_index, %number_of_days, !dbg !14973 ; [#uses=1 type=i32] [debug line = 61:4]
  %tmp.5 = trunc i32 %number_of_days to i30, !dbg !14973 ; [#uses=1 type=i30] [debug line = 61:4]
  %.add.i32.shr = zext i30 %tmp.5 to i32, !dbg !14973 ; [#uses=4 type=i32] [debug line = 61:4]
  br label %burst.rd.header

burst.rd.header:                                  ; preds = %burst.rd.body, %2
  %indvar = phi i32 [ 0, %2 ], [ %indvar.next, %burst.rd.body ] ; [#uses=4 type=i32]
  %exitcond2 = icmp eq i32 %indvar, %.add.i32.shr ; [#uses=1 type=i1]
  br i1 %exitcond2, label %burst.rd.end.preheader, label %burst.rd.body

burst.rd.end.preheader:                           ; preds = %burst.rd.header
  br label %burst.rd.end, !dbg !14974             ; [debug line = 66:41]

burst.rd.body:                                    ; preds = %burst.rd.header
  %burstread.rbegin = call i32 (...)* @_ssdm_op_SpecRegionBegin([17 x i8]* @.str4) nounwind ; [#uses=1 type=i32]
  %3 = call i32 (...)* @_ssdm_op_SpecBurst(float* %in_indices, i32 1, i32 %.add.i32.shr) nounwind ; [#uses=0 type=i32]
  %4 = call i32 (...)* @_ssdm_SpecLoopFlatten(i32 1, [1 x i8]* @str3) nounwind ; [#uses=0 type=i32]
  call void (...)* @_ssdm_op_SpecPipeline(i32 1, i32 1, i32 1, i32 0, [1 x i8]* @str2)
  call void (...)* @_ssdm_op_SpecLoopName([72 x i8]* @str1)
  %indvar.next = add i32 %indvar, 1               ; [#uses=1 type=i32]
  %in_indices.addr = add i32 %indvar, %tmp.4      ; [#uses=1 type=i32]
  %tmp.6 = sext i32 %in_indices.addr to i64, !dbg !14973 ; [#uses=1 type=i64] [debug line = 61:4]
  %in_indices.addr.1 = getelementptr float* %in_indices, i64 %tmp.6, !dbg !14973 ; [#uses=1 type=float*] [debug line = 61:4]
  %in_indices.load = load float* %in_indices.addr.1, align 4, !dbg !14973 ; [#uses=1 type=float] [debug line = 61:4]
  %tmp.7 = sext i32 %indvar to i64, !dbg !14973   ; [#uses=1 type=i64] [debug line = 61:4]
  %bramA.addr = getelementptr [252 x float]* @bramA, i64 0, i64 %tmp.7, !dbg !14973 ; [#uses=1 type=float*] [debug line = 61:4]
  store float %in_indices.load, float* %bramA.addr, align 4, !dbg !14973 ; [debug line = 61:4]
  %burstread.rend = call i32 (...)* @_ssdm_op_SpecRegionEnd([17 x i8]* @.str4, i32 %burstread.rbegin) nounwind ; [#uses=0 type=i32]
  br label %burst.rd.header

burst.rd.end:                                     ; preds = %13, %burst.rd.end.preheader
  %column_index.0.in = phi i32 [ %column_index, %13 ], [ %row_index, %burst.rd.end.preheader ] ; [#uses=1 type=i32]
  %column_index = add nsw i32 %column_index.0.in, 1, !dbg !14974 ; [#uses=3 type=i32] [debug line = 66:41]
  call void @llvm.dbg.value(metadata !{i32 %column_index}, i64 0, metadata !14975), !dbg !14974 ; [debug line = 66:41] [debug variable = column_index]
  %tmp.8 = icmp slt i32 %column_index, %number_of_indices, !dbg !14974 ; [#uses=1 type=i1] [debug line = 66:41]
  br i1 %tmp.8, label %5, label %14, !dbg !14974  ; [debug line = 66:41]

; <label>:5                                       ; preds = %burst.rd.end
  call void (...)* @_ssdm_op_SpecLoopName(i8* getelementptr inbounds ([11 x i8]* @.str1809, i64 0, i64 0)) nounwind, !dbg !14976 ; [debug line = 66:93]
  %rbegin2 = call i32 (...)* @_ssdm_op_SpecRegionBegin(i8* getelementptr inbounds ([11 x i8]* @.str1809, i64 0, i64 0)) nounwind, !dbg !14977 ; [#uses=1 type=i32] [debug line = 66:129]
  %tmp.9 = mul nsw i32 %column_index, %number_of_days, !dbg !14978 ; [#uses=1 type=i32] [debug line = 68:6]
  br label %burst.rd.header6

burst.rd.header6:                                 ; preds = %burst.rd.body7, %5
  %indvar8 = phi i32 [ 0, %5 ], [ %indvar.next9, %burst.rd.body7 ] ; [#uses=4 type=i32]
  %exitcond3 = icmp eq i32 %indvar8, %.add.i32.shr ; [#uses=1 type=i1]
  br i1 %exitcond3, label %burst.rd.end5.preheader, label %burst.rd.body7

burst.rd.end5.preheader:                          ; preds = %burst.rd.header6
  br label %burst.rd.end5, !dbg !14979            ; [debug line = 88:19]

burst.rd.body7:                                   ; preds = %burst.rd.header6
  %burstread.rbegin1 = call i32 (...)* @_ssdm_op_SpecRegionBegin([17 x i8]* @.str15) nounwind ; [#uses=1 type=i32]
  %6 = call i32 (...)* @_ssdm_op_SpecBurst(float* %in_indices, i32 1, i32 %.add.i32.shr) nounwind ; [#uses=0 type=i32]
  %7 = call i32 (...)* @_ssdm_SpecLoopFlatten(i32 1, [1 x i8]* @str7) nounwind ; [#uses=0 type=i32]
  call void (...)* @_ssdm_op_SpecPipeline(i32 1, i32 1, i32 1, i32 0, [1 x i8]* @str6)
  call void (...)* @_ssdm_op_SpecLoopName([72 x i8]* @str5)
  %indvar.next9 = add i32 %indvar8, 1             ; [#uses=1 type=i32]
  %in_indices.addr2 = add i32 %indvar8, %tmp.9    ; [#uses=1 type=i32]
  %tmp.11 = sext i32 %in_indices.addr2 to i64, !dbg !14978 ; [#uses=1 type=i64] [debug line = 68:6]
  %in_indices.addr.3 = getelementptr float* %in_indices, i64 %tmp.11, !dbg !14978 ; [#uses=1 type=float*] [debug line = 68:6]
  %in_indices.load.1 = load float* %in_indices.addr.3, align 4, !dbg !14978 ; [#uses=1 type=float] [debug line = 68:6]
  %tmp.12 = sext i32 %indvar8 to i64, !dbg !14978 ; [#uses=1 type=i64] [debug line = 68:6]
  %bramB.addr = getelementptr [252 x float]* @bramB, i64 0, i64 %tmp.12, !dbg !14978 ; [#uses=1 type=float*] [debug line = 68:6]
  store float %in_indices.load.1, float* %bramB.addr, align 4, !dbg !14978 ; [debug line = 68:6]
  %burstread.rend16 = call i32 (...)* @_ssdm_op_SpecRegionEnd([17 x i8]* @.str15, i32 %burstread.rbegin1) nounwind ; [#uses=0 type=i32]
  br label %burst.rd.header6

burst.rd.end5:                                    ; preds = %8, %burst.rd.end5.preheader
  %i = phi i32 [ %i.1, %8 ], [ 0, %burst.rd.end5.preheader ] ; [#uses=3 type=i32]
  %exitcond1 = icmp eq i32 %i, 6, !dbg !14979     ; [#uses=1 type=i1] [debug line = 88:19]
  br i1 %exitcond1, label %.preheader.preheader, label %8, !dbg !14979 ; [debug line = 88:19]

.preheader.preheader:                             ; preds = %burst.rd.end5
  br label %.preheader, !dbg !14968               ; [debug line = 104:19]

; <label>:8                                       ; preds = %burst.rd.end5
  call void (...)* @_ssdm_op_SpecLoopName(i8* getelementptr inbounds ([16 x i8]* @.str1810, i64 0, i64 0)) nounwind, !dbg !14981 ; [debug line = 88:33]
  %rbegin3 = call i32 (...)* @_ssdm_op_SpecRegionBegin(i8* getelementptr inbounds ([16 x i8]* @.str1810, i64 0, i64 0)) nounwind, !dbg !14983 ; [#uses=1 type=i32] [debug line = 88:74]
  call void (...)* @_ssdm_Unroll(i32 0, i32 0, i32 0, i8* getelementptr inbounds ([1 x i8]* @.str1804, i64 0, i64 0)) nounwind, !dbg !14984 ; [debug line = 89:1]
  %tmp.13 = sext i32 %i to i64, !dbg !14985       ; [#uses=7 type=i64] [debug line = 90:2]
  %acc_returnA.addr = getelementptr inbounds [6 x float]* %acc_returnA, i64 0, i64 %tmp.13, !dbg !14985 ; [#uses=1 type=float*] [debug line = 90:2]
  store float 0.000000e+00, float* %acc_returnA.addr, align 4, !dbg !14985 ; [debug line = 90:2]
  %acc_returnB.addr = getelementptr inbounds [6 x float]* %acc_returnB, i64 0, i64 %tmp.13, !dbg !14986 ; [#uses=1 type=float*] [debug line = 91:7]
  store float 0.000000e+00, float* %acc_returnB.addr, align 4, !dbg !14986 ; [debug line = 91:7]
  %acc_weight_returnSquareA.addr = getelementptr inbounds [6 x float]* %acc_weight_returnSquareA, i64 0, i64 %tmp.13, !dbg !14987 ; [#uses=1 type=float*] [debug line = 92:7]
  store float 0.000000e+00, float* %acc_weight_returnSquareA.addr, align 4, !dbg !14987 ; [debug line = 92:7]
  %acc_weight_returnA.addr = getelementptr inbounds [6 x float]* %acc_weight_returnA, i64 0, i64 %tmp.13, !dbg !14988 ; [#uses=1 type=float*] [debug line = 93:7]
  store float 0.000000e+00, float* %acc_weight_returnA.addr, align 4, !dbg !14988 ; [debug line = 93:7]
  %acc_weight_returnSquareB.addr = getelementptr inbounds [6 x float]* %acc_weight_returnSquareB, i64 0, i64 %tmp.13, !dbg !14989 ; [#uses=1 type=float*] [debug line = 94:7]
  store float 0.000000e+00, float* %acc_weight_returnSquareB.addr, align 4, !dbg !14989 ; [debug line = 94:7]
  %acc_weight_returnB.addr = getelementptr inbounds [6 x float]* %acc_weight_returnB, i64 0, i64 %tmp.13, !dbg !14990 ; [#uses=1 type=float*] [debug line = 95:7]
  store float 0.000000e+00, float* %acc_weight_returnB.addr, align 4, !dbg !14990 ; [debug line = 95:7]
  %acc_weight_returnA_returnB.addr = getelementptr inbounds [6 x float]* %acc_weight_returnA_returnB, i64 0, i64 %tmp.13, !dbg !14991 ; [#uses=1 type=float*] [debug line = 96:7]
  store float 0.000000e+00, float* %acc_weight_returnA_returnB.addr, align 4, !dbg !14991 ; [debug line = 96:7]
  %rend24 = call i32 (...)* @_ssdm_op_SpecRegionEnd(i8* getelementptr inbounds ([16 x i8]* @.str1810, i64 0, i64 0), i32 %rbegin3) nounwind, !dbg !14992 ; [#uses=0 type=i32] [debug line = 97:6]
  %i.1 = add nsw i32 %i, 1, !dbg !14993           ; [#uses=1 type=i32] [debug line = 88:28]
  call void @llvm.dbg.value(metadata !{i32 %i.1}, i64 0, metadata !14994), !dbg !14993 ; [debug line = 88:28] [debug variable = i]
  br label %burst.rd.end5, !dbg !14993            ; [debug line = 88:28]

.preheader:                                       ; preds = %9, %.preheader.preheader
  %i1 = phi i32 [ %i.2, %9 ], [ 0, %.preheader.preheader ] ; [#uses=4 type=i32]
  %tmp.15 = icmp slt i32 %i1, %tmp.1, !dbg !14968 ; [#uses=1 type=i1] [debug line = 104:19]
  br i1 %tmp.15, label %9, label %10, !dbg !14968 ; [debug line = 104:19]

; <label>:9                                       ; preds = %.preheader
  call void (...)* @_ssdm_op_SpecLoopName(i8* getelementptr inbounds ([18 x i8]* @.str1811, i64 0, i64 0)) nounwind, !dbg !14995 ; [debug line = 104:50]
  %rbegin = call i32 (...)* @_ssdm_op_SpecRegionBegin(i8* getelementptr inbounds ([18 x i8]* @.str1811, i64 0, i64 0)) nounwind, !dbg !14997 ; [#uses=1 type=i32] [debug line = 104:93]
  call void (...)* @_ssdm_op_SpecPipeline(i32 1, i32 1, i32 1, i32 0, i8* getelementptr inbounds ([1 x i8]* @.str1804, i64 0, i64 0)) nounwind, !dbg !14998 ; [debug line = 105:1]
  %tmp.16 = sext i32 %i1 to i64, !dbg !14999      ; [#uses=2 type=i64] [debug line = 106:20]
  %bramA.addr.1 = getelementptr inbounds [252 x float]* @bramA, i64 0, i64 %tmp.16, !dbg !14999 ; [#uses=1 type=float*] [debug line = 106:20]
  %bramA.load = load float* %bramA.addr.1, align 4, !dbg !14999 ; [#uses=2 type=float] [debug line = 106:20]
  call void (...)* @_ssdm_SpecKeepArrayLoad(float %bramA.load) nounwind
  %i.2 = add nsw i32 %i1, 1, !dbg !14999          ; [#uses=2 type=i32] [debug line = 106:20]
  %tmp.18 = sext i32 %i.2 to i64, !dbg !14999     ; [#uses=3 type=i64] [debug line = 106:20]
  %bramA.addr.2 = getelementptr inbounds [252 x float]* @bramA, i64 0, i64 %tmp.18, !dbg !14999 ; [#uses=1 type=float*] [debug line = 106:20]
  %bramA.load.1 = load float* %bramA.addr.2, align 4, !dbg !14999 ; [#uses=2 type=float] [debug line = 106:20]
  call void (...)* @_ssdm_SpecKeepArrayLoad(float %bramA.load.1) nounwind
  %tmp.19 = fdiv float %bramA.load, %bramA.load.1, !dbg !14999 ; [#uses=1 type=float] [debug line = 106:20]
  %lnReturnA = call float @llvm.log.f32(float %tmp.19), !dbg !14999 ; [#uses=5 type=float] [debug line = 106:20]
  call void @llvm.dbg.value(metadata !{float %lnReturnA}, i64 0, metadata !15000), !dbg !14999 ; [debug line = 106:20] [debug variable = lnReturnA]
  %bramB.addr.1 = getelementptr inbounds [252 x float]* @bramB, i64 0, i64 %tmp.16, !dbg !15001 ; [#uses=1 type=float*] [debug line = 107:25]
  %bramB.load = load float* %bramB.addr.1, align 4, !dbg !15001 ; [#uses=2 type=float] [debug line = 107:25]
  call void (...)* @_ssdm_SpecKeepArrayLoad(float %bramB.load) nounwind
  %bramB.addr.2 = getelementptr inbounds [252 x float]* @bramB, i64 0, i64 %tmp.18, !dbg !15001 ; [#uses=1 type=float*] [debug line = 107:25]
  %bramB.load.1 = load float* %bramB.addr.2, align 4, !dbg !15001 ; [#uses=2 type=float] [debug line = 107:25]
  call void (...)* @_ssdm_SpecKeepArrayLoad(float %bramB.load.1) nounwind
  %tmp.20 = fdiv float %bramB.load, %bramB.load.1, !dbg !15001 ; [#uses=1 type=float] [debug line = 107:25]
  %lnReturnB = call float @llvm.log.f32(float %tmp.20), !dbg !15001 ; [#uses=5 type=float] [debug line = 107:25]
  call void @llvm.dbg.value(metadata !{float %lnReturnB}, i64 0, metadata !15002), !dbg !15001 ; [debug line = 107:25] [debug variable = lnReturnB]
  %weight_rom.addr = getelementptr inbounds [252 x float]* @weight_rom, i64 0, i64 %tmp.18, !dbg !15003 ; [#uses=1 type=float*] [debug line = 108:37]
  %weight = load float* %weight_rom.addr, align 4, !dbg !15003 ; [#uses=6 type=float] [debug line = 108:37]
  call void (...)* @_ssdm_SpecKeepArrayLoad(float %weight) nounwind
  call void @llvm.dbg.value(metadata !{float %weight}, i64 0, metadata !15004), !dbg !15003 ; [debug line = 108:37] [debug variable = weight]
  %tmp.21 = srem i32 %i1, 6, !dbg !15005          ; [#uses=1 type=i32] [debug line = 111:7]
  %tmp.22 = sext i32 %tmp.21 to i64, !dbg !15005  ; [#uses=7 type=i64] [debug line = 111:7]
  %acc_returnA.addr.1 = getelementptr inbounds [6 x float]* %acc_returnA, i64 0, i64 %tmp.22, !dbg !15005 ; [#uses=2 type=float*] [debug line = 111:7]
  %acc_returnA.load = load float* %acc_returnA.addr.1, align 4, !dbg !15005 ; [#uses=2 type=float] [debug line = 111:7]
  call void (...)* @_ssdm_SpecKeepArrayLoad(float %acc_returnA.load) nounwind
  %tmp.23 = fadd float %acc_returnA.load, %lnReturnA, !dbg !15005 ; [#uses=1 type=float] [debug line = 111:7]
  store float %tmp.23, float* %acc_returnA.addr.1, align 4, !dbg !15005 ; [debug line = 111:7]
  %acc_returnB.addr.1 = getelementptr inbounds [6 x float]* %acc_returnB, i64 0, i64 %tmp.22, !dbg !15006 ; [#uses=2 type=float*] [debug line = 112:7]
  %acc_returnB.load = load float* %acc_returnB.addr.1, align 4, !dbg !15006 ; [#uses=2 type=float] [debug line = 112:7]
  call void (...)* @_ssdm_SpecKeepArrayLoad(float %acc_returnB.load) nounwind
  %tmp.24 = fadd float %acc_returnB.load, %lnReturnB, !dbg !15006 ; [#uses=1 type=float] [debug line = 112:7]
  store float %tmp.24, float* %acc_returnB.addr.1, align 4, !dbg !15006 ; [debug line = 112:7]
  %tmp.25 = fmul float %lnReturnA, %lnReturnA, !dbg !15007 ; [#uses=1 type=float] [debug line = 115:7]
  %tmp.26 = fmul float %tmp.25, %weight, !dbg !15007 ; [#uses=1 type=float] [debug line = 115:7]
  %acc_weight_returnSquareA.addr.1 = getelementptr inbounds [6 x float]* %acc_weight_returnSquareA, i64 0, i64 %tmp.22, !dbg !15007 ; [#uses=2 type=float*] [debug line = 115:7]
  %acc_weight_returnSquareA.load = load float* %acc_weight_returnSquareA.addr.1, align 4, !dbg !15007 ; [#uses=2 type=float] [debug line = 115:7]
  call void (...)* @_ssdm_SpecKeepArrayLoad(float %acc_weight_returnSquareA.load) nounwind
  %tmp.27 = fadd float %acc_weight_returnSquareA.load, %tmp.26, !dbg !15007 ; [#uses=1 type=float] [debug line = 115:7]
  store float %tmp.27, float* %acc_weight_returnSquareA.addr.1, align 4, !dbg !15007 ; [debug line = 115:7]
  %tmp.28 = fmul float %lnReturnB, %lnReturnB, !dbg !15008 ; [#uses=1 type=float] [debug line = 116:7]
  %tmp.29 = fmul float %tmp.28, %weight, !dbg !15008 ; [#uses=1 type=float] [debug line = 116:7]
  %acc_weight_returnSquareB.addr.1 = getelementptr inbounds [6 x float]* %acc_weight_returnSquareB, i64 0, i64 %tmp.22, !dbg !15008 ; [#uses=2 type=float*] [debug line = 116:7]
  %acc_weight_returnSquareB.load = load float* %acc_weight_returnSquareB.addr.1, align 4, !dbg !15008 ; [#uses=2 type=float] [debug line = 116:7]
  call void (...)* @_ssdm_SpecKeepArrayLoad(float %acc_weight_returnSquareB.load) nounwind
  %tmp.30 = fadd float %acc_weight_returnSquareB.load, %tmp.29, !dbg !15008 ; [#uses=1 type=float] [debug line = 116:7]
  store float %tmp.30, float* %acc_weight_returnSquareB.addr.1, align 4, !dbg !15008 ; [debug line = 116:7]
  %tmp.31 = fmul float %lnReturnA, %weight, !dbg !15009 ; [#uses=1 type=float] [debug line = 119:7]
  %acc_weight_returnA.addr.1 = getelementptr inbounds [6 x float]* %acc_weight_returnA, i64 0, i64 %tmp.22, !dbg !15009 ; [#uses=2 type=float*] [debug line = 119:7]
  %acc_weight_returnA.load = load float* %acc_weight_returnA.addr.1, align 4, !dbg !15009 ; [#uses=2 type=float] [debug line = 119:7]
  call void (...)* @_ssdm_SpecKeepArrayLoad(float %acc_weight_returnA.load) nounwind
  %tmp.32 = fadd float %acc_weight_returnA.load, %tmp.31, !dbg !15009 ; [#uses=1 type=float] [debug line = 119:7]
  store float %tmp.32, float* %acc_weight_returnA.addr.1, align 4, !dbg !15009 ; [debug line = 119:7]
  %tmp.33 = fmul float %lnReturnB, %weight, !dbg !15010 ; [#uses=1 type=float] [debug line = 120:7]
  %acc_weight_returnB.addr.1 = getelementptr inbounds [6 x float]* %acc_weight_returnB, i64 0, i64 %tmp.22, !dbg !15010 ; [#uses=2 type=float*] [debug line = 120:7]
  %acc_weight_returnB.load = load float* %acc_weight_returnB.addr.1, align 4, !dbg !15010 ; [#uses=2 type=float] [debug line = 120:7]
  call void (...)* @_ssdm_SpecKeepArrayLoad(float %acc_weight_returnB.load) nounwind
  %tmp.34 = fadd float %acc_weight_returnB.load, %tmp.33, !dbg !15010 ; [#uses=1 type=float] [debug line = 120:7]
  store float %tmp.34, float* %acc_weight_returnB.addr.1, align 4, !dbg !15010 ; [debug line = 120:7]
  %tmp.35 = fmul float %lnReturnA, %lnReturnB, !dbg !15011 ; [#uses=1 type=float] [debug line = 123:7]
  %tmp.36 = fmul float %tmp.35, %weight, !dbg !15011 ; [#uses=1 type=float] [debug line = 123:7]
  %acc_weight_returnA_returnB.addr.1 = getelementptr inbounds [6 x float]* %acc_weight_returnA_returnB, i64 0, i64 %tmp.22, !dbg !15011 ; [#uses=2 type=float*] [debug line = 123:7]
  %acc_weight_returnA_returnB.load = load float* %acc_weight_returnA_returnB.addr.1, align 4, !dbg !15011 ; [#uses=2 type=float] [debug line = 123:7]
  call void (...)* @_ssdm_SpecKeepArrayLoad(float %acc_weight_returnA_returnB.load) nounwind
  %tmp.37 = fadd float %acc_weight_returnA_returnB.load, %tmp.36, !dbg !15011 ; [#uses=1 type=float] [debug line = 123:7]
  store float %tmp.37, float* %acc_weight_returnA_returnB.addr.1, align 4, !dbg !15011 ; [debug line = 123:7]
  %rend = call i32 (...)* @_ssdm_op_SpecRegionEnd(i8* getelementptr inbounds ([18 x i8]* @.str1811, i64 0, i64 0), i32 %rbegin) nounwind, !dbg !15012 ; [#uses=0 type=i32] [debug line = 124:6]
  call void @llvm.dbg.value(metadata !{i32 %i.2}, i64 0, metadata !15013), !dbg !15014 ; [debug line = 104:45] [debug variable = i]
  br label %.preheader, !dbg !15014               ; [debug line = 104:45]

; <label>:10                                      ; preds = %.preheader
  %sum_weight = load float* getelementptr inbounds ([252 x float]* @weight_rom, i64 0, i64 0), align 16, !dbg !15015 ; [#uses=4 type=float] [debug line = 133:38]
  call void (...)* @_ssdm_SpecKeepArrayLoad(float %sum_weight) nounwind
  call void @llvm.dbg.value(metadata !{float %sum_weight}, i64 0, metadata !15016), !dbg !15015 ; [debug line = 133:38] [debug variable = sum_weight]
  br label %11, !dbg !15017                       ; [debug line = 135:19]

; <label>:11                                      ; preds = %12, %10
  %sum_returnA = phi float [ 0.000000e+00, %10 ], [ %sum_returnA.1, %12 ] ; [#uses=2 type=float]
  %sum_returnB = phi float [ 0.000000e+00, %10 ], [ %sum_returnB.1, %12 ] ; [#uses=2 type=float]
  %sum_weight_returnSquareA = phi float [ 0.000000e+00, %10 ], [ %sum_weight_returnSquareA.1, %12 ] ; [#uses=2 type=float]
  %sum_weight_returnA = phi float [ 0.000000e+00, %10 ], [ %sum_weight_returnA.1, %12 ] ; [#uses=2 type=float]
  %sum_weight_returnSquareB = phi float [ 0.000000e+00, %10 ], [ %sum_weight_returnSquareB.1, %12 ] ; [#uses=2 type=float]
  %sum_weight_returnB = phi float [ 0.000000e+00, %10 ], [ %sum_weight_returnB.1, %12 ] ; [#uses=2 type=float]
  %sum_weight_returnA_returnB = phi float [ 0.000000e+00, %10 ], [ %sum_weight_returnA_returnB.1, %12 ] ; [#uses=2 type=float]
  %i2 = phi i32 [ 0, %10 ], [ %i.3, %12 ]         ; [#uses=3 type=i32]
  %exitcond = icmp eq i32 %i2, 6, !dbg !15017     ; [#uses=1 type=i1] [debug line = 135:19]
  br i1 %exitcond, label %13, label %12, !dbg !15017 ; [debug line = 135:19]

; <label>:12                                      ; preds = %11
  call void (...)* @_ssdm_op_SpecLoopName(i8* getelementptr inbounds ([16 x i8]* @.str1812, i64 0, i64 0)) nounwind, !dbg !15019 ; [debug line = 135:33]
  %rbegin4 = call i32 (...)* @_ssdm_op_SpecRegionBegin(i8* getelementptr inbounds ([16 x i8]* @.str1812, i64 0, i64 0)) nounwind, !dbg !15021 ; [#uses=1 type=i32] [debug line = 135:74]
  call void (...)* @_ssdm_op_SpecPipeline(i32 5, i32 1, i32 1, i32 0, i8* getelementptr inbounds ([1 x i8]* @.str1804, i64 0, i64 0)) nounwind, !dbg !15022 ; [debug line = 136:1]
  %tmp.59 = sext i32 %i2 to i64, !dbg !15023      ; [#uses=7 type=i64] [debug line = 137:2]
  %acc_returnA.addr.2 = getelementptr inbounds [6 x float]* %acc_returnA, i64 0, i64 %tmp.59, !dbg !15023 ; [#uses=1 type=float*] [debug line = 137:2]
  %acc_returnA.load.1 = load float* %acc_returnA.addr.2, align 4, !dbg !15023 ; [#uses=2 type=float] [debug line = 137:2]
  call void (...)* @_ssdm_SpecKeepArrayLoad(float %acc_returnA.load.1) nounwind
  %sum_returnA.1 = fadd float %sum_returnA, %acc_returnA.load.1, !dbg !15023 ; [#uses=1 type=float] [debug line = 137:2]
  call void @llvm.dbg.value(metadata !{float %sum_returnA.1}, i64 0, metadata !15024), !dbg !15023 ; [debug line = 137:2] [debug variable = sum_returnA]
  %acc_returnB.addr.2 = getelementptr inbounds [6 x float]* %acc_returnB, i64 0, i64 %tmp.59, !dbg !15025 ; [#uses=1 type=float*] [debug line = 138:7]
  %acc_returnB.load.1 = load float* %acc_returnB.addr.2, align 4, !dbg !15025 ; [#uses=2 type=float] [debug line = 138:7]
  call void (...)* @_ssdm_SpecKeepArrayLoad(float %acc_returnB.load.1) nounwind
  %sum_returnB.1 = fadd float %sum_returnB, %acc_returnB.load.1, !dbg !15025 ; [#uses=1 type=float] [debug line = 138:7]
  call void @llvm.dbg.value(metadata !{float %sum_returnB.1}, i64 0, metadata !15026), !dbg !15025 ; [debug line = 138:7] [debug variable = sum_returnB]
  %acc_weight_returnSquareA.addr.2 = getelementptr inbounds [6 x float]* %acc_weight_returnSquareA, i64 0, i64 %tmp.59, !dbg !15027 ; [#uses=1 type=float*] [debug line = 139:7]
  %acc_weight_returnSquareA.load.1 = load float* %acc_weight_returnSquareA.addr.2, align 4, !dbg !15027 ; [#uses=2 type=float] [debug line = 139:7]
  call void (...)* @_ssdm_SpecKeepArrayLoad(float %acc_weight_returnSquareA.load.1) nounwind
  %sum_weight_returnSquareA.1 = fadd float %sum_weight_returnSquareA, %acc_weight_returnSquareA.load.1, !dbg !15027 ; [#uses=1 type=float] [debug line = 139:7]
  call void @llvm.dbg.value(metadata !{float %sum_weight_returnSquareA.1}, i64 0, metadata !15028), !dbg !15027 ; [debug line = 139:7] [debug variable = sum_weight_returnSquareA]
  %acc_weight_returnA.addr.2 = getelementptr inbounds [6 x float]* %acc_weight_returnA, i64 0, i64 %tmp.59, !dbg !15029 ; [#uses=1 type=float*] [debug line = 140:7]
  %acc_weight_returnA.load.1 = load float* %acc_weight_returnA.addr.2, align 4, !dbg !15029 ; [#uses=2 type=float] [debug line = 140:7]
  call void (...)* @_ssdm_SpecKeepArrayLoad(float %acc_weight_returnA.load.1) nounwind
  %sum_weight_returnA.1 = fadd float %sum_weight_returnA, %acc_weight_returnA.load.1, !dbg !15029 ; [#uses=1 type=float] [debug line = 140:7]
  call void @llvm.dbg.value(metadata !{float %sum_weight_returnA.1}, i64 0, metadata !15030), !dbg !15029 ; [debug line = 140:7] [debug variable = sum_weight_returnA]
  %acc_weight_returnSquareB.addr.2 = getelementptr inbounds [6 x float]* %acc_weight_returnSquareB, i64 0, i64 %tmp.59, !dbg !15031 ; [#uses=1 type=float*] [debug line = 141:7]
  %acc_weight_returnSquareB.load.1 = load float* %acc_weight_returnSquareB.addr.2, align 4, !dbg !15031 ; [#uses=2 type=float] [debug line = 141:7]
  call void (...)* @_ssdm_SpecKeepArrayLoad(float %acc_weight_returnSquareB.load.1) nounwind
  %sum_weight_returnSquareB.1 = fadd float %sum_weight_returnSquareB, %acc_weight_returnSquareB.load.1, !dbg !15031 ; [#uses=1 type=float] [debug line = 141:7]
  call void @llvm.dbg.value(metadata !{float %sum_weight_returnSquareB.1}, i64 0, metadata !15032), !dbg !15031 ; [debug line = 141:7] [debug variable = sum_weight_returnSquareB]
  %acc_weight_returnB.addr.2 = getelementptr inbounds [6 x float]* %acc_weight_returnB, i64 0, i64 %tmp.59, !dbg !15033 ; [#uses=1 type=float*] [debug line = 142:7]
  %acc_weight_returnB.load.1 = load float* %acc_weight_returnB.addr.2, align 4, !dbg !15033 ; [#uses=2 type=float] [debug line = 142:7]
  call void (...)* @_ssdm_SpecKeepArrayLoad(float %acc_weight_returnB.load.1) nounwind
  %sum_weight_returnB.1 = fadd float %sum_weight_returnB, %acc_weight_returnB.load.1, !dbg !15033 ; [#uses=1 type=float] [debug line = 142:7]
  call void @llvm.dbg.value(metadata !{float %sum_weight_returnB.1}, i64 0, metadata !15034), !dbg !15033 ; [debug line = 142:7] [debug variable = sum_weight_returnB]
  %acc_weight_returnA_returnB.addr.2 = getelementptr inbounds [6 x float]* %acc_weight_returnA_returnB, i64 0, i64 %tmp.59, !dbg !15035 ; [#uses=1 type=float*] [debug line = 143:7]
  %acc_weight_returnA_returnB.load.1 = load float* %acc_weight_returnA_returnB.addr.2, align 4, !dbg !15035 ; [#uses=2 type=float] [debug line = 143:7]
  call void (...)* @_ssdm_SpecKeepArrayLoad(float %acc_weight_returnA_returnB.load.1) nounwind
  %sum_weight_returnA_returnB.1 = fadd float %sum_weight_returnA_returnB, %acc_weight_returnA_returnB.load.1, !dbg !15035 ; [#uses=1 type=float] [debug line = 143:7]
  call void @llvm.dbg.value(metadata !{float %sum_weight_returnA_returnB.1}, i64 0, metadata !15036), !dbg !15035 ; [debug line = 143:7] [debug variable = sum_weight_returnA_returnB]
  %rend20 = call i32 (...)* @_ssdm_op_SpecRegionEnd(i8* getelementptr inbounds ([16 x i8]* @.str1812, i64 0, i64 0), i32 %rbegin4) nounwind, !dbg !15037 ; [#uses=0 type=i32] [debug line = 144:6]
  %i.3 = add nsw i32 %i2, 1, !dbg !15038          ; [#uses=1 type=i32] [debug line = 135:28]
  call void @llvm.dbg.value(metadata !{i32 %i.3}, i64 0, metadata !15039), !dbg !15038 ; [debug line = 135:28] [debug variable = i]
  br label %11, !dbg !15038                       ; [debug line = 135:28]

; <label>:13                                      ; preds = %11
  %sum_weight_returnA_returnB.0.lcssa = phi float [ %sum_weight_returnA_returnB, %11 ] ; [#uses=1 type=float]
  %sum_weight_returnB.0.lcssa = phi float [ %sum_weight_returnB, %11 ] ; [#uses=2 type=float]
  %sum_weight_returnSquareB.0.lcssa = phi float [ %sum_weight_returnSquareB, %11 ] ; [#uses=1 type=float]
  %sum_weight_returnA.0.lcssa = phi float [ %sum_weight_returnA, %11 ] ; [#uses=2 type=float]
  %sum_weight_returnSquareA.0.lcssa = phi float [ %sum_weight_returnSquareA, %11 ] ; [#uses=1 type=float]
  %sum_returnB.0.lcssa = phi float [ %sum_returnB, %11 ] ; [#uses=1 type=float]
  %sum_returnA.0.lcssa = phi float [ %sum_returnA, %11 ] ; [#uses=1 type=float]
  %meanReturn1 = fdiv float %sum_returnA.0.lcssa, %tmp.2, !dbg !14970 ; [#uses=5 type=float] [debug line = 149:65]
  call void @llvm.dbg.value(metadata !{float %meanReturn1}, i64 0, metadata !15040), !dbg !14970 ; [debug line = 149:65] [debug variable = meanReturn1]
  %meanReturn2 = fdiv float %sum_returnB.0.lcssa, %tmp.2, !dbg !15041 ; [#uses=5 type=float] [debug line = 150:65]
  call void @llvm.dbg.value(metadata !{float %meanReturn2}, i64 0, metadata !15042), !dbg !15041 ; [debug line = 150:65] [debug variable = meanReturn2]
  %tmp.38 = fmul float %meanReturn1, 2.000000e+00, !dbg !15043 ; [#uses=1 type=float] [debug line = 152:26]
  %tmp.39 = fmul float %tmp.38, %sum_weight_returnA.0.lcssa, !dbg !15043 ; [#uses=1 type=float] [debug line = 152:26]
  %tmp.40 = fsub float %sum_weight_returnSquareA.0.lcssa, %tmp.39, !dbg !15043 ; [#uses=1 type=float] [debug line = 152:26]
  %tmp.41 = fdiv float %tmp.40, %sum_weight, !dbg !15043 ; [#uses=1 type=float] [debug line = 152:26]
  %tmp.42 = fmul float %meanReturn1, %meanReturn1, !dbg !15043 ; [#uses=1 type=float] [debug line = 152:26]
  %tmp.43 = fadd float %tmp.41, %tmp.42, !dbg !15043 ; [#uses=1 type=float] [debug line = 152:26]
  %volatilityA = call float @llvm.sqrt.f32(float %tmp.43), !dbg !15043 ; [#uses=1 type=float] [debug line = 152:26]
  call void @llvm.dbg.value(metadata !{float %volatilityA}, i64 0, metadata !15044), !dbg !15043 ; [debug line = 152:26] [debug variable = volatilityA]
  %tmp.44 = fmul float %meanReturn2, 2.000000e+00, !dbg !15045 ; [#uses=1 type=float] [debug line = 155:26]
  %tmp.45 = fmul float %tmp.44, %sum_weight_returnB.0.lcssa, !dbg !15045 ; [#uses=1 type=float] [debug line = 155:26]
  %tmp.46 = fsub float %sum_weight_returnSquareB.0.lcssa, %tmp.45, !dbg !15045 ; [#uses=1 type=float] [debug line = 155:26]
  %tmp.47 = fdiv float %tmp.46, %sum_weight, !dbg !15045 ; [#uses=1 type=float] [debug line = 155:26]
  %tmp.48 = fmul float %meanReturn2, %meanReturn2, !dbg !15045 ; [#uses=1 type=float] [debug line = 155:26]
  %tmp.49 = fadd float %tmp.47, %tmp.48, !dbg !15045 ; [#uses=1 type=float] [debug line = 155:26]
  %volatilityB = call float @llvm.sqrt.f32(float %tmp.49), !dbg !15045 ; [#uses=1 type=float] [debug line = 155:26]
  call void @llvm.dbg.value(metadata !{float %volatilityB}, i64 0, metadata !15046), !dbg !15045 ; [debug line = 155:26] [debug variable = volatilityB]
  %tmp.50 = fmul float %meanReturn1, %sum_weight_returnB.0.lcssa, !dbg !15047 ; [#uses=1 type=float] [debug line = 161:38]
  %tmp.51 = fsub float %sum_weight_returnA_returnB.0.lcssa, %tmp.50, !dbg !15047 ; [#uses=1 type=float] [debug line = 161:38]
  %tmp.52 = fmul float %meanReturn2, %sum_weight_returnA.0.lcssa, !dbg !15047 ; [#uses=1 type=float] [debug line = 161:38]
  %tmp.53 = fsub float %tmp.51, %tmp.52, !dbg !15047 ; [#uses=1 type=float] [debug line = 161:38]
  %tmp.54 = fdiv float %tmp.53, %sum_weight, !dbg !15047 ; [#uses=1 type=float] [debug line = 161:38]
  %tmp.55 = fmul float %meanReturn1, %meanReturn2, !dbg !15047 ; [#uses=1 type=float] [debug line = 161:38]
  %covariance = fadd float %tmp.54, %tmp.55, !dbg !15047 ; [#uses=1 type=float] [debug line = 161:38]
  call void @llvm.dbg.value(metadata !{float %covariance}, i64 0, metadata !15048), !dbg !15047 ; [debug line = 161:38] [debug variable = covariance]
  %tmp.56 = fmul float %volatilityA, %volatilityB, !dbg !15049 ; [#uses=1 type=float] [debug line = 163:6]
  %corr_temp = fdiv float %covariance, %tmp.56, !dbg !15049 ; [#uses=1 type=float] [debug line = 163:6]
  call void @llvm.dbg.value(metadata !{float %corr_temp}, i64 0, metadata !15050), !dbg !15049 ; [debug line = 163:6] [debug variable = corr_temp]
  %counter.load = load i32* @counter, align 4, !dbg !15051 ; [#uses=1 type=i32] [debug line = 165:6]
  %tmp.57 = sext i32 %counter.load to i64, !dbg !15051 ; [#uses=1 type=i64] [debug line = 165:6]
  %out_correlation.addr = getelementptr inbounds float* %out_correlation, i64 %tmp.57, !dbg !15051 ; [#uses=1 type=float*] [debug line = 165:6]
  store float %corr_temp, float* %out_correlation.addr, align 4, !dbg !15051 ; [debug line = 165:6]
  %counter.load.1 = load i32* @counter, align 4, !dbg !15052 ; [#uses=1 type=i32] [debug line = 167:6]
  %tmp.58 = add nsw i32 %counter.load.1, 1, !dbg !15052 ; [#uses=1 type=i32] [debug line = 167:6]
  store i32 %tmp.58, i32* @counter, align 4, !dbg !15052 ; [debug line = 167:6]
  %rend18 = call i32 (...)* @_ssdm_op_SpecRegionEnd(i8* getelementptr inbounds ([11 x i8]* @.str1809, i64 0, i64 0), i32 %rbegin2) nounwind, !dbg !15053 ; [#uses=0 type=i32] [debug line = 168:5]
  br label %burst.rd.end, !dbg !15054             ; [debug line = 66:77]

; <label>:14                                      ; preds = %burst.rd.end
  %rend22 = call i32 (...)* @_ssdm_op_SpecRegionEnd(i8* getelementptr inbounds ([11 x i8]* @.str1808, i64 0, i64 0), i32 %rbegin1) nounwind, !dbg !15055 ; [#uses=0 type=i32] [debug line = 169:3]
  %row_index.1 = add nsw i32 %row_index, 1, !dbg !15056 ; [#uses=1 type=i32] [debug line = 56:61]
  call void @llvm.dbg.value(metadata !{i32 %row_index.1}, i64 0, metadata !15057), !dbg !15056 ; [debug line = 56:61] [debug variable = row_index]
  br label %1, !dbg !15056                        ; [debug line = 56:61]

; <label>:15                                      ; preds = %1
  ret i32 0, !dbg !15058                          ; [debug line = 170:2]
}

; [#uses=7]
declare void @llvm.dbg.declare(metadata, metadata) nounwind readnone

; [#uses=3]
declare void @_ssdm_SpecArrayDimSize(...) nounwind

; [#uses=1]
declare void @_ssdm_op_SpecLatency(...) nounwind

; [#uses=3]
declare void @_ssdm_op_SpecInterface(...) nounwind

; [#uses=1]
define internal fastcc void @weight_rom_init(float* %weightRom, i32 %NUMBER_OF_DAYS) nounwind uwtable {
  call void @llvm.dbg.value(metadata !{float* %weightRom}, i64 0, metadata !15059), !dbg !15060 ; [debug line = 200:9] [debug variable = weightRom]
  call void @llvm.dbg.value(metadata !{i32 %NUMBER_OF_DAYS}, i64 0, metadata !15061), !dbg !15062 ; [debug line = 201:7] [debug variable = NUMBER_OF_DAYS]
  call void (...)* @_ssdm_SpecArrayDimSize(float* %weightRom, i32 252) nounwind, !dbg !15063 ; [debug line = 202:2]
  store float 1.000000e+00, float* %weightRom, align 4, !dbg !15065 ; [debug line = 204:2]
  %weightRom.addr = getelementptr inbounds float* %weightRom, i64 1, !dbg !15066 ; [#uses=1 type=float*] [debug line = 205:2]
  store float 1.000000e+00, float* %weightRom.addr, align 4, !dbg !15066 ; [debug line = 205:2]
  br label %1, !dbg !15067                        ; [debug line = 208:15]

; <label>:1                                       ; preds = %2, %0
  %tmp = phi float [ 1.000000e+00, %0 ], [ %tmp.68, %2 ] ; [#uses=2 type=float]
  %i = phi i32 [ 2, %0 ], [ %i.4, %2 ]            ; [#uses=3 type=i32]
  %exitcond = icmp eq i32 %i, 252, !dbg !15067    ; [#uses=1 type=i1] [debug line = 208:15]
  br i1 %exitcond, label %.preheader.preheader, label %2, !dbg !15067 ; [debug line = 208:15]

.preheader.preheader:                             ; preds = %1
  br label %.preheader, !dbg !15069               ; [debug line = 213:15]

; <label>:2                                       ; preds = %1
  call void (...)* @_ssdm_op_SpecLoopName(i8* getelementptr inbounds ([16 x i8]* @.str1814, i64 0, i64 0)) nounwind, !dbg !15071 ; [debug line = 208:46]
  %rbegin1 = call i32 (...)* @_ssdm_op_SpecRegionBegin(i8* getelementptr inbounds ([16 x i8]* @.str1814, i64 0, i64 0)) nounwind, !dbg !15073 ; [#uses=1 type=i32] [debug line = 208:87]
  call void (...)* @_ssdm_SpecKeepArrayLoad(float %tmp) nounwind
  %tmp.68 = fmul float %tmp, 0x3FEE147AE0000000, !dbg !15074 ; [#uses=2 type=float] [debug line = 209:3]
  %tmp.69 = sext i32 %i to i64, !dbg !15074       ; [#uses=1 type=i64] [debug line = 209:3]
  %weightRom.addr.1 = getelementptr inbounds float* %weightRom, i64 %tmp.69, !dbg !15074 ; [#uses=1 type=float*] [debug line = 209:3]
  store float %tmp.68, float* %weightRom.addr.1, align 4, !dbg !15074 ; [debug line = 209:3]
  %rend2 = call i32 (...)* @_ssdm_op_SpecRegionEnd(i8* getelementptr inbounds ([16 x i8]* @.str1814, i64 0, i64 0), i32 %rbegin1) nounwind, !dbg !15075 ; [#uses=0 type=i32] [debug line = 210:2]
  %i.4 = add nsw i32 %i, 1, !dbg !15076           ; [#uses=1 type=i32] [debug line = 208:40]
  call void @llvm.dbg.value(metadata !{i32 %i.4}, i64 0, metadata !15077), !dbg !15076 ; [debug line = 208:40] [debug variable = i]
  br label %1, !dbg !15076                        ; [debug line = 208:40]

.preheader:                                       ; preds = %3, %.preheader.preheader
  %i1 = phi i32 [ %i.5, %3 ], [ 2, %.preheader.preheader ] ; [#uses=3 type=i32]
  %tmp.71 = icmp slt i32 %i1, %NUMBER_OF_DAYS, !dbg !15069 ; [#uses=1 type=i1] [debug line = 213:15]
  br i1 %tmp.71, label %3, label %4, !dbg !15069  ; [debug line = 213:15]

; <label>:3                                       ; preds = %.preheader
  call void (...)* @_ssdm_op_SpecLoopName(i8* getelementptr inbounds ([19 x i8]* @.str1815, i64 0, i64 0)) nounwind, !dbg !15078 ; [debug line = 213:42]
  %rbegin = call i32 (...)* @_ssdm_op_SpecRegionBegin(i8* getelementptr inbounds ([19 x i8]* @.str1815, i64 0, i64 0)) nounwind, !dbg !15080 ; [#uses=1 type=i32] [debug line = 213:86]
  %tmp.72 = sext i32 %i1 to i64, !dbg !15081      ; [#uses=1 type=i64] [debug line = 214:3]
  %weightRom.addr.2 = getelementptr inbounds float* %weightRom, i64 %tmp.72, !dbg !15081 ; [#uses=1 type=float*] [debug line = 214:3]
  %weightRom.load = load float* %weightRom.addr.2, align 4, !dbg !15081 ; [#uses=2 type=float] [debug line = 214:3]
  call void (...)* @_ssdm_SpecKeepArrayLoad(float %weightRom.load) nounwind
  %weightRom.load.1 = load float* %weightRom, align 4, !dbg !15081 ; [#uses=2 type=float] [debug line = 214:3]
  call void (...)* @_ssdm_SpecKeepArrayLoad(float %weightRom.load.1) nounwind
  %tmp.73 = fadd float %weightRom.load.1, %weightRom.load, !dbg !15081 ; [#uses=1 type=float] [debug line = 214:3]
  store float %tmp.73, float* %weightRom, align 4, !dbg !15081 ; [debug line = 214:3]
  %rend = call i32 (...)* @_ssdm_op_SpecRegionEnd(i8* getelementptr inbounds ([19 x i8]* @.str1815, i64 0, i64 0), i32 %rbegin) nounwind, !dbg !15082 ; [#uses=0 type=i32] [debug line = 216:2]
  %i.5 = add nsw i32 %i1, 1, !dbg !15083          ; [#uses=1 type=i32] [debug line = 213:37]
  call void @llvm.dbg.value(metadata !{i32 %i.5}, i64 0, metadata !15084), !dbg !15083 ; [debug line = 213:37] [debug variable = i]
  br label %.preheader, !dbg !15083               ; [debug line = 213:37]

; <label>:4                                       ; preds = %.preheader
  ret void, !dbg !15085                           ; [debug line = 217:1]
}

; [#uses=9]
declare void @_ssdm_op_SpecLoopName(...) nounwind

; [#uses=1]
declare void @_ssdm_Unroll(...) nounwind

; [#uses=4]
declare void @_ssdm_op_SpecPipeline(...) nounwind

; [#uses=32]
declare void @llvm.dbg.value(metadata, i64, metadata) nounwind readnone

; [#uses=23]
declare void @_ssdm_SpecKeepArrayLoad(...)

; [#uses=1]
declare void @_ssdm_op_SpecTopModule(...)

; [#uses=1]
declare void @_ssdm_op_SpecBitsMap(...)

; [#uses=1]
declare void @_GLOBAL__I_a() nounwind section ".text.startup"

; [#uses=2]
declare float @llvm.log.f32(float) nounwind readonly

; [#uses=2]
declare float @llvm.sqrt.f32(float) nounwind readonly

; [#uses=2]
declare i32 @_ssdm_SpecLoopFlatten(...)

; [#uses=2]
declare i32 @_ssdm_op_SpecBurst(...)

; [#uses=9]
declare i32 @_ssdm_op_SpecRegionBegin(...)

; [#uses=9]
declare i32 @_ssdm_op_SpecRegionEnd(...)

!llvm.dbg.cu = !{!0}

!0 = metadata !{i32 786449, i32 0, i32 4, metadata !"/home/trungnguyen/SDSoC/thesis/SDRelease/_sds/vhls/correlation_accel_v1/solution/.autopilot/db/correlation_accel_v1.pragma.2.cpp", metadata !"/home/trungnguyen/SDSoC/thesis/SDRelease/_sds/vhls", metadata !"clang version 3.1 ", i1 true, i1 false, metadata !"", i32 0, metadata !1, metadata !923, metadata !924, metadata !12622} ; [ DW_TAG_compile_unit ]
!1 = metadata !{metadata !2}
!2 = metadata !{metadata !3, metadata !26, metadata !33, metadata !42, metadata !48, metadata !890, metadata !897, metadata !906, metadata !913, metadata !897, metadata !906, metadata !897, metadata !906, metadata !897, metadata !906, metadata !897, metadata !906, metadata !897, metadata !906, metadata !897, metadata !906, metadata !897, metadata !906}
!3 = metadata !{i32 786436, metadata !4, metadata !"_Ios_Fmtflags", metadata !5, i32 52, i64 17, i64 32, i32 0, i32 0, null, metadata !6, i32 0, i32 0} ; [ DW_TAG_enumeration_type ]
!4 = metadata !{i32 786489, null, metadata !"std", metadata !5, i32 44} ; [ DW_TAG_namespace ]
!5 = metadata !{i32 786473, metadata !"/opt/Xilinx/SDSoC/2014.4/Vivado_HLS/2014.4/lnx64/tools/gcc/lib/gcc/x86_64-unknown-linux-gnu/4.6.3/../../../../include/c++/4.6.3/bits/ios_base.h", metadata !"/home/trungnguyen/SDSoC/thesis/SDRelease/_sds/vhls", null} ; [ DW_TAG_file_type ]
!6 = metadata !{metadata !7, metadata !8, metadata !9, metadata !10, metadata !11, metadata !12, metadata !13, metadata !14, metadata !15, metadata !16, metadata !17, metadata !18, metadata !19, metadata !20, metadata !21, metadata !22, metadata !23, metadata !24, metadata !25}
!7 = metadata !{i32 786472, metadata !"_S_boolalpha", i64 1} ; [ DW_TAG_enumerator ]
!8 = metadata !{i32 786472, metadata !"_S_dec", i64 2} ; [ DW_TAG_enumerator ]
!9 = metadata !{i32 786472, metadata !"_S_fixed", i64 4} ; [ DW_TAG_enumerator ]
!10 = metadata !{i32 786472, metadata !"_S_hex", i64 8} ; [ DW_TAG_enumerator ]
!11 = metadata !{i32 786472, metadata !"_S_internal", i64 16} ; [ DW_TAG_enumerator ]
!12 = metadata !{i32 786472, metadata !"_S_left", i64 32} ; [ DW_TAG_enumerator ]
!13 = metadata !{i32 786472, metadata !"_S_oct", i64 64} ; [ DW_TAG_enumerator ]
!14 = metadata !{i32 786472, metadata !"_S_right", i64 128} ; [ DW_TAG_enumerator ]
!15 = metadata !{i32 786472, metadata !"_S_scientific", i64 256} ; [ DW_TAG_enumerator ]
!16 = metadata !{i32 786472, metadata !"_S_showbase", i64 512} ; [ DW_TAG_enumerator ]
!17 = metadata !{i32 786472, metadata !"_S_showpoint", i64 1024} ; [ DW_TAG_enumerator ]
!18 = metadata !{i32 786472, metadata !"_S_showpos", i64 2048} ; [ DW_TAG_enumerator ]
!19 = metadata !{i32 786472, metadata !"_S_skipws", i64 4096} ; [ DW_TAG_enumerator ]
!20 = metadata !{i32 786472, metadata !"_S_unitbuf", i64 8192} ; [ DW_TAG_enumerator ]
!21 = metadata !{i32 786472, metadata !"_S_uppercase", i64 16384} ; [ DW_TAG_enumerator ]
!22 = metadata !{i32 786472, metadata !"_S_adjustfield", i64 176} ; [ DW_TAG_enumerator ]
!23 = metadata !{i32 786472, metadata !"_S_basefield", i64 74} ; [ DW_TAG_enumerator ]
!24 = metadata !{i32 786472, metadata !"_S_floatfield", i64 260} ; [ DW_TAG_enumerator ]
!25 = metadata !{i32 786472, metadata !"_S_ios_fmtflags_end", i64 65536} ; [ DW_TAG_enumerator ]
!26 = metadata !{i32 786436, metadata !4, metadata !"_Ios_Iostate", metadata !5, i32 144, i64 17, i64 32, i32 0, i32 0, null, metadata !27, i32 0, i32 0} ; [ DW_TAG_enumeration_type ]
!27 = metadata !{metadata !28, metadata !29, metadata !30, metadata !31, metadata !32}
!28 = metadata !{i32 786472, metadata !"_S_goodbit", i64 0} ; [ DW_TAG_enumerator ]
!29 = metadata !{i32 786472, metadata !"_S_badbit", i64 1} ; [ DW_TAG_enumerator ]
!30 = metadata !{i32 786472, metadata !"_S_eofbit", i64 2} ; [ DW_TAG_enumerator ]
!31 = metadata !{i32 786472, metadata !"_S_failbit", i64 4} ; [ DW_TAG_enumerator ]
!32 = metadata !{i32 786472, metadata !"_S_ios_iostate_end", i64 65536} ; [ DW_TAG_enumerator ]
!33 = metadata !{i32 786436, metadata !4, metadata !"_Ios_Openmode", metadata !5, i32 104, i64 17, i64 32, i32 0, i32 0, null, metadata !34, i32 0, i32 0} ; [ DW_TAG_enumeration_type ]
!34 = metadata !{metadata !35, metadata !36, metadata !37, metadata !38, metadata !39, metadata !40, metadata !41}
!35 = metadata !{i32 786472, metadata !"_S_app", i64 1} ; [ DW_TAG_enumerator ]
!36 = metadata !{i32 786472, metadata !"_S_ate", i64 2} ; [ DW_TAG_enumerator ]
!37 = metadata !{i32 786472, metadata !"_S_bin", i64 4} ; [ DW_TAG_enumerator ]
!38 = metadata !{i32 786472, metadata !"_S_in", i64 8} ; [ DW_TAG_enumerator ]
!39 = metadata !{i32 786472, metadata !"_S_out", i64 16} ; [ DW_TAG_enumerator ]
!40 = metadata !{i32 786472, metadata !"_S_trunc", i64 32} ; [ DW_TAG_enumerator ]
!41 = metadata !{i32 786472, metadata !"_S_ios_openmode_end", i64 65536} ; [ DW_TAG_enumerator ]
!42 = metadata !{i32 786436, metadata !4, metadata !"_Ios_Seekdir", metadata !5, i32 182, i64 17, i64 32, i32 0, i32 0, null, metadata !43, i32 0, i32 0} ; [ DW_TAG_enumeration_type ]
!43 = metadata !{metadata !44, metadata !45, metadata !46, metadata !47}
!44 = metadata !{i32 786472, metadata !"_S_beg", i64 0} ; [ DW_TAG_enumerator ]
!45 = metadata !{i32 786472, metadata !"_S_cur", i64 1} ; [ DW_TAG_enumerator ]
!46 = metadata !{i32 786472, metadata !"_S_end", i64 2} ; [ DW_TAG_enumerator ]
!47 = metadata !{i32 786472, metadata !"_S_ios_seekdir_end", i64 65536} ; [ DW_TAG_enumerator ]
!48 = metadata !{i32 786436, metadata !49, metadata !"event", metadata !5, i32 420, i64 2, i64 2, i32 0, i32 0, null, metadata !886, i32 0, i32 0} ; [ DW_TAG_enumeration_type ]
!49 = metadata !{i32 786434, metadata !4, metadata !"ios_base", metadata !5, i32 200, i64 1728, i64 64, i32 0, i32 0, null, metadata !50, i32 0, metadata !49, null} ; [ DW_TAG_class_type ]
!50 = metadata !{metadata !51, metadata !57, metadata !65, metadata !66, metadata !68, metadata !70, metadata !71, metadata !97, metadata !107, metadata !111, metadata !112, metadata !114, metadata !818, metadata !822, metadata !825, metadata !828, metadata !832, metadata !833, metadata !838, metadata !841, metadata !842, metadata !845, metadata !848, metadata !851, metadata !854, metadata !855, metadata !856, metadata !859, metadata !862, metadata !865, metadata !868, metadata !869, metadata !873, metadata !877, metadata !878, metadata !879, metadata !883}
!51 = metadata !{i32 786445, metadata !5, metadata !"_vptr$ios_base", metadata !5, i32 0, i64 64, i64 0, i64 0, i32 0, metadata !52} ; [ DW_TAG_member ]
!52 = metadata !{i32 786447, null, metadata !"", null, i32 0, i64 64, i64 0, i64 0, i32 0, metadata !53} ; [ DW_TAG_pointer_type ]
!53 = metadata !{i32 786447, null, metadata !"__vtbl_ptr_type", null, i32 0, i64 64, i64 0, i64 0, i32 0, metadata !54} ; [ DW_TAG_pointer_type ]
!54 = metadata !{i32 786453, i32 0, metadata !"", i32 0, i32 0, i64 0, i64 0, i64 0, i32 0, null, metadata !55, i32 0, i32 0} ; [ DW_TAG_subroutine_type ]
!55 = metadata !{metadata !56}
!56 = metadata !{i32 786468, null, metadata !"int", null, i32 0, i64 32, i64 32, i64 0, i32 0, i32 5} ; [ DW_TAG_base_type ]
!57 = metadata !{i32 786445, metadata !49, metadata !"_M_precision", metadata !5, i32 453, i64 64, i64 64, i64 64, i32 2, metadata !58} ; [ DW_TAG_member ]
!58 = metadata !{i32 786454, metadata !59, metadata !"streamsize", metadata !5, i32 99, i64 0, i64 0, i64 0, i32 0, metadata !61} ; [ DW_TAG_typedef ]
!59 = metadata !{i32 786489, null, metadata !"std", metadata !60, i32 69} ; [ DW_TAG_namespace ]
!60 = metadata !{i32 786473, metadata !"/opt/Xilinx/SDSoC/2014.4/Vivado_HLS/2014.4/lnx64/tools/gcc/lib/gcc/x86_64-unknown-linux-gnu/4.6.3/../../../../include/c++/4.6.3/bits/postypes.h", metadata !"/home/trungnguyen/SDSoC/thesis/SDRelease/_sds/vhls", null} ; [ DW_TAG_file_type ]
!61 = metadata !{i32 786454, metadata !62, metadata !"ptrdiff_t", metadata !5, i32 156, i64 0, i64 0, i64 0, i32 0, metadata !64} ; [ DW_TAG_typedef ]
!62 = metadata !{i32 786489, null, metadata !"std", metadata !63, i32 153} ; [ DW_TAG_namespace ]
!63 = metadata !{i32 786473, metadata !"/opt/Xilinx/SDSoC/2014.4/Vivado_HLS/2014.4/lnx64/tools/gcc/lib/gcc/x86_64-unknown-linux-gnu/4.6.3/../../../../include/c++/4.6.3/x86_64-unknown-linux-gnu/bits/c++config.h", metadata !"/home/trungnguyen/SDSoC/thesis/SDRelease/_sds/vhls", null} ; [ DW_TAG_file_type ]
!64 = metadata !{i32 786468, null, metadata !"long int", null, i32 0, i64 64, i64 64, i64 0, i32 0, i32 5} ; [ DW_TAG_base_type ]
!65 = metadata !{i32 786445, metadata !49, metadata !"_M_width", metadata !5, i32 454, i64 64, i64 64, i64 128, i32 2, metadata !58} ; [ DW_TAG_member ]
!66 = metadata !{i32 786445, metadata !49, metadata !"_M_flags", metadata !5, i32 455, i64 17, i64 32, i64 192, i32 2, metadata !67} ; [ DW_TAG_member ]
!67 = metadata !{i32 786454, metadata !49, metadata !"fmtflags", metadata !5, i32 256, i64 0, i64 0, i64 0, i32 0, metadata !3} ; [ DW_TAG_typedef ]
!68 = metadata !{i32 786445, metadata !49, metadata !"_M_exception", metadata !5, i32 456, i64 17, i64 32, i64 224, i32 2, metadata !69} ; [ DW_TAG_member ]
!69 = metadata !{i32 786454, metadata !49, metadata !"iostate", metadata !5, i32 331, i64 0, i64 0, i64 0, i32 0, metadata !26} ; [ DW_TAG_typedef ]
!70 = metadata !{i32 786445, metadata !49, metadata !"_M_streambuf_state", metadata !5, i32 457, i64 17, i64 32, i64 256, i32 2, metadata !69} ; [ DW_TAG_member ]
!71 = metadata !{i32 786445, metadata !49, metadata !"_M_callbacks", metadata !5, i32 491, i64 64, i64 64, i64 320, i32 2, metadata !72} ; [ DW_TAG_member ]
!72 = metadata !{i32 786447, null, metadata !"", null, i32 0, i64 64, i64 64, i64 0, i32 0, metadata !73} ; [ DW_TAG_pointer_type ]
!73 = metadata !{i32 786434, metadata !49, metadata !"_Callback_list", metadata !5, i32 461, i64 192, i64 64, i32 0, i32 0, null, metadata !74, i32 0, null, null} ; [ DW_TAG_class_type ]
!74 = metadata !{metadata !75, metadata !76, metadata !82, metadata !83, metadata !85, metadata !91, metadata !94}
!75 = metadata !{i32 786445, metadata !73, metadata !"_M_next", metadata !5, i32 464, i64 64, i64 64, i64 0, i32 0, metadata !72} ; [ DW_TAG_member ]
!76 = metadata !{i32 786445, metadata !73, metadata !"_M_fn", metadata !5, i32 465, i64 64, i64 64, i64 64, i32 0, metadata !77} ; [ DW_TAG_member ]
!77 = metadata !{i32 786454, metadata !49, metadata !"event_callback", metadata !5, i32 437, i64 0, i64 0, i64 0, i32 0, metadata !78} ; [ DW_TAG_typedef ]
!78 = metadata !{i32 786447, null, metadata !"", null, i32 0, i64 64, i64 64, i64 0, i32 0, metadata !79} ; [ DW_TAG_pointer_type ]
!79 = metadata !{i32 786453, i32 0, metadata !"", i32 0, i32 0, i64 0, i64 0, i64 0, i32 0, null, metadata !80, i32 0, i32 0} ; [ DW_TAG_subroutine_type ]
!80 = metadata !{null, metadata !48, metadata !81, metadata !56}
!81 = metadata !{i32 786448, null, null, null, i32 0, i64 0, i64 0, i64 0, i32 0, metadata !49} ; [ DW_TAG_reference_type ]
!82 = metadata !{i32 786445, metadata !73, metadata !"_M_index", metadata !5, i32 466, i64 32, i64 32, i64 128, i32 0, metadata !56} ; [ DW_TAG_member ]
!83 = metadata !{i32 786445, metadata !73, metadata !"_M_refcount", metadata !5, i32 467, i64 32, i64 32, i64 160, i32 0, metadata !84} ; [ DW_TAG_member ]
!84 = metadata !{i32 786454, null, metadata !"_Atomic_word", metadata !5, i32 32, i64 0, i64 0, i64 0, i32 0, metadata !56} ; [ DW_TAG_typedef ]
!85 = metadata !{i32 786478, i32 0, metadata !73, metadata !"_Callback_list", metadata !"_Callback_list", metadata !"", metadata !5, i32 469, metadata !86, i1 false, i1 false, i32 0, i32 0, null, i32 256, i1 false, null, null, i32 0, metadata !89, i32 469} ; [ DW_TAG_subprogram ]
!86 = metadata !{i32 786453, i32 0, metadata !"", i32 0, i32 0, i64 0, i64 0, i64 0, i32 0, null, metadata !87, i32 0, i32 0} ; [ DW_TAG_subroutine_type ]
!87 = metadata !{null, metadata !88, metadata !77, metadata !56, metadata !72}
!88 = metadata !{i32 786447, i32 0, metadata !"", i32 0, i32 0, i64 64, i64 64, i64 0, i32 64, metadata !73} ; [ DW_TAG_pointer_type ]
!89 = metadata !{metadata !90}
!90 = metadata !{i32 786468}                      ; [ DW_TAG_base_type ]
!91 = metadata !{i32 786478, i32 0, metadata !73, metadata !"_M_add_reference", metadata !"_M_add_reference", metadata !"_ZNSt8ios_base14_Callback_list16_M_add_referenceEv", metadata !5, i32 474, metadata !92, i1 false, i1 false, i32 0, i32 0, null, i32 256, i1 false, null, null, i32 0, metadata !89, i32 474} ; [ DW_TAG_subprogram ]
!92 = metadata !{i32 786453, i32 0, metadata !"", i32 0, i32 0, i64 0, i64 0, i64 0, i32 0, null, metadata !93, i32 0, i32 0} ; [ DW_TAG_subroutine_type ]
!93 = metadata !{null, metadata !88}
!94 = metadata !{i32 786478, i32 0, metadata !73, metadata !"_M_remove_reference", metadata !"_M_remove_reference", metadata !"_ZNSt8ios_base14_Callback_list19_M_remove_referenceEv", metadata !5, i32 478, metadata !95, i1 false, i1 false, i32 0, i32 0, null, i32 256, i1 false, null, null, i32 0, metadata !89, i32 478} ; [ DW_TAG_subprogram ]
!95 = metadata !{i32 786453, i32 0, metadata !"", i32 0, i32 0, i64 0, i64 0, i64 0, i32 0, null, metadata !96, i32 0, i32 0} ; [ DW_TAG_subroutine_type ]
!96 = metadata !{metadata !56, metadata !88}
!97 = metadata !{i32 786445, metadata !49, metadata !"_M_word_zero", metadata !5, i32 508, i64 128, i64 64, i64 384, i32 2, metadata !98} ; [ DW_TAG_member ]
!98 = metadata !{i32 786434, metadata !49, metadata !"_Words", metadata !5, i32 500, i64 128, i64 64, i32 0, i32 0, null, metadata !99, i32 0, null, null} ; [ DW_TAG_class_type ]
!99 = metadata !{metadata !100, metadata !102, metadata !103}
!100 = metadata !{i32 786445, metadata !98, metadata !"_M_pword", metadata !5, i32 502, i64 64, i64 64, i64 0, i32 0, metadata !101} ; [ DW_TAG_member ]
!101 = metadata !{i32 786447, null, metadata !"", null, i32 0, i64 64, i64 64, i64 0, i32 0, null} ; [ DW_TAG_pointer_type ]
!102 = metadata !{i32 786445, metadata !98, metadata !"_M_iword", metadata !5, i32 503, i64 64, i64 64, i64 64, i32 0, metadata !64} ; [ DW_TAG_member ]
!103 = metadata !{i32 786478, i32 0, metadata !98, metadata !"_Words", metadata !"_Words", metadata !"", metadata !5, i32 504, metadata !104, i1 false, i1 false, i32 0, i32 0, null, i32 256, i1 false, null, null, i32 0, metadata !89, i32 504} ; [ DW_TAG_subprogram ]
!104 = metadata !{i32 786453, i32 0, metadata !"", i32 0, i32 0, i64 0, i64 0, i64 0, i32 0, null, metadata !105, i32 0, i32 0} ; [ DW_TAG_subroutine_type ]
!105 = metadata !{null, metadata !106}
!106 = metadata !{i32 786447, i32 0, metadata !"", i32 0, i32 0, i64 64, i64 64, i64 0, i32 64, metadata !98} ; [ DW_TAG_pointer_type ]
!107 = metadata !{i32 786445, metadata !49, metadata !"_M_local_word", metadata !5, i32 513, i64 1024, i64 64, i64 512, i32 2, metadata !108} ; [ DW_TAG_member ]
!108 = metadata !{i32 786433, null, metadata !"", null, i32 0, i64 1024, i64 64, i32 0, i32 0, metadata !98, metadata !109, i32 0, i32 0} ; [ DW_TAG_array_type ]
!109 = metadata !{metadata !110}
!110 = metadata !{i32 786465, i64 0, i64 7}       ; [ DW_TAG_subrange_type ]
!111 = metadata !{i32 786445, metadata !49, metadata !"_M_word_size", metadata !5, i32 516, i64 32, i64 32, i64 1536, i32 2, metadata !56} ; [ DW_TAG_member ]
!112 = metadata !{i32 786445, metadata !49, metadata !"_M_word", metadata !5, i32 517, i64 64, i64 64, i64 1600, i32 2, metadata !113} ; [ DW_TAG_member ]
!113 = metadata !{i32 786447, null, metadata !"", null, i32 0, i64 64, i64 64, i64 0, i32 0, metadata !98} ; [ DW_TAG_pointer_type ]
!114 = metadata !{i32 786445, metadata !49, metadata !"_M_ios_locale", metadata !5, i32 523, i64 64, i64 64, i64 1664, i32 2, metadata !115} ; [ DW_TAG_member ]
!115 = metadata !{i32 786434, metadata !116, metadata !"locale", metadata !117, i32 63, i64 64, i64 64, i32 0, i32 0, null, metadata !118, i32 0, null, null} ; [ DW_TAG_class_type ]
!116 = metadata !{i32 786489, null, metadata !"std", metadata !117, i32 44} ; [ DW_TAG_namespace ]
!117 = metadata !{i32 786473, metadata !"/opt/Xilinx/SDSoC/2014.4/Vivado_HLS/2014.4/lnx64/tools/gcc/lib/gcc/x86_64-unknown-linux-gnu/4.6.3/../../../../include/c++/4.6.3/bits/locale_classes.h", metadata !"/home/trungnguyen/SDSoC/thesis/SDRelease/_sds/vhls", null} ; [ DW_TAG_file_type ]
!118 = metadata !{metadata !119, metadata !280, metadata !284, metadata !289, metadata !292, metadata !295, metadata !298, metadata !299, metadata !302, metadata !797, metadata !800, metadata !801, metadata !804, metadata !807, metadata !810, metadata !811, metadata !812, metadata !815, metadata !816, metadata !817}
!119 = metadata !{i32 786445, metadata !115, metadata !"_M_impl", metadata !117, i32 280, i64 64, i64 64, i64 0, i32 1, metadata !120} ; [ DW_TAG_member ]
!120 = metadata !{i32 786447, null, metadata !"", null, i32 0, i64 64, i64 64, i64 0, i32 0, metadata !121} ; [ DW_TAG_pointer_type ]
!121 = metadata !{i32 786434, metadata !115, metadata !"_Impl", metadata !117, i32 475, i64 320, i64 64, i32 0, i32 0, null, metadata !122, i32 0, null, null} ; [ DW_TAG_class_type ]
!122 = metadata !{metadata !123, metadata !124, metadata !209, metadata !210, metadata !211, metadata !214, metadata !218, metadata !219, metadata !224, metadata !227, metadata !230, metadata !231, metadata !234, metadata !235, metadata !239, metadata !244, metadata !269, metadata !272, metadata !275, metadata !278, metadata !279}
!123 = metadata !{i32 786445, metadata !121, metadata !"_M_refcount", metadata !117, i32 495, i64 32, i64 32, i64 0, i32 1, metadata !84} ; [ DW_TAG_member ]
!124 = metadata !{i32 786445, metadata !121, metadata !"_M_facets", metadata !117, i32 496, i64 64, i64 64, i64 64, i32 1, metadata !125} ; [ DW_TAG_member ]
!125 = metadata !{i32 786447, null, metadata !"", null, i32 0, i64 64, i64 64, i64 0, i32 0, metadata !126} ; [ DW_TAG_pointer_type ]
!126 = metadata !{i32 786447, null, metadata !"", null, i32 0, i64 64, i64 64, i64 0, i32 0, metadata !127} ; [ DW_TAG_pointer_type ]
!127 = metadata !{i32 786470, null, metadata !"", null, i32 0, i64 0, i64 0, i64 0, i32 0, metadata !128} ; [ DW_TAG_const_type ]
!128 = metadata !{i32 786434, metadata !115, metadata !"facet", metadata !117, i32 338, i64 128, i64 64, i32 0, i32 0, null, metadata !129, i32 0, metadata !128, null} ; [ DW_TAG_class_type ]
!129 = metadata !{metadata !130, metadata !131, metadata !132, metadata !135, metadata !141, metadata !144, metadata !179, metadata !182, metadata !185, metadata !188, metadata !191, metadata !194, metadata !198, metadata !199, metadata !203, metadata !207, metadata !208}
!130 = metadata !{i32 786445, metadata !117, metadata !"_vptr$facet", metadata !117, i32 0, i64 64, i64 0, i64 0, i32 0, metadata !52} ; [ DW_TAG_member ]
!131 = metadata !{i32 786445, metadata !128, metadata !"_M_refcount", metadata !117, i32 344, i64 32, i64 32, i64 64, i32 1, metadata !84} ; [ DW_TAG_member ]
!132 = metadata !{i32 786478, i32 0, metadata !128, metadata !"_S_initialize_once", metadata !"_S_initialize_once", metadata !"_ZNSt6locale5facet18_S_initialize_onceEv", metadata !117, i32 357, metadata !133, i1 false, i1 false, i32 0, i32 0, null, i32 257, i1 false, null, null, i32 0, metadata !89, i32 357} ; [ DW_TAG_subprogram ]
!133 = metadata !{i32 786453, i32 0, metadata !"", i32 0, i32 0, i64 0, i64 0, i64 0, i32 0, null, metadata !134, i32 0, i32 0} ; [ DW_TAG_subroutine_type ]
!134 = metadata !{null}
!135 = metadata !{i32 786478, i32 0, metadata !128, metadata !"facet", metadata !"facet", metadata !"", metadata !117, i32 370, metadata !136, i1 false, i1 false, i32 0, i32 0, null, i32 386, i1 false, null, null, i32 0, metadata !89, i32 370} ; [ DW_TAG_subprogram ]
!136 = metadata !{i32 786453, i32 0, metadata !"", i32 0, i32 0, i64 0, i64 0, i64 0, i32 0, null, metadata !137, i32 0, i32 0} ; [ DW_TAG_subroutine_type ]
!137 = metadata !{null, metadata !138, metadata !139}
!138 = metadata !{i32 786447, i32 0, metadata !"", i32 0, i32 0, i64 64, i64 64, i64 0, i32 64, metadata !128} ; [ DW_TAG_pointer_type ]
!139 = metadata !{i32 786454, metadata !62, metadata !"size_t", metadata !117, i32 155, i64 0, i64 0, i64 0, i32 0, metadata !140} ; [ DW_TAG_typedef ]
!140 = metadata !{i32 786468, null, metadata !"long unsigned int", null, i32 0, i64 64, i64 64, i64 0, i32 0, i32 7} ; [ DW_TAG_base_type ]
!141 = metadata !{i32 786478, i32 0, metadata !128, metadata !"~facet", metadata !"~facet", metadata !"", metadata !117, i32 375, metadata !142, i1 false, i1 false, i32 1, i32 0, metadata !128, i32 258, i1 false, null, null, i32 0, metadata !89, i32 375} ; [ DW_TAG_subprogram ]
!142 = metadata !{i32 786453, i32 0, metadata !"", i32 0, i32 0, i64 0, i64 0, i64 0, i32 0, null, metadata !143, i32 0, i32 0} ; [ DW_TAG_subroutine_type ]
!143 = metadata !{null, metadata !138}
!144 = metadata !{i32 786478, i32 0, metadata !128, metadata !"_S_create_c_locale", metadata !"_S_create_c_locale", metadata !"_ZNSt6locale5facet18_S_create_c_localeERP15__locale_structPKcS2_", metadata !117, i32 378, metadata !145, i1 false, i1 false, i32 0, i32 0, null, i32 258, i1 false, null, null, i32 0, metadata !89, i32 378} ; [ DW_TAG_subprogram ]
!145 = metadata !{i32 786453, i32 0, metadata !"", i32 0, i32 0, i64 0, i64 0, i64 0, i32 0, null, metadata !146, i32 0, i32 0} ; [ DW_TAG_subroutine_type ]
!146 = metadata !{null, metadata !147, metadata !172, metadata !148}
!147 = metadata !{i32 786448, null, null, null, i32 0, i64 0, i64 0, i64 0, i32 0, metadata !148} ; [ DW_TAG_reference_type ]
!148 = metadata !{i32 786454, metadata !149, metadata !"__c_locale", metadata !117, i32 62, i64 0, i64 0, i64 0, i32 0, metadata !151} ; [ DW_TAG_typedef ]
!149 = metadata !{i32 786489, null, metadata !"std", metadata !150, i32 58} ; [ DW_TAG_namespace ]
!150 = metadata !{i32 786473, metadata !"/opt/Xilinx/SDSoC/2014.4/Vivado_HLS/2014.4/lnx64/tools/gcc/lib/gcc/x86_64-unknown-linux-gnu/4.6.3/../../../../include/c++/4.6.3/x86_64-unknown-linux-gnu/bits/c++locale.h", metadata !"/home/trungnguyen/SDSoC/thesis/SDRelease/_sds/vhls", null} ; [ DW_TAG_file_type ]
!151 = metadata !{i32 786454, null, metadata !"__locale_t", metadata !117, i32 40, i64 0, i64 0, i64 0, i32 0, metadata !152} ; [ DW_TAG_typedef ]
!152 = metadata !{i32 786447, null, metadata !"", null, i32 0, i64 64, i64 64, i64 0, i32 0, metadata !153} ; [ DW_TAG_pointer_type ]
!153 = metadata !{i32 786434, null, metadata !"__locale_struct", metadata !154, i32 28, i64 1856, i64 64, i32 0, i32 0, null, metadata !155, i32 0, null, null} ; [ DW_TAG_class_type ]
!154 = metadata !{i32 786473, metadata !"/usr/include/xlocale.h", metadata !"/home/trungnguyen/SDSoC/thesis/SDRelease/_sds/vhls", null} ; [ DW_TAG_file_type ]
!155 = metadata !{metadata !156, metadata !162, metadata !166, metadata !169, metadata !170, metadata !175}
!156 = metadata !{i32 786445, metadata !153, metadata !"__locales", metadata !154, i32 31, i64 832, i64 64, i64 0, i32 0, metadata !157} ; [ DW_TAG_member ]
!157 = metadata !{i32 786433, null, metadata !"", null, i32 0, i64 832, i64 64, i32 0, i32 0, metadata !158, metadata !160, i32 0, i32 0} ; [ DW_TAG_array_type ]
!158 = metadata !{i32 786447, null, metadata !"", null, i32 0, i64 64, i64 64, i64 0, i32 0, metadata !159} ; [ DW_TAG_pointer_type ]
!159 = metadata !{i32 786434, null, metadata !"__locale_data", metadata !154, i32 31, i32 0, i32 0, i32 0, i32 4, null, null, i32 0} ; [ DW_TAG_class_type ]
!160 = metadata !{metadata !161}
!161 = metadata !{i32 786465, i64 0, i64 12}      ; [ DW_TAG_subrange_type ]
!162 = metadata !{i32 786445, metadata !153, metadata !"__ctype_b", metadata !154, i32 34, i64 64, i64 64, i64 832, i32 0, metadata !163} ; [ DW_TAG_member ]
!163 = metadata !{i32 786447, null, metadata !"", null, i32 0, i64 64, i64 64, i64 0, i32 0, metadata !164} ; [ DW_TAG_pointer_type ]
!164 = metadata !{i32 786470, null, metadata !"", null, i32 0, i64 0, i64 0, i64 0, i32 0, metadata !165} ; [ DW_TAG_const_type ]
!165 = metadata !{i32 786468, null, metadata !"unsigned short", null, i32 0, i64 16, i64 16, i64 0, i32 0, i32 7} ; [ DW_TAG_base_type ]
!166 = metadata !{i32 786445, metadata !153, metadata !"__ctype_tolower", metadata !154, i32 35, i64 64, i64 64, i64 896, i32 0, metadata !167} ; [ DW_TAG_member ]
!167 = metadata !{i32 786447, null, metadata !"", null, i32 0, i64 64, i64 64, i64 0, i32 0, metadata !168} ; [ DW_TAG_pointer_type ]
!168 = metadata !{i32 786470, null, metadata !"", null, i32 0, i64 0, i64 0, i64 0, i32 0, metadata !56} ; [ DW_TAG_const_type ]
!169 = metadata !{i32 786445, metadata !153, metadata !"__ctype_toupper", metadata !154, i32 36, i64 64, i64 64, i64 960, i32 0, metadata !167} ; [ DW_TAG_member ]
!170 = metadata !{i32 786445, metadata !153, metadata !"__names", metadata !154, i32 39, i64 832, i64 64, i64 1024, i32 0, metadata !171} ; [ DW_TAG_member ]
!171 = metadata !{i32 786433, null, metadata !"", null, i32 0, i64 832, i64 64, i32 0, i32 0, metadata !172, metadata !160, i32 0, i32 0} ; [ DW_TAG_array_type ]
!172 = metadata !{i32 786447, null, metadata !"", null, i32 0, i64 64, i64 64, i64 0, i32 0, metadata !173} ; [ DW_TAG_pointer_type ]
!173 = metadata !{i32 786470, null, metadata !"", null, i32 0, i64 0, i64 0, i64 0, i32 0, metadata !174} ; [ DW_TAG_const_type ]
!174 = metadata !{i32 786468, null, metadata !"char", null, i32 0, i64 8, i64 8, i64 0, i32 0, i32 6} ; [ DW_TAG_base_type ]
!175 = metadata !{i32 786478, i32 0, metadata !153, metadata !"__locale_struct", metadata !"__locale_struct", metadata !"", metadata !154, i32 42, metadata !176, i1 false, i1 false, i32 0, i32 0, null, i32 256, i1 false, null, null, i32 0, metadata !89, i32 42} ; [ DW_TAG_subprogram ]
!176 = metadata !{i32 786453, i32 0, metadata !"", i32 0, i32 0, i64 0, i64 0, i64 0, i32 0, null, metadata !177, i32 0, i32 0} ; [ DW_TAG_subroutine_type ]
!177 = metadata !{null, metadata !178}
!178 = metadata !{i32 786447, i32 0, metadata !"", i32 0, i32 0, i64 64, i64 64, i64 0, i32 64, metadata !153} ; [ DW_TAG_pointer_type ]
!179 = metadata !{i32 786478, i32 0, metadata !128, metadata !"_S_clone_c_locale", metadata !"_S_clone_c_locale", metadata !"_ZNSt6locale5facet17_S_clone_c_localeERP15__locale_struct", metadata !117, i32 382, metadata !180, i1 false, i1 false, i32 0, i32 0, null, i32 258, i1 false, null, null, i32 0, metadata !89, i32 382} ; [ DW_TAG_subprogram ]
!180 = metadata !{i32 786453, i32 0, metadata !"", i32 0, i32 0, i64 0, i64 0, i64 0, i32 0, null, metadata !181, i32 0, i32 0} ; [ DW_TAG_subroutine_type ]
!181 = metadata !{metadata !148, metadata !147}
!182 = metadata !{i32 786478, i32 0, metadata !128, metadata !"_S_destroy_c_locale", metadata !"_S_destroy_c_locale", metadata !"_ZNSt6locale5facet19_S_destroy_c_localeERP15__locale_struct", metadata !117, i32 385, metadata !183, i1 false, i1 false, i32 0, i32 0, null, i32 258, i1 false, null, null, i32 0, metadata !89, i32 385} ; [ DW_TAG_subprogram ]
!183 = metadata !{i32 786453, i32 0, metadata !"", i32 0, i32 0, i64 0, i64 0, i64 0, i32 0, null, metadata !184, i32 0, i32 0} ; [ DW_TAG_subroutine_type ]
!184 = metadata !{null, metadata !147}
!185 = metadata !{i32 786478, i32 0, metadata !128, metadata !"_S_lc_ctype_c_locale", metadata !"_S_lc_ctype_c_locale", metadata !"_ZNSt6locale5facet20_S_lc_ctype_c_localeEP15__locale_structPKc", metadata !117, i32 388, metadata !186, i1 false, i1 false, i32 0, i32 0, null, i32 258, i1 false, null, null, i32 0, metadata !89, i32 388} ; [ DW_TAG_subprogram ]
!186 = metadata !{i32 786453, i32 0, metadata !"", i32 0, i32 0, i64 0, i64 0, i64 0, i32 0, null, metadata !187, i32 0, i32 0} ; [ DW_TAG_subroutine_type ]
!187 = metadata !{metadata !148, metadata !148, metadata !172}
!188 = metadata !{i32 786478, i32 0, metadata !128, metadata !"_S_get_c_locale", metadata !"_S_get_c_locale", metadata !"_ZNSt6locale5facet15_S_get_c_localeEv", metadata !117, i32 393, metadata !189, i1 false, i1 false, i32 0, i32 0, null, i32 258, i1 false, null, null, i32 0, metadata !89, i32 393} ; [ DW_TAG_subprogram ]
!189 = metadata !{i32 786453, i32 0, metadata !"", i32 0, i32 0, i64 0, i64 0, i64 0, i32 0, null, metadata !190, i32 0, i32 0} ; [ DW_TAG_subroutine_type ]
!190 = metadata !{metadata !148}
!191 = metadata !{i32 786478, i32 0, metadata !128, metadata !"_S_get_c_name", metadata !"_S_get_c_name", metadata !"_ZNSt6locale5facet13_S_get_c_nameEv", metadata !117, i32 396, metadata !192, i1 false, i1 false, i32 0, i32 0, null, i32 258, i1 false, null, null, i32 0, metadata !89, i32 396} ; [ DW_TAG_subprogram ]
!192 = metadata !{i32 786453, i32 0, metadata !"", i32 0, i32 0, i64 0, i64 0, i64 0, i32 0, null, metadata !193, i32 0, i32 0} ; [ DW_TAG_subroutine_type ]
!193 = metadata !{metadata !172}
!194 = metadata !{i32 786478, i32 0, metadata !128, metadata !"_M_add_reference", metadata !"_M_add_reference", metadata !"_ZNKSt6locale5facet16_M_add_referenceEv", metadata !117, i32 400, metadata !195, i1 false, i1 false, i32 0, i32 0, null, i32 257, i1 false, null, null, i32 0, metadata !89, i32 400} ; [ DW_TAG_subprogram ]
!195 = metadata !{i32 786453, i32 0, metadata !"", i32 0, i32 0, i64 0, i64 0, i64 0, i32 0, null, metadata !196, i32 0, i32 0} ; [ DW_TAG_subroutine_type ]
!196 = metadata !{null, metadata !197}
!197 = metadata !{i32 786447, i32 0, metadata !"", i32 0, i32 0, i64 64, i64 64, i64 0, i32 64, metadata !127} ; [ DW_TAG_pointer_type ]
!198 = metadata !{i32 786478, i32 0, metadata !128, metadata !"_M_remove_reference", metadata !"_M_remove_reference", metadata !"_ZNKSt6locale5facet19_M_remove_referenceEv", metadata !117, i32 404, metadata !195, i1 false, i1 false, i32 0, i32 0, null, i32 257, i1 false, null, null, i32 0, metadata !89, i32 404} ; [ DW_TAG_subprogram ]
!199 = metadata !{i32 786478, i32 0, metadata !128, metadata !"facet", metadata !"facet", metadata !"", metadata !117, i32 418, metadata !200, i1 false, i1 false, i32 0, i32 0, null, i32 257, i1 false, null, null, i32 0, metadata !89, i32 418} ; [ DW_TAG_subprogram ]
!200 = metadata !{i32 786453, i32 0, metadata !"", i32 0, i32 0, i64 0, i64 0, i64 0, i32 0, null, metadata !201, i32 0, i32 0} ; [ DW_TAG_subroutine_type ]
!201 = metadata !{null, metadata !138, metadata !202}
!202 = metadata !{i32 786448, null, null, null, i32 0, i64 0, i64 0, i64 0, i32 0, metadata !127} ; [ DW_TAG_reference_type ]
!203 = metadata !{i32 786478, i32 0, metadata !128, metadata !"operator=", metadata !"operator=", metadata !"_ZNSt6locale5facetaSERKS0_", metadata !117, i32 421, metadata !204, i1 false, i1 false, i32 0, i32 0, null, i32 257, i1 false, null, null, i32 0, metadata !89, i32 421} ; [ DW_TAG_subprogram ]
!204 = metadata !{i32 786453, i32 0, metadata !"", i32 0, i32 0, i64 0, i64 0, i64 0, i32 0, null, metadata !205, i32 0, i32 0} ; [ DW_TAG_subroutine_type ]
!205 = metadata !{metadata !206, metadata !138, metadata !202}
!206 = metadata !{i32 786448, null, null, null, i32 0, i64 0, i64 0, i64 0, i32 0, metadata !128} ; [ DW_TAG_reference_type ]
!207 = metadata !{i32 786474, metadata !128, null, metadata !117, i32 0, i64 0, i64 0, i64 0, i32 0, metadata !121} ; [ DW_TAG_friend ]
!208 = metadata !{i32 786474, metadata !128, null, metadata !117, i32 0, i64 0, i64 0, i64 0, i32 0, metadata !115} ; [ DW_TAG_friend ]
!209 = metadata !{i32 786445, metadata !121, metadata !"_M_facets_size", metadata !117, i32 497, i64 64, i64 64, i64 128, i32 1, metadata !139} ; [ DW_TAG_member ]
!210 = metadata !{i32 786445, metadata !121, metadata !"_M_caches", metadata !117, i32 498, i64 64, i64 64, i64 192, i32 1, metadata !125} ; [ DW_TAG_member ]
!211 = metadata !{i32 786445, metadata !121, metadata !"_M_names", metadata !117, i32 499, i64 64, i64 64, i64 256, i32 1, metadata !212} ; [ DW_TAG_member ]
!212 = metadata !{i32 786447, null, metadata !"", null, i32 0, i64 64, i64 64, i64 0, i32 0, metadata !213} ; [ DW_TAG_pointer_type ]
!213 = metadata !{i32 786447, null, metadata !"", null, i32 0, i64 64, i64 64, i64 0, i32 0, metadata !174} ; [ DW_TAG_pointer_type ]
!214 = metadata !{i32 786478, i32 0, metadata !121, metadata !"_M_add_reference", metadata !"_M_add_reference", metadata !"_ZNSt6locale5_Impl16_M_add_referenceEv", metadata !117, i32 509, metadata !215, i1 false, i1 false, i32 0, i32 0, null, i32 257, i1 false, null, null, i32 0, metadata !89, i32 509} ; [ DW_TAG_subprogram ]
!215 = metadata !{i32 786453, i32 0, metadata !"", i32 0, i32 0, i64 0, i64 0, i64 0, i32 0, null, metadata !216, i32 0, i32 0} ; [ DW_TAG_subroutine_type ]
!216 = metadata !{null, metadata !217}
!217 = metadata !{i32 786447, i32 0, metadata !"", i32 0, i32 0, i64 64, i64 64, i64 0, i32 64, metadata !121} ; [ DW_TAG_pointer_type ]
!218 = metadata !{i32 786478, i32 0, metadata !121, metadata !"_M_remove_reference", metadata !"_M_remove_reference", metadata !"_ZNSt6locale5_Impl19_M_remove_referenceEv", metadata !117, i32 513, metadata !215, i1 false, i1 false, i32 0, i32 0, null, i32 257, i1 false, null, null, i32 0, metadata !89, i32 513} ; [ DW_TAG_subprogram ]
!219 = metadata !{i32 786478, i32 0, metadata !121, metadata !"_Impl", metadata !"_Impl", metadata !"", metadata !117, i32 527, metadata !220, i1 false, i1 false, i32 0, i32 0, null, i32 257, i1 false, null, null, i32 0, metadata !89, i32 527} ; [ DW_TAG_subprogram ]
!220 = metadata !{i32 786453, i32 0, metadata !"", i32 0, i32 0, i64 0, i64 0, i64 0, i32 0, null, metadata !221, i32 0, i32 0} ; [ DW_TAG_subroutine_type ]
!221 = metadata !{null, metadata !217, metadata !222, metadata !139}
!222 = metadata !{i32 786448, null, null, null, i32 0, i64 0, i64 0, i64 0, i32 0, metadata !223} ; [ DW_TAG_reference_type ]
!223 = metadata !{i32 786470, null, metadata !"", null, i32 0, i64 0, i64 0, i64 0, i32 0, metadata !121} ; [ DW_TAG_const_type ]
!224 = metadata !{i32 786478, i32 0, metadata !121, metadata !"_Impl", metadata !"_Impl", metadata !"", metadata !117, i32 528, metadata !225, i1 false, i1 false, i32 0, i32 0, null, i32 257, i1 false, null, null, i32 0, metadata !89, i32 528} ; [ DW_TAG_subprogram ]
!225 = metadata !{i32 786453, i32 0, metadata !"", i32 0, i32 0, i64 0, i64 0, i64 0, i32 0, null, metadata !226, i32 0, i32 0} ; [ DW_TAG_subroutine_type ]
!226 = metadata !{null, metadata !217, metadata !172, metadata !139}
!227 = metadata !{i32 786478, i32 0, metadata !121, metadata !"_Impl", metadata !"_Impl", metadata !"", metadata !117, i32 529, metadata !228, i1 false, i1 false, i32 0, i32 0, null, i32 257, i1 false, null, null, i32 0, metadata !89, i32 529} ; [ DW_TAG_subprogram ]
!228 = metadata !{i32 786453, i32 0, metadata !"", i32 0, i32 0, i64 0, i64 0, i64 0, i32 0, null, metadata !229, i32 0, i32 0} ; [ DW_TAG_subroutine_type ]
!229 = metadata !{null, metadata !217, metadata !139}
!230 = metadata !{i32 786478, i32 0, metadata !121, metadata !"~_Impl", metadata !"~_Impl", metadata !"", metadata !117, i32 531, metadata !215, i1 false, i1 false, i32 0, i32 0, null, i32 257, i1 false, null, null, i32 0, metadata !89, i32 531} ; [ DW_TAG_subprogram ]
!231 = metadata !{i32 786478, i32 0, metadata !121, metadata !"_Impl", metadata !"_Impl", metadata !"", metadata !117, i32 533, metadata !232, i1 false, i1 false, i32 0, i32 0, null, i32 257, i1 false, null, null, i32 0, metadata !89, i32 533} ; [ DW_TAG_subprogram ]
!232 = metadata !{i32 786453, i32 0, metadata !"", i32 0, i32 0, i64 0, i64 0, i64 0, i32 0, null, metadata !233, i32 0, i32 0} ; [ DW_TAG_subroutine_type ]
!233 = metadata !{null, metadata !217, metadata !222}
!234 = metadata !{i32 786478, i32 0, metadata !121, metadata !"operator=", metadata !"operator=", metadata !"_ZNSt6locale5_ImplaSERKS0_", metadata !117, i32 536, metadata !232, i1 false, i1 false, i32 0, i32 0, null, i32 257, i1 false, null, null, i32 0, metadata !89, i32 536} ; [ DW_TAG_subprogram ]
!235 = metadata !{i32 786478, i32 0, metadata !121, metadata !"_M_check_same_name", metadata !"_M_check_same_name", metadata !"_ZNSt6locale5_Impl18_M_check_same_nameEv", metadata !117, i32 539, metadata !236, i1 false, i1 false, i32 0, i32 0, null, i32 257, i1 false, null, null, i32 0, metadata !89, i32 539} ; [ DW_TAG_subprogram ]
!236 = metadata !{i32 786453, i32 0, metadata !"", i32 0, i32 0, i64 0, i64 0, i64 0, i32 0, null, metadata !237, i32 0, i32 0} ; [ DW_TAG_subroutine_type ]
!237 = metadata !{metadata !238, metadata !217}
!238 = metadata !{i32 786468, null, metadata !"bool", null, i32 0, i64 8, i64 8, i64 0, i32 0, i32 2} ; [ DW_TAG_base_type ]
!239 = metadata !{i32 786478, i32 0, metadata !121, metadata !"_M_replace_categories", metadata !"_M_replace_categories", metadata !"_ZNSt6locale5_Impl21_M_replace_categoriesEPKS0_i", metadata !117, i32 550, metadata !240, i1 false, i1 false, i32 0, i32 0, null, i32 257, i1 false, null, null, i32 0, metadata !89, i32 550} ; [ DW_TAG_subprogram ]
!240 = metadata !{i32 786453, i32 0, metadata !"", i32 0, i32 0, i64 0, i64 0, i64 0, i32 0, null, metadata !241, i32 0, i32 0} ; [ DW_TAG_subroutine_type ]
!241 = metadata !{null, metadata !217, metadata !242, metadata !243}
!242 = metadata !{i32 786447, null, metadata !"", null, i32 0, i64 64, i64 64, i64 0, i32 0, metadata !223} ; [ DW_TAG_pointer_type ]
!243 = metadata !{i32 786454, metadata !115, metadata !"category", metadata !117, i32 68, i64 0, i64 0, i64 0, i32 0, metadata !56} ; [ DW_TAG_typedef ]
!244 = metadata !{i32 786478, i32 0, metadata !121, metadata !"_M_replace_category", metadata !"_M_replace_category", metadata !"_ZNSt6locale5_Impl19_M_replace_categoryEPKS0_PKPKNS_2idE", metadata !117, i32 553, metadata !245, i1 false, i1 false, i32 0, i32 0, null, i32 257, i1 false, null, null, i32 0, metadata !89, i32 553} ; [ DW_TAG_subprogram ]
!245 = metadata !{i32 786453, i32 0, metadata !"", i32 0, i32 0, i64 0, i64 0, i64 0, i32 0, null, metadata !246, i32 0, i32 0} ; [ DW_TAG_subroutine_type ]
!246 = metadata !{null, metadata !217, metadata !242, metadata !247}
!247 = metadata !{i32 786447, null, metadata !"", null, i32 0, i64 64, i64 64, i64 0, i32 0, metadata !248} ; [ DW_TAG_pointer_type ]
!248 = metadata !{i32 786470, null, metadata !"", null, i32 0, i64 0, i64 0, i64 0, i32 0, metadata !249} ; [ DW_TAG_const_type ]
!249 = metadata !{i32 786447, null, metadata !"", null, i32 0, i64 64, i64 64, i64 0, i32 0, metadata !250} ; [ DW_TAG_pointer_type ]
!250 = metadata !{i32 786470, null, metadata !"", null, i32 0, i64 0, i64 0, i64 0, i32 0, metadata !251} ; [ DW_TAG_const_type ]
!251 = metadata !{i32 786434, metadata !115, metadata !"id", metadata !117, i32 436, i64 64, i64 64, i32 0, i32 0, null, metadata !252, i32 0, null, null} ; [ DW_TAG_class_type ]
!252 = metadata !{metadata !253, metadata !254, metadata !259, metadata !260, metadata !263, metadata !267, metadata !268}
!253 = metadata !{i32 786445, metadata !251, metadata !"_M_index", metadata !117, i32 453, i64 64, i64 64, i64 0, i32 1, metadata !139} ; [ DW_TAG_member ]
!254 = metadata !{i32 786478, i32 0, metadata !251, metadata !"operator=", metadata !"operator=", metadata !"_ZNSt6locale2idaSERKS0_", metadata !117, i32 459, metadata !255, i1 false, i1 false, i32 0, i32 0, null, i32 257, i1 false, null, null, i32 0, metadata !89, i32 459} ; [ DW_TAG_subprogram ]
!255 = metadata !{i32 786453, i32 0, metadata !"", i32 0, i32 0, i64 0, i64 0, i64 0, i32 0, null, metadata !256, i32 0, i32 0} ; [ DW_TAG_subroutine_type ]
!256 = metadata !{null, metadata !257, metadata !258}
!257 = metadata !{i32 786447, i32 0, metadata !"", i32 0, i32 0, i64 64, i64 64, i64 0, i32 64, metadata !251} ; [ DW_TAG_pointer_type ]
!258 = metadata !{i32 786448, null, null, null, i32 0, i64 0, i64 0, i64 0, i32 0, metadata !250} ; [ DW_TAG_reference_type ]
!259 = metadata !{i32 786478, i32 0, metadata !251, metadata !"id", metadata !"id", metadata !"", metadata !117, i32 461, metadata !255, i1 false, i1 false, i32 0, i32 0, null, i32 257, i1 false, null, null, i32 0, metadata !89, i32 461} ; [ DW_TAG_subprogram ]
!260 = metadata !{i32 786478, i32 0, metadata !251, metadata !"id", metadata !"id", metadata !"", metadata !117, i32 467, metadata !261, i1 false, i1 false, i32 0, i32 0, null, i32 256, i1 false, null, null, i32 0, metadata !89, i32 467} ; [ DW_TAG_subprogram ]
!261 = metadata !{i32 786453, i32 0, metadata !"", i32 0, i32 0, i64 0, i64 0, i64 0, i32 0, null, metadata !262, i32 0, i32 0} ; [ DW_TAG_subroutine_type ]
!262 = metadata !{null, metadata !257}
!263 = metadata !{i32 786478, i32 0, metadata !251, metadata !"_M_id", metadata !"_M_id", metadata !"_ZNKSt6locale2id5_M_idEv", metadata !117, i32 470, metadata !264, i1 false, i1 false, i32 0, i32 0, null, i32 256, i1 false, null, null, i32 0, metadata !89, i32 470} ; [ DW_TAG_subprogram ]
!264 = metadata !{i32 786453, i32 0, metadata !"", i32 0, i32 0, i64 0, i64 0, i64 0, i32 0, null, metadata !265, i32 0, i32 0} ; [ DW_TAG_subroutine_type ]
!265 = metadata !{metadata !139, metadata !266}
!266 = metadata !{i32 786447, i32 0, metadata !"", i32 0, i32 0, i64 64, i64 64, i64 0, i32 64, metadata !250} ; [ DW_TAG_pointer_type ]
!267 = metadata !{i32 786474, metadata !251, null, metadata !117, i32 0, i64 0, i64 0, i64 0, i32 0, metadata !121} ; [ DW_TAG_friend ]
!268 = metadata !{i32 786474, metadata !251, null, metadata !117, i32 0, i64 0, i64 0, i64 0, i32 0, metadata !115} ; [ DW_TAG_friend ]
!269 = metadata !{i32 786478, i32 0, metadata !121, metadata !"_M_replace_facet", metadata !"_M_replace_facet", metadata !"_ZNSt6locale5_Impl16_M_replace_facetEPKS0_PKNS_2idE", metadata !117, i32 556, metadata !270, i1 false, i1 false, i32 0, i32 0, null, i32 257, i1 false, null, null, i32 0, metadata !89, i32 556} ; [ DW_TAG_subprogram ]
!270 = metadata !{i32 786453, i32 0, metadata !"", i32 0, i32 0, i64 0, i64 0, i64 0, i32 0, null, metadata !271, i32 0, i32 0} ; [ DW_TAG_subroutine_type ]
!271 = metadata !{null, metadata !217, metadata !242, metadata !249}
!272 = metadata !{i32 786478, i32 0, metadata !121, metadata !"_M_install_facet", metadata !"_M_install_facet", metadata !"_ZNSt6locale5_Impl16_M_install_facetEPKNS_2idEPKNS_5facetE", metadata !117, i32 559, metadata !273, i1 false, i1 false, i32 0, i32 0, null, i32 257, i1 false, null, null, i32 0, metadata !89, i32 559} ; [ DW_TAG_subprogram ]
!273 = metadata !{i32 786453, i32 0, metadata !"", i32 0, i32 0, i64 0, i64 0, i64 0, i32 0, null, metadata !274, i32 0, i32 0} ; [ DW_TAG_subroutine_type ]
!274 = metadata !{null, metadata !217, metadata !249, metadata !126}
!275 = metadata !{i32 786478, i32 0, metadata !121, metadata !"_M_install_cache", metadata !"_M_install_cache", metadata !"_ZNSt6locale5_Impl16_M_install_cacheEPKNS_5facetEm", metadata !117, i32 567, metadata !276, i1 false, i1 false, i32 0, i32 0, null, i32 257, i1 false, null, null, i32 0, metadata !89, i32 567} ; [ DW_TAG_subprogram ]
!276 = metadata !{i32 786453, i32 0, metadata !"", i32 0, i32 0, i64 0, i64 0, i64 0, i32 0, null, metadata !277, i32 0, i32 0} ; [ DW_TAG_subroutine_type ]
!277 = metadata !{null, metadata !217, metadata !126, metadata !139}
!278 = metadata !{i32 786474, metadata !121, null, metadata !117, i32 0, i64 0, i64 0, i64 0, i32 0, metadata !128} ; [ DW_TAG_friend ]
!279 = metadata !{i32 786474, metadata !121, null, metadata !117, i32 0, i64 0, i64 0, i64 0, i32 0, metadata !115} ; [ DW_TAG_friend ]
!280 = metadata !{i32 786478, i32 0, metadata !115, metadata !"locale", metadata !"locale", metadata !"", metadata !117, i32 118, metadata !281, i1 false, i1 false, i32 0, i32 0, null, i32 256, i1 false, null, null, i32 0, metadata !89, i32 118} ; [ DW_TAG_subprogram ]
!281 = metadata !{i32 786453, i32 0, metadata !"", i32 0, i32 0, i64 0, i64 0, i64 0, i32 0, null, metadata !282, i32 0, i32 0} ; [ DW_TAG_subroutine_type ]
!282 = metadata !{null, metadata !283}
!283 = metadata !{i32 786447, i32 0, metadata !"", i32 0, i32 0, i64 64, i64 64, i64 0, i32 64, metadata !115} ; [ DW_TAG_pointer_type ]
!284 = metadata !{i32 786478, i32 0, metadata !115, metadata !"locale", metadata !"locale", metadata !"", metadata !117, i32 127, metadata !285, i1 false, i1 false, i32 0, i32 0, null, i32 256, i1 false, null, null, i32 0, metadata !89, i32 127} ; [ DW_TAG_subprogram ]
!285 = metadata !{i32 786453, i32 0, metadata !"", i32 0, i32 0, i64 0, i64 0, i64 0, i32 0, null, metadata !286, i32 0, i32 0} ; [ DW_TAG_subroutine_type ]
!286 = metadata !{null, metadata !283, metadata !287}
!287 = metadata !{i32 786448, null, null, null, i32 0, i64 0, i64 0, i64 0, i32 0, metadata !288} ; [ DW_TAG_reference_type ]
!288 = metadata !{i32 786470, null, metadata !"", null, i32 0, i64 0, i64 0, i64 0, i32 0, metadata !115} ; [ DW_TAG_const_type ]
!289 = metadata !{i32 786478, i32 0, metadata !115, metadata !"locale", metadata !"locale", metadata !"", metadata !117, i32 138, metadata !290, i1 false, i1 false, i32 0, i32 0, null, i32 384, i1 false, null, null, i32 0, metadata !89, i32 138} ; [ DW_TAG_subprogram ]
!290 = metadata !{i32 786453, i32 0, metadata !"", i32 0, i32 0, i64 0, i64 0, i64 0, i32 0, null, metadata !291, i32 0, i32 0} ; [ DW_TAG_subroutine_type ]
!291 = metadata !{null, metadata !283, metadata !172}
!292 = metadata !{i32 786478, i32 0, metadata !115, metadata !"locale", metadata !"locale", metadata !"", metadata !117, i32 152, metadata !293, i1 false, i1 false, i32 0, i32 0, null, i32 256, i1 false, null, null, i32 0, metadata !89, i32 152} ; [ DW_TAG_subprogram ]
!293 = metadata !{i32 786453, i32 0, metadata !"", i32 0, i32 0, i64 0, i64 0, i64 0, i32 0, null, metadata !294, i32 0, i32 0} ; [ DW_TAG_subroutine_type ]
!294 = metadata !{null, metadata !283, metadata !287, metadata !172, metadata !243}
!295 = metadata !{i32 786478, i32 0, metadata !115, metadata !"locale", metadata !"locale", metadata !"", metadata !117, i32 165, metadata !296, i1 false, i1 false, i32 0, i32 0, null, i32 256, i1 false, null, null, i32 0, metadata !89, i32 165} ; [ DW_TAG_subprogram ]
!296 = metadata !{i32 786453, i32 0, metadata !"", i32 0, i32 0, i64 0, i64 0, i64 0, i32 0, null, metadata !297, i32 0, i32 0} ; [ DW_TAG_subroutine_type ]
!297 = metadata !{null, metadata !283, metadata !287, metadata !287, metadata !243}
!298 = metadata !{i32 786478, i32 0, metadata !115, metadata !"~locale", metadata !"~locale", metadata !"", metadata !117, i32 181, metadata !281, i1 false, i1 false, i32 0, i32 0, null, i32 256, i1 false, null, null, i32 0, metadata !89, i32 181} ; [ DW_TAG_subprogram ]
!299 = metadata !{i32 786478, i32 0, metadata !115, metadata !"operator=", metadata !"operator=", metadata !"_ZNSt6localeaSERKS_", metadata !117, i32 192, metadata !300, i1 false, i1 false, i32 0, i32 0, null, i32 256, i1 false, null, null, i32 0, metadata !89, i32 192} ; [ DW_TAG_subprogram ]
!300 = metadata !{i32 786453, i32 0, metadata !"", i32 0, i32 0, i64 0, i64 0, i64 0, i32 0, null, metadata !301, i32 0, i32 0} ; [ DW_TAG_subroutine_type ]
!301 = metadata !{metadata !287, metadata !283, metadata !287}
!302 = metadata !{i32 786478, i32 0, metadata !115, metadata !"name", metadata !"name", metadata !"_ZNKSt6locale4nameEv", metadata !117, i32 216, metadata !303, i1 false, i1 false, i32 0, i32 0, null, i32 256, i1 false, null, null, i32 0, metadata !89, i32 216} ; [ DW_TAG_subprogram ]
!303 = metadata !{i32 786453, i32 0, metadata !"", i32 0, i32 0, i64 0, i64 0, i64 0, i32 0, null, metadata !304, i32 0, i32 0} ; [ DW_TAG_subroutine_type ]
!304 = metadata !{metadata !305, metadata !796}
!305 = metadata !{i32 786454, metadata !306, metadata !"string", metadata !117, i32 64, i64 0, i64 0, i64 0, i32 0, metadata !308} ; [ DW_TAG_typedef ]
!306 = metadata !{i32 786489, null, metadata !"std", metadata !307, i32 42} ; [ DW_TAG_namespace ]
!307 = metadata !{i32 786473, metadata !"/opt/Xilinx/SDSoC/2014.4/Vivado_HLS/2014.4/lnx64/tools/gcc/lib/gcc/x86_64-unknown-linux-gnu/4.6.3/../../../../include/c++/4.6.3/bits/stringfwd.h", metadata !"/home/trungnguyen/SDSoC/thesis/SDRelease/_sds/vhls", null} ; [ DW_TAG_file_type ]
!308 = metadata !{i32 786434, metadata !306, metadata !"basic_string<char>", metadata !309, i32 1133, i64 64, i64 64, i32 0, i32 0, null, metadata !310, i32 0, null, metadata !740} ; [ DW_TAG_class_type ]
!309 = metadata !{i32 786473, metadata !"/opt/Xilinx/SDSoC/2014.4/Vivado_HLS/2014.4/lnx64/tools/gcc/lib/gcc/x86_64-unknown-linux-gnu/4.6.3/../../../../include/c++/4.6.3/bits/basic_string.tcc", metadata !"/home/trungnguyen/SDSoC/thesis/SDRelease/_sds/vhls", null} ; [ DW_TAG_file_type ]
!310 = metadata !{metadata !311, metadata !384, metadata !389, metadata !393, metadata !442, metadata !448, metadata !449, metadata !452, metadata !455, metadata !458, metadata !461, metadata !464, metadata !467, metadata !468, metadata !471, metadata !474, metadata !479, metadata !482, metadata !485, metadata !488, metadata !491, metadata !492, metadata !493, metadata !494, metadata !497, metadata !501, metadata !504, metadata !507, metadata !510, metadata !513, metadata !516, metadata !517, metadata !521, metadata !524, metadata !527, metadata !530, metadata !533, metadata !534, metadata !535, metadata !540, metadata !545, metadata !546, metadata !547, metadata !550, metadata !551, metadata !552, metadata !555, metadata !558, metadata !559, metadata !560, metadata !561, metadata !564, metadata !569, metadata !574, metadata !575, metadata !576, metadata !577, metadata !578, metadata !579, metadata !580, metadata !583, metadata !586, metadata !587, metadata !590, metadata !593, metadata !594, metadata !595, metadata !596, metadata !597, metadata !598, metadata !601, metadata !604, metadata !607, metadata !610, metadata !613, metadata !616, metadata !619, metadata !622, metadata !625, metadata !628, metadata !631, metadata !634, metadata !637, metadata !640, metadata !643, metadata !646, metadata !649, metadata !652, metadata !655, metadata !658, metadata !661, metadata !664, metadata !667, metadata !668, metadata !669, metadata !672, metadata !673, metadata !676, metadata !679, metadata !682, metadata !683, metadata !687, metadata !690, metadata !693, metadata !696, metadata !699, metadata !700, metadata !701, metadata !702, metadata !703, metadata !704, metadata !705, metadata !706, metadata !707, metadata !708, metadata !709, metadata !710, metadata !711, metadata !712, metadata !713, metadata !714, metadata !715, metadata !716, metadata !717, metadata !718, metadata !719, metadata !722, metadata !725, metadata !728, metadata !731, metadata !734, metadata !737}
!311 = metadata !{i32 786445, metadata !308, metadata !"_M_dataplus", metadata !312, i32 283, i64 64, i64 64, i64 0, i32 1, metadata !313} ; [ DW_TAG_member ]
!312 = metadata !{i32 786473, metadata !"/opt/Xilinx/SDSoC/2014.4/Vivado_HLS/2014.4/lnx64/tools/gcc/lib/gcc/x86_64-unknown-linux-gnu/4.6.3/../../../../include/c++/4.6.3/bits/basic_string.h", metadata !"/home/trungnguyen/SDSoC/thesis/SDRelease/_sds/vhls", null} ; [ DW_TAG_file_type ]
!313 = metadata !{i32 786434, metadata !308, metadata !"_Alloc_hider", metadata !312, i32 266, i64 64, i64 64, i32 0, i32 0, null, metadata !314, i32 0, null, null} ; [ DW_TAG_class_type ]
!314 = metadata !{metadata !315, metadata !379, metadata !380}
!315 = metadata !{i32 786460, metadata !313, null, metadata !312, i32 0, i64 0, i64 0, i64 0, i32 0, metadata !316} ; [ DW_TAG_inheritance ]
!316 = metadata !{i32 786434, metadata !306, metadata !"allocator<char>", metadata !317, i32 143, i64 8, i64 8, i32 0, i32 0, null, metadata !318, i32 0, null, metadata !377} ; [ DW_TAG_class_type ]
!317 = metadata !{i32 786473, metadata !"/opt/Xilinx/SDSoC/2014.4/Vivado_HLS/2014.4/lnx64/tools/gcc/lib/gcc/x86_64-unknown-linux-gnu/4.6.3/../../../../include/c++/4.6.3/bits/allocator.h", metadata !"/home/trungnguyen/SDSoC/thesis/SDRelease/_sds/vhls", null} ; [ DW_TAG_file_type ]
!318 = metadata !{metadata !319, metadata !367, metadata !371, metadata !376}
!319 = metadata !{i32 786460, metadata !316, null, metadata !317, i32 0, i64 0, i64 0, i64 0, i32 0, metadata !320} ; [ DW_TAG_inheritance ]
!320 = metadata !{i32 786434, metadata !321, metadata !"new_allocator<char>", metadata !322, i32 54, i64 8, i64 8, i32 0, i32 0, null, metadata !323, i32 0, null, metadata !365} ; [ DW_TAG_class_type ]
!321 = metadata !{i32 786489, null, metadata !"__gnu_cxx", metadata !322, i32 38} ; [ DW_TAG_namespace ]
!322 = metadata !{i32 786473, metadata !"/opt/Xilinx/SDSoC/2014.4/Vivado_HLS/2014.4/lnx64/tools/gcc/lib/gcc/x86_64-unknown-linux-gnu/4.6.3/../../../../include/c++/4.6.3/ext/new_allocator.h", metadata !"/home/trungnguyen/SDSoC/thesis/SDRelease/_sds/vhls", null} ; [ DW_TAG_file_type ]
!323 = metadata !{metadata !324, metadata !328, metadata !333, metadata !334, metadata !341, metadata !347, metadata !353, metadata !356, metadata !359, metadata !362}
!324 = metadata !{i32 786478, i32 0, metadata !320, metadata !"new_allocator", metadata !"new_allocator", metadata !"", metadata !322, i32 69, metadata !325, i1 false, i1 false, i32 0, i32 0, null, i32 256, i1 false, null, null, i32 0, metadata !89, i32 69} ; [ DW_TAG_subprogram ]
!325 = metadata !{i32 786453, i32 0, metadata !"", i32 0, i32 0, i64 0, i64 0, i64 0, i32 0, null, metadata !326, i32 0, i32 0} ; [ DW_TAG_subroutine_type ]
!326 = metadata !{null, metadata !327}
!327 = metadata !{i32 786447, i32 0, metadata !"", i32 0, i32 0, i64 64, i64 64, i64 0, i32 64, metadata !320} ; [ DW_TAG_pointer_type ]
!328 = metadata !{i32 786478, i32 0, metadata !320, metadata !"new_allocator", metadata !"new_allocator", metadata !"", metadata !322, i32 71, metadata !329, i1 false, i1 false, i32 0, i32 0, null, i32 256, i1 false, null, null, i32 0, metadata !89, i32 71} ; [ DW_TAG_subprogram ]
!329 = metadata !{i32 786453, i32 0, metadata !"", i32 0, i32 0, i64 0, i64 0, i64 0, i32 0, null, metadata !330, i32 0, i32 0} ; [ DW_TAG_subroutine_type ]
!330 = metadata !{null, metadata !327, metadata !331}
!331 = metadata !{i32 786448, null, null, null, i32 0, i64 0, i64 0, i64 0, i32 0, metadata !332} ; [ DW_TAG_reference_type ]
!332 = metadata !{i32 786470, null, metadata !"", null, i32 0, i64 0, i64 0, i64 0, i32 0, metadata !320} ; [ DW_TAG_const_type ]
!333 = metadata !{i32 786478, i32 0, metadata !320, metadata !"~new_allocator", metadata !"~new_allocator", metadata !"", metadata !322, i32 76, metadata !325, i1 false, i1 false, i32 0, i32 0, null, i32 256, i1 false, null, null, i32 0, metadata !89, i32 76} ; [ DW_TAG_subprogram ]
!334 = metadata !{i32 786478, i32 0, metadata !320, metadata !"address", metadata !"address", metadata !"_ZNK9__gnu_cxx13new_allocatorIcE7addressERc", metadata !322, i32 79, metadata !335, i1 false, i1 false, i32 0, i32 0, null, i32 256, i1 false, null, null, i32 0, metadata !89, i32 79} ; [ DW_TAG_subprogram ]
!335 = metadata !{i32 786453, i32 0, metadata !"", i32 0, i32 0, i64 0, i64 0, i64 0, i32 0, null, metadata !336, i32 0, i32 0} ; [ DW_TAG_subroutine_type ]
!336 = metadata !{metadata !337, metadata !338, metadata !339}
!337 = metadata !{i32 786454, metadata !320, metadata !"pointer", metadata !322, i32 59, i64 0, i64 0, i64 0, i32 0, metadata !213} ; [ DW_TAG_typedef ]
!338 = metadata !{i32 786447, i32 0, metadata !"", i32 0, i32 0, i64 64, i64 64, i64 0, i32 64, metadata !332} ; [ DW_TAG_pointer_type ]
!339 = metadata !{i32 786454, metadata !320, metadata !"reference", metadata !322, i32 61, i64 0, i64 0, i64 0, i32 0, metadata !340} ; [ DW_TAG_typedef ]
!340 = metadata !{i32 786448, null, null, null, i32 0, i64 0, i64 0, i64 0, i32 0, metadata !174} ; [ DW_TAG_reference_type ]
!341 = metadata !{i32 786478, i32 0, metadata !320, metadata !"address", metadata !"address", metadata !"_ZNK9__gnu_cxx13new_allocatorIcE7addressERKc", metadata !322, i32 82, metadata !342, i1 false, i1 false, i32 0, i32 0, null, i32 256, i1 false, null, null, i32 0, metadata !89, i32 82} ; [ DW_TAG_subprogram ]
!342 = metadata !{i32 786453, i32 0, metadata !"", i32 0, i32 0, i64 0, i64 0, i64 0, i32 0, null, metadata !343, i32 0, i32 0} ; [ DW_TAG_subroutine_type ]
!343 = metadata !{metadata !344, metadata !338, metadata !345}
!344 = metadata !{i32 786454, metadata !320, metadata !"const_pointer", metadata !322, i32 60, i64 0, i64 0, i64 0, i32 0, metadata !172} ; [ DW_TAG_typedef ]
!345 = metadata !{i32 786454, metadata !320, metadata !"const_reference", metadata !322, i32 62, i64 0, i64 0, i64 0, i32 0, metadata !346} ; [ DW_TAG_typedef ]
!346 = metadata !{i32 786448, null, null, null, i32 0, i64 0, i64 0, i64 0, i32 0, metadata !173} ; [ DW_TAG_reference_type ]
!347 = metadata !{i32 786478, i32 0, metadata !320, metadata !"allocate", metadata !"allocate", metadata !"_ZN9__gnu_cxx13new_allocatorIcE8allocateEmPKv", metadata !322, i32 87, metadata !348, i1 false, i1 false, i32 0, i32 0, null, i32 256, i1 false, null, null, i32 0, metadata !89, i32 87} ; [ DW_TAG_subprogram ]
!348 = metadata !{i32 786453, i32 0, metadata !"", i32 0, i32 0, i64 0, i64 0, i64 0, i32 0, null, metadata !349, i32 0, i32 0} ; [ DW_TAG_subroutine_type ]
!349 = metadata !{metadata !337, metadata !327, metadata !350, metadata !351}
!350 = metadata !{i32 786454, null, metadata !"size_type", metadata !322, i32 57, i64 0, i64 0, i64 0, i32 0, metadata !139} ; [ DW_TAG_typedef ]
!351 = metadata !{i32 786447, null, metadata !"", null, i32 0, i64 64, i64 64, i64 0, i32 0, metadata !352} ; [ DW_TAG_pointer_type ]
!352 = metadata !{i32 786470, null, metadata !"", null, i32 0, i64 0, i64 0, i64 0, i32 0, null} ; [ DW_TAG_const_type ]
!353 = metadata !{i32 786478, i32 0, metadata !320, metadata !"deallocate", metadata !"deallocate", metadata !"_ZN9__gnu_cxx13new_allocatorIcE10deallocateEPcm", metadata !322, i32 97, metadata !354, i1 false, i1 false, i32 0, i32 0, null, i32 256, i1 false, null, null, i32 0, metadata !89, i32 97} ; [ DW_TAG_subprogram ]
!354 = metadata !{i32 786453, i32 0, metadata !"", i32 0, i32 0, i64 0, i64 0, i64 0, i32 0, null, metadata !355, i32 0, i32 0} ; [ DW_TAG_subroutine_type ]
!355 = metadata !{null, metadata !327, metadata !337, metadata !350}
!356 = metadata !{i32 786478, i32 0, metadata !320, metadata !"max_size", metadata !"max_size", metadata !"_ZNK9__gnu_cxx13new_allocatorIcE8max_sizeEv", metadata !322, i32 101, metadata !357, i1 false, i1 false, i32 0, i32 0, null, i32 256, i1 false, null, null, i32 0, metadata !89, i32 101} ; [ DW_TAG_subprogram ]
!357 = metadata !{i32 786453, i32 0, metadata !"", i32 0, i32 0, i64 0, i64 0, i64 0, i32 0, null, metadata !358, i32 0, i32 0} ; [ DW_TAG_subroutine_type ]
!358 = metadata !{metadata !350, metadata !338}
!359 = metadata !{i32 786478, i32 0, metadata !320, metadata !"construct", metadata !"construct", metadata !"_ZN9__gnu_cxx13new_allocatorIcE9constructEPcRKc", metadata !322, i32 107, metadata !360, i1 false, i1 false, i32 0, i32 0, null, i32 256, i1 false, null, null, i32 0, metadata !89, i32 107} ; [ DW_TAG_subprogram ]
!360 = metadata !{i32 786453, i32 0, metadata !"", i32 0, i32 0, i64 0, i64 0, i64 0, i32 0, null, metadata !361, i32 0, i32 0} ; [ DW_TAG_subroutine_type ]
!361 = metadata !{null, metadata !327, metadata !337, metadata !346}
!362 = metadata !{i32 786478, i32 0, metadata !320, metadata !"destroy", metadata !"destroy", metadata !"_ZN9__gnu_cxx13new_allocatorIcE7destroyEPc", metadata !322, i32 118, metadata !363, i1 false, i1 false, i32 0, i32 0, null, i32 256, i1 false, null, null, i32 0, metadata !89, i32 118} ; [ DW_TAG_subprogram ]
!363 = metadata !{i32 786453, i32 0, metadata !"", i32 0, i32 0, i64 0, i64 0, i64 0, i32 0, null, metadata !364, i32 0, i32 0} ; [ DW_TAG_subroutine_type ]
!364 = metadata !{null, metadata !327, metadata !337}
!365 = metadata !{metadata !366}
!366 = metadata !{i32 786479, null, metadata !"_Tp", metadata !174, null, i32 0, i32 0} ; [ DW_TAG_template_type_parameter ]
!367 = metadata !{i32 786478, i32 0, metadata !316, metadata !"allocator", metadata !"allocator", metadata !"", metadata !317, i32 107, metadata !368, i1 false, i1 false, i32 0, i32 0, null, i32 256, i1 false, null, null, i32 0, metadata !89, i32 107} ; [ DW_TAG_subprogram ]
!368 = metadata !{i32 786453, i32 0, metadata !"", i32 0, i32 0, i64 0, i64 0, i64 0, i32 0, null, metadata !369, i32 0, i32 0} ; [ DW_TAG_subroutine_type ]
!369 = metadata !{null, metadata !370}
!370 = metadata !{i32 786447, i32 0, metadata !"", i32 0, i32 0, i64 64, i64 64, i64 0, i32 64, metadata !316} ; [ DW_TAG_pointer_type ]
!371 = metadata !{i32 786478, i32 0, metadata !316, metadata !"allocator", metadata !"allocator", metadata !"", metadata !317, i32 109, metadata !372, i1 false, i1 false, i32 0, i32 0, null, i32 256, i1 false, null, null, i32 0, metadata !89, i32 109} ; [ DW_TAG_subprogram ]
!372 = metadata !{i32 786453, i32 0, metadata !"", i32 0, i32 0, i64 0, i64 0, i64 0, i32 0, null, metadata !373, i32 0, i32 0} ; [ DW_TAG_subroutine_type ]
!373 = metadata !{null, metadata !370, metadata !374}
!374 = metadata !{i32 786448, null, null, null, i32 0, i64 0, i64 0, i64 0, i32 0, metadata !375} ; [ DW_TAG_reference_type ]
!375 = metadata !{i32 786470, null, metadata !"", null, i32 0, i64 0, i64 0, i64 0, i32 0, metadata !316} ; [ DW_TAG_const_type ]
!376 = metadata !{i32 786478, i32 0, metadata !316, metadata !"~allocator", metadata !"~allocator", metadata !"", metadata !317, i32 115, metadata !368, i1 false, i1 false, i32 0, i32 0, null, i32 256, i1 false, null, null, i32 0, metadata !89, i32 115} ; [ DW_TAG_subprogram ]
!377 = metadata !{metadata !378}
!378 = metadata !{i32 786479, null, metadata !"_Alloc", metadata !174, null, i32 0, i32 0} ; [ DW_TAG_template_type_parameter ]
!379 = metadata !{i32 786445, metadata !313, metadata !"_M_p", metadata !312, i32 271, i64 64, i64 64, i64 0, i32 0, metadata !213} ; [ DW_TAG_member ]
!380 = metadata !{i32 786478, i32 0, metadata !313, metadata !"_Alloc_hider", metadata !"_Alloc_hider", metadata !"", metadata !312, i32 268, metadata !381, i1 false, i1 false, i32 0, i32 0, null, i32 256, i1 false, null, null, i32 0, metadata !89, i32 268} ; [ DW_TAG_subprogram ]
!381 = metadata !{i32 786453, i32 0, metadata !"", i32 0, i32 0, i64 0, i64 0, i64 0, i32 0, null, metadata !382, i32 0, i32 0} ; [ DW_TAG_subroutine_type ]
!382 = metadata !{null, metadata !383, metadata !213, metadata !374}
!383 = metadata !{i32 786447, i32 0, metadata !"", i32 0, i32 0, i64 64, i64 64, i64 0, i32 64, metadata !313} ; [ DW_TAG_pointer_type ]
!384 = metadata !{i32 786478, i32 0, metadata !308, metadata !"_M_data", metadata !"_M_data", metadata !"_ZNKSs7_M_dataEv", metadata !312, i32 286, metadata !385, i1 false, i1 false, i32 0, i32 0, null, i32 257, i1 false, null, null, i32 0, metadata !89, i32 286} ; [ DW_TAG_subprogram ]
!385 = metadata !{i32 786453, i32 0, metadata !"", i32 0, i32 0, i64 0, i64 0, i64 0, i32 0, null, metadata !386, i32 0, i32 0} ; [ DW_TAG_subroutine_type ]
!386 = metadata !{metadata !213, metadata !387}
!387 = metadata !{i32 786447, i32 0, metadata !"", i32 0, i32 0, i64 64, i64 64, i64 0, i32 64, metadata !388} ; [ DW_TAG_pointer_type ]
!388 = metadata !{i32 786470, null, metadata !"", null, i32 0, i64 0, i64 0, i64 0, i32 0, metadata !308} ; [ DW_TAG_const_type ]
!389 = metadata !{i32 786478, i32 0, metadata !308, metadata !"_M_data", metadata !"_M_data", metadata !"_ZNSs7_M_dataEPc", metadata !312, i32 290, metadata !390, i1 false, i1 false, i32 0, i32 0, null, i32 257, i1 false, null, null, i32 0, metadata !89, i32 290} ; [ DW_TAG_subprogram ]
!390 = metadata !{i32 786453, i32 0, metadata !"", i32 0, i32 0, i64 0, i64 0, i64 0, i32 0, null, metadata !391, i32 0, i32 0} ; [ DW_TAG_subroutine_type ]
!391 = metadata !{metadata !213, metadata !392, metadata !213}
!392 = metadata !{i32 786447, i32 0, metadata !"", i32 0, i32 0, i64 64, i64 64, i64 0, i32 64, metadata !308} ; [ DW_TAG_pointer_type ]
!393 = metadata !{i32 786478, i32 0, metadata !308, metadata !"_M_rep", metadata !"_M_rep", metadata !"_ZNKSs6_M_repEv", metadata !312, i32 294, metadata !394, i1 false, i1 false, i32 0, i32 0, null, i32 257, i1 false, null, null, i32 0, metadata !89, i32 294} ; [ DW_TAG_subprogram ]
!394 = metadata !{i32 786453, i32 0, metadata !"", i32 0, i32 0, i64 0, i64 0, i64 0, i32 0, null, metadata !395, i32 0, i32 0} ; [ DW_TAG_subroutine_type ]
!395 = metadata !{metadata !396, metadata !387}
!396 = metadata !{i32 786447, null, metadata !"", null, i32 0, i64 64, i64 64, i64 0, i32 0, metadata !397} ; [ DW_TAG_pointer_type ]
!397 = metadata !{i32 786434, metadata !308, metadata !"_Rep", metadata !312, i32 149, i64 192, i64 64, i32 0, i32 0, null, metadata !398, i32 0, null, null} ; [ DW_TAG_class_type ]
!398 = metadata !{metadata !399, metadata !407, metadata !411, metadata !416, metadata !417, metadata !421, metadata !422, metadata !425, metadata !428, metadata !431, metadata !434, metadata !437, metadata !438, metadata !439}
!399 = metadata !{i32 786460, metadata !397, null, metadata !312, i32 0, i64 0, i64 0, i64 0, i32 0, metadata !400} ; [ DW_TAG_inheritance ]
!400 = metadata !{i32 786434, metadata !308, metadata !"_Rep_base", metadata !312, i32 142, i64 192, i64 64, i32 0, i32 0, null, metadata !401, i32 0, null, null} ; [ DW_TAG_class_type ]
!401 = metadata !{metadata !402, metadata !405, metadata !406}
!402 = metadata !{i32 786445, metadata !400, metadata !"_M_length", metadata !312, i32 144, i64 64, i64 64, i64 0, i32 0, metadata !403} ; [ DW_TAG_member ]
!403 = metadata !{i32 786454, metadata !308, metadata !"size_type", metadata !312, i32 115, i64 0, i64 0, i64 0, i32 0, metadata !404} ; [ DW_TAG_typedef ]
!404 = metadata !{i32 786454, metadata !316, metadata !"size_type", metadata !312, i32 95, i64 0, i64 0, i64 0, i32 0, metadata !139} ; [ DW_TAG_typedef ]
!405 = metadata !{i32 786445, metadata !400, metadata !"_M_capacity", metadata !312, i32 145, i64 64, i64 64, i64 64, i32 0, metadata !403} ; [ DW_TAG_member ]
!406 = metadata !{i32 786445, metadata !400, metadata !"_M_refcount", metadata !312, i32 146, i64 32, i64 32, i64 128, i32 0, metadata !84} ; [ DW_TAG_member ]
!407 = metadata !{i32 786478, i32 0, metadata !397, metadata !"_S_empty_rep", metadata !"_S_empty_rep", metadata !"_ZNSs4_Rep12_S_empty_repEv", metadata !312, i32 175, metadata !408, i1 false, i1 false, i32 0, i32 0, null, i32 256, i1 false, null, null, i32 0, metadata !89, i32 175} ; [ DW_TAG_subprogram ]
!408 = metadata !{i32 786453, i32 0, metadata !"", i32 0, i32 0, i64 0, i64 0, i64 0, i32 0, null, metadata !409, i32 0, i32 0} ; [ DW_TAG_subroutine_type ]
!409 = metadata !{metadata !410}
!410 = metadata !{i32 786448, null, null, null, i32 0, i64 0, i64 0, i64 0, i32 0, metadata !397} ; [ DW_TAG_reference_type ]
!411 = metadata !{i32 786478, i32 0, metadata !397, metadata !"_M_is_leaked", metadata !"_M_is_leaked", metadata !"_ZNKSs4_Rep12_M_is_leakedEv", metadata !312, i32 185, metadata !412, i1 false, i1 false, i32 0, i32 0, null, i32 256, i1 false, null, null, i32 0, metadata !89, i32 185} ; [ DW_TAG_subprogram ]
!412 = metadata !{i32 786453, i32 0, metadata !"", i32 0, i32 0, i64 0, i64 0, i64 0, i32 0, null, metadata !413, i32 0, i32 0} ; [ DW_TAG_subroutine_type ]
!413 = metadata !{metadata !238, metadata !414}
!414 = metadata !{i32 786447, i32 0, metadata !"", i32 0, i32 0, i64 64, i64 64, i64 0, i32 64, metadata !415} ; [ DW_TAG_pointer_type ]
!415 = metadata !{i32 786470, null, metadata !"", null, i32 0, i64 0, i64 0, i64 0, i32 0, metadata !397} ; [ DW_TAG_const_type ]
!416 = metadata !{i32 786478, i32 0, metadata !397, metadata !"_M_is_shared", metadata !"_M_is_shared", metadata !"_ZNKSs4_Rep12_M_is_sharedEv", metadata !312, i32 189, metadata !412, i1 false, i1 false, i32 0, i32 0, null, i32 256, i1 false, null, null, i32 0, metadata !89, i32 189} ; [ DW_TAG_subprogram ]
!417 = metadata !{i32 786478, i32 0, metadata !397, metadata !"_M_set_leaked", metadata !"_M_set_leaked", metadata !"_ZNSs4_Rep13_M_set_leakedEv", metadata !312, i32 193, metadata !418, i1 false, i1 false, i32 0, i32 0, null, i32 256, i1 false, null, null, i32 0, metadata !89, i32 193} ; [ DW_TAG_subprogram ]
!418 = metadata !{i32 786453, i32 0, metadata !"", i32 0, i32 0, i64 0, i64 0, i64 0, i32 0, null, metadata !419, i32 0, i32 0} ; [ DW_TAG_subroutine_type ]
!419 = metadata !{null, metadata !420}
!420 = metadata !{i32 786447, i32 0, metadata !"", i32 0, i32 0, i64 64, i64 64, i64 0, i32 64, metadata !397} ; [ DW_TAG_pointer_type ]
!421 = metadata !{i32 786478, i32 0, metadata !397, metadata !"_M_set_sharable", metadata !"_M_set_sharable", metadata !"_ZNSs4_Rep15_M_set_sharableEv", metadata !312, i32 197, metadata !418, i1 false, i1 false, i32 0, i32 0, null, i32 256, i1 false, null, null, i32 0, metadata !89, i32 197} ; [ DW_TAG_subprogram ]
!422 = metadata !{i32 786478, i32 0, metadata !397, metadata !"_M_set_length_and_sharable", metadata !"_M_set_length_and_sharable", metadata !"_ZNSs4_Rep26_M_set_length_and_sharableEm", metadata !312, i32 201, metadata !423, i1 false, i1 false, i32 0, i32 0, null, i32 256, i1 false, null, null, i32 0, metadata !89, i32 201} ; [ DW_TAG_subprogram ]
!423 = metadata !{i32 786453, i32 0, metadata !"", i32 0, i32 0, i64 0, i64 0, i64 0, i32 0, null, metadata !424, i32 0, i32 0} ; [ DW_TAG_subroutine_type ]
!424 = metadata !{null, metadata !420, metadata !403}
!425 = metadata !{i32 786478, i32 0, metadata !397, metadata !"_M_refdata", metadata !"_M_refdata", metadata !"_ZNSs4_Rep10_M_refdataEv", metadata !312, i32 216, metadata !426, i1 false, i1 false, i32 0, i32 0, null, i32 256, i1 false, null, null, i32 0, metadata !89, i32 216} ; [ DW_TAG_subprogram ]
!426 = metadata !{i32 786453, i32 0, metadata !"", i32 0, i32 0, i64 0, i64 0, i64 0, i32 0, null, metadata !427, i32 0, i32 0} ; [ DW_TAG_subroutine_type ]
!427 = metadata !{metadata !213, metadata !420}
!428 = metadata !{i32 786478, i32 0, metadata !397, metadata !"_M_grab", metadata !"_M_grab", metadata !"_ZNSs4_Rep7_M_grabERKSaIcES2_", metadata !312, i32 220, metadata !429, i1 false, i1 false, i32 0, i32 0, null, i32 256, i1 false, null, null, i32 0, metadata !89, i32 220} ; [ DW_TAG_subprogram ]
!429 = metadata !{i32 786453, i32 0, metadata !"", i32 0, i32 0, i64 0, i64 0, i64 0, i32 0, null, metadata !430, i32 0, i32 0} ; [ DW_TAG_subroutine_type ]
!430 = metadata !{metadata !213, metadata !420, metadata !374, metadata !374}
!431 = metadata !{i32 786478, i32 0, metadata !397, metadata !"_S_create", metadata !"_S_create", metadata !"_ZNSs4_Rep9_S_createEmmRKSaIcE", metadata !312, i32 228, metadata !432, i1 false, i1 false, i32 0, i32 0, null, i32 256, i1 false, null, null, i32 0, metadata !89, i32 228} ; [ DW_TAG_subprogram ]
!432 = metadata !{i32 786453, i32 0, metadata !"", i32 0, i32 0, i64 0, i64 0, i64 0, i32 0, null, metadata !433, i32 0, i32 0} ; [ DW_TAG_subroutine_type ]
!433 = metadata !{metadata !396, metadata !403, metadata !403, metadata !374}
!434 = metadata !{i32 786478, i32 0, metadata !397, metadata !"_M_dispose", metadata !"_M_dispose", metadata !"_ZNSs4_Rep10_M_disposeERKSaIcE", metadata !312, i32 231, metadata !435, i1 false, i1 false, i32 0, i32 0, null, i32 256, i1 false, null, null, i32 0, metadata !89, i32 231} ; [ DW_TAG_subprogram ]
!435 = metadata !{i32 786453, i32 0, metadata !"", i32 0, i32 0, i64 0, i64 0, i64 0, i32 0, null, metadata !436, i32 0, i32 0} ; [ DW_TAG_subroutine_type ]
!436 = metadata !{null, metadata !420, metadata !374}
!437 = metadata !{i32 786478, i32 0, metadata !397, metadata !"_M_destroy", metadata !"_M_destroy", metadata !"_ZNSs4_Rep10_M_destroyERKSaIcE", metadata !312, i32 249, metadata !435, i1 false, i1 false, i32 0, i32 0, null, i32 256, i1 false, null, null, i32 0, metadata !89, i32 249} ; [ DW_TAG_subprogram ]
!438 = metadata !{i32 786478, i32 0, metadata !397, metadata !"_M_refcopy", metadata !"_M_refcopy", metadata !"_ZNSs4_Rep10_M_refcopyEv", metadata !312, i32 252, metadata !426, i1 false, i1 false, i32 0, i32 0, null, i32 256, i1 false, null, null, i32 0, metadata !89, i32 252} ; [ DW_TAG_subprogram ]
!439 = metadata !{i32 786478, i32 0, metadata !397, metadata !"_M_clone", metadata !"_M_clone", metadata !"_ZNSs4_Rep8_M_cloneERKSaIcEm", metadata !312, i32 262, metadata !440, i1 false, i1 false, i32 0, i32 0, null, i32 256, i1 false, null, null, i32 0, metadata !89, i32 262} ; [ DW_TAG_subprogram ]
!440 = metadata !{i32 786453, i32 0, metadata !"", i32 0, i32 0, i64 0, i64 0, i64 0, i32 0, null, metadata !441, i32 0, i32 0} ; [ DW_TAG_subroutine_type ]
!441 = metadata !{metadata !213, metadata !420, metadata !374, metadata !403}
!442 = metadata !{i32 786478, i32 0, metadata !308, metadata !"_M_ibegin", metadata !"_M_ibegin", metadata !"_ZNKSs9_M_ibeginEv", metadata !312, i32 300, metadata !443, i1 false, i1 false, i32 0, i32 0, null, i32 257, i1 false, null, null, i32 0, metadata !89, i32 300} ; [ DW_TAG_subprogram ]
!443 = metadata !{i32 786453, i32 0, metadata !"", i32 0, i32 0, i64 0, i64 0, i64 0, i32 0, null, metadata !444, i32 0, i32 0} ; [ DW_TAG_subroutine_type ]
!444 = metadata !{metadata !445, metadata !387}
!445 = metadata !{i32 786454, metadata !308, metadata !"iterator", metadata !309, i32 121, i64 0, i64 0, i64 0, i32 0, metadata !446} ; [ DW_TAG_typedef ]
!446 = metadata !{i32 786434, null, metadata !"__normal_iterator<char *, std::basic_string<char> >", metadata !447, i32 702, i32 0, i32 0, i32 0, i32 4, null, null, i32 0} ; [ DW_TAG_class_type ]
!447 = metadata !{i32 786473, metadata !"/opt/Xilinx/SDSoC/2014.4/Vivado_HLS/2014.4/lnx64/tools/gcc/lib/gcc/x86_64-unknown-linux-gnu/4.6.3/../../../../include/c++/4.6.3/bits/stl_iterator.h", metadata !"/home/trungnguyen/SDSoC/thesis/SDRelease/_sds/vhls", null} ; [ DW_TAG_file_type ]
!448 = metadata !{i32 786478, i32 0, metadata !308, metadata !"_M_iend", metadata !"_M_iend", metadata !"_ZNKSs7_M_iendEv", metadata !312, i32 304, metadata !443, i1 false, i1 false, i32 0, i32 0, null, i32 257, i1 false, null, null, i32 0, metadata !89, i32 304} ; [ DW_TAG_subprogram ]
!449 = metadata !{i32 786478, i32 0, metadata !308, metadata !"_M_leak", metadata !"_M_leak", metadata !"_ZNSs7_M_leakEv", metadata !312, i32 308, metadata !450, i1 false, i1 false, i32 0, i32 0, null, i32 257, i1 false, null, null, i32 0, metadata !89, i32 308} ; [ DW_TAG_subprogram ]
!450 = metadata !{i32 786453, i32 0, metadata !"", i32 0, i32 0, i64 0, i64 0, i64 0, i32 0, null, metadata !451, i32 0, i32 0} ; [ DW_TAG_subroutine_type ]
!451 = metadata !{null, metadata !392}
!452 = metadata !{i32 786478, i32 0, metadata !308, metadata !"_M_check", metadata !"_M_check", metadata !"_ZNKSs8_M_checkEmPKc", metadata !312, i32 315, metadata !453, i1 false, i1 false, i32 0, i32 0, null, i32 257, i1 false, null, null, i32 0, metadata !89, i32 315} ; [ DW_TAG_subprogram ]
!453 = metadata !{i32 786453, i32 0, metadata !"", i32 0, i32 0, i64 0, i64 0, i64 0, i32 0, null, metadata !454, i32 0, i32 0} ; [ DW_TAG_subroutine_type ]
!454 = metadata !{metadata !403, metadata !387, metadata !403, metadata !172}
!455 = metadata !{i32 786478, i32 0, metadata !308, metadata !"_M_check_length", metadata !"_M_check_length", metadata !"_ZNKSs15_M_check_lengthEmmPKc", metadata !312, i32 323, metadata !456, i1 false, i1 false, i32 0, i32 0, null, i32 257, i1 false, null, null, i32 0, metadata !89, i32 323} ; [ DW_TAG_subprogram ]
!456 = metadata !{i32 786453, i32 0, metadata !"", i32 0, i32 0, i64 0, i64 0, i64 0, i32 0, null, metadata !457, i32 0, i32 0} ; [ DW_TAG_subroutine_type ]
!457 = metadata !{null, metadata !387, metadata !403, metadata !403, metadata !172}
!458 = metadata !{i32 786478, i32 0, metadata !308, metadata !"_M_limit", metadata !"_M_limit", metadata !"_ZNKSs8_M_limitEmm", metadata !312, i32 331, metadata !459, i1 false, i1 false, i32 0, i32 0, null, i32 257, i1 false, null, null, i32 0, metadata !89, i32 331} ; [ DW_TAG_subprogram ]
!459 = metadata !{i32 786453, i32 0, metadata !"", i32 0, i32 0, i64 0, i64 0, i64 0, i32 0, null, metadata !460, i32 0, i32 0} ; [ DW_TAG_subroutine_type ]
!460 = metadata !{metadata !403, metadata !387, metadata !403, metadata !403}
!461 = metadata !{i32 786478, i32 0, metadata !308, metadata !"_M_disjunct", metadata !"_M_disjunct", metadata !"_ZNKSs11_M_disjunctEPKc", metadata !312, i32 339, metadata !462, i1 false, i1 false, i32 0, i32 0, null, i32 257, i1 false, null, null, i32 0, metadata !89, i32 339} ; [ DW_TAG_subprogram ]
!462 = metadata !{i32 786453, i32 0, metadata !"", i32 0, i32 0, i64 0, i64 0, i64 0, i32 0, null, metadata !463, i32 0, i32 0} ; [ DW_TAG_subroutine_type ]
!463 = metadata !{metadata !238, metadata !387, metadata !172}
!464 = metadata !{i32 786478, i32 0, metadata !308, metadata !"_M_copy", metadata !"_M_copy", metadata !"_ZNSs7_M_copyEPcPKcm", metadata !312, i32 348, metadata !465, i1 false, i1 false, i32 0, i32 0, null, i32 257, i1 false, null, null, i32 0, metadata !89, i32 348} ; [ DW_TAG_subprogram ]
!465 = metadata !{i32 786453, i32 0, metadata !"", i32 0, i32 0, i64 0, i64 0, i64 0, i32 0, null, metadata !466, i32 0, i32 0} ; [ DW_TAG_subroutine_type ]
!466 = metadata !{null, metadata !213, metadata !172, metadata !403}
!467 = metadata !{i32 786478, i32 0, metadata !308, metadata !"_M_move", metadata !"_M_move", metadata !"_ZNSs7_M_moveEPcPKcm", metadata !312, i32 357, metadata !465, i1 false, i1 false, i32 0, i32 0, null, i32 257, i1 false, null, null, i32 0, metadata !89, i32 357} ; [ DW_TAG_subprogram ]
!468 = metadata !{i32 786478, i32 0, metadata !308, metadata !"_M_assign", metadata !"_M_assign", metadata !"_ZNSs9_M_assignEPcmc", metadata !312, i32 366, metadata !469, i1 false, i1 false, i32 0, i32 0, null, i32 257, i1 false, null, null, i32 0, metadata !89, i32 366} ; [ DW_TAG_subprogram ]
!469 = metadata !{i32 786453, i32 0, metadata !"", i32 0, i32 0, i64 0, i64 0, i64 0, i32 0, null, metadata !470, i32 0, i32 0} ; [ DW_TAG_subroutine_type ]
!470 = metadata !{null, metadata !213, metadata !403, metadata !174}
!471 = metadata !{i32 786478, i32 0, metadata !308, metadata !"_S_copy_chars", metadata !"_S_copy_chars", metadata !"_ZNSs13_S_copy_charsEPcN9__gnu_cxx17__normal_iteratorIS_SsEES2_", metadata !312, i32 385, metadata !472, i1 false, i1 false, i32 0, i32 0, null, i32 257, i1 false, null, null, i32 0, metadata !89, i32 385} ; [ DW_TAG_subprogram ]
!472 = metadata !{i32 786453, i32 0, metadata !"", i32 0, i32 0, i64 0, i64 0, i64 0, i32 0, null, metadata !473, i32 0, i32 0} ; [ DW_TAG_subroutine_type ]
!473 = metadata !{null, metadata !213, metadata !445, metadata !445}
!474 = metadata !{i32 786478, i32 0, metadata !308, metadata !"_S_copy_chars", metadata !"_S_copy_chars", metadata !"_ZNSs13_S_copy_charsEPcN9__gnu_cxx17__normal_iteratorIPKcSsEES4_", metadata !312, i32 389, metadata !475, i1 false, i1 false, i32 0, i32 0, null, i32 257, i1 false, null, null, i32 0, metadata !89, i32 389} ; [ DW_TAG_subprogram ]
!475 = metadata !{i32 786453, i32 0, metadata !"", i32 0, i32 0, i64 0, i64 0, i64 0, i32 0, null, metadata !476, i32 0, i32 0} ; [ DW_TAG_subroutine_type ]
!476 = metadata !{null, metadata !213, metadata !477, metadata !477}
!477 = metadata !{i32 786454, metadata !308, metadata !"const_iterator", metadata !309, i32 123, i64 0, i64 0, i64 0, i32 0, metadata !478} ; [ DW_TAG_typedef ]
!478 = metadata !{i32 786434, null, metadata !"__normal_iterator<const char *, std::basic_string<char> >", metadata !447, i32 702, i32 0, i32 0, i32 0, i32 4, null, null, i32 0} ; [ DW_TAG_class_type ]
!479 = metadata !{i32 786478, i32 0, metadata !308, metadata !"_S_copy_chars", metadata !"_S_copy_chars", metadata !"_ZNSs13_S_copy_charsEPcS_S_", metadata !312, i32 393, metadata !480, i1 false, i1 false, i32 0, i32 0, null, i32 257, i1 false, null, null, i32 0, metadata !89, i32 393} ; [ DW_TAG_subprogram ]
!480 = metadata !{i32 786453, i32 0, metadata !"", i32 0, i32 0, i64 0, i64 0, i64 0, i32 0, null, metadata !481, i32 0, i32 0} ; [ DW_TAG_subroutine_type ]
!481 = metadata !{null, metadata !213, metadata !213, metadata !213}
!482 = metadata !{i32 786478, i32 0, metadata !308, metadata !"_S_copy_chars", metadata !"_S_copy_chars", metadata !"_ZNSs13_S_copy_charsEPcPKcS1_", metadata !312, i32 397, metadata !483, i1 false, i1 false, i32 0, i32 0, null, i32 257, i1 false, null, null, i32 0, metadata !89, i32 397} ; [ DW_TAG_subprogram ]
!483 = metadata !{i32 786453, i32 0, metadata !"", i32 0, i32 0, i64 0, i64 0, i64 0, i32 0, null, metadata !484, i32 0, i32 0} ; [ DW_TAG_subroutine_type ]
!484 = metadata !{null, metadata !213, metadata !172, metadata !172}
!485 = metadata !{i32 786478, i32 0, metadata !308, metadata !"_S_compare", metadata !"_S_compare", metadata !"_ZNSs10_S_compareEmm", metadata !312, i32 401, metadata !486, i1 false, i1 false, i32 0, i32 0, null, i32 257, i1 false, null, null, i32 0, metadata !89, i32 401} ; [ DW_TAG_subprogram ]
!486 = metadata !{i32 786453, i32 0, metadata !"", i32 0, i32 0, i64 0, i64 0, i64 0, i32 0, null, metadata !487, i32 0, i32 0} ; [ DW_TAG_subroutine_type ]
!487 = metadata !{metadata !56, metadata !403, metadata !403}
!488 = metadata !{i32 786478, i32 0, metadata !308, metadata !"_M_mutate", metadata !"_M_mutate", metadata !"_ZNSs9_M_mutateEmmm", metadata !312, i32 414, metadata !489, i1 false, i1 false, i32 0, i32 0, null, i32 257, i1 false, null, null, i32 0, metadata !89, i32 414} ; [ DW_TAG_subprogram ]
!489 = metadata !{i32 786453, i32 0, metadata !"", i32 0, i32 0, i64 0, i64 0, i64 0, i32 0, null, metadata !490, i32 0, i32 0} ; [ DW_TAG_subroutine_type ]
!490 = metadata !{null, metadata !392, metadata !403, metadata !403, metadata !403}
!491 = metadata !{i32 786478, i32 0, metadata !308, metadata !"_M_leak_hard", metadata !"_M_leak_hard", metadata !"_ZNSs12_M_leak_hardEv", metadata !312, i32 417, metadata !450, i1 false, i1 false, i32 0, i32 0, null, i32 257, i1 false, null, null, i32 0, metadata !89, i32 417} ; [ DW_TAG_subprogram ]
!492 = metadata !{i32 786478, i32 0, metadata !308, metadata !"_S_empty_rep", metadata !"_S_empty_rep", metadata !"_ZNSs12_S_empty_repEv", metadata !312, i32 420, metadata !408, i1 false, i1 false, i32 0, i32 0, null, i32 257, i1 false, null, null, i32 0, metadata !89, i32 420} ; [ DW_TAG_subprogram ]
!493 = metadata !{i32 786478, i32 0, metadata !308, metadata !"basic_string", metadata !"basic_string", metadata !"", metadata !312, i32 431, metadata !450, i1 false, i1 false, i32 0, i32 0, null, i32 256, i1 false, null, null, i32 0, metadata !89, i32 431} ; [ DW_TAG_subprogram ]
!494 = metadata !{i32 786478, i32 0, metadata !308, metadata !"basic_string", metadata !"basic_string", metadata !"", metadata !312, i32 442, metadata !495, i1 false, i1 false, i32 0, i32 0, null, i32 384, i1 false, null, null, i32 0, metadata !89, i32 442} ; [ DW_TAG_subprogram ]
!495 = metadata !{i32 786453, i32 0, metadata !"", i32 0, i32 0, i64 0, i64 0, i64 0, i32 0, null, metadata !496, i32 0, i32 0} ; [ DW_TAG_subroutine_type ]
!496 = metadata !{null, metadata !392, metadata !374}
!497 = metadata !{i32 786478, i32 0, metadata !308, metadata !"basic_string", metadata !"basic_string", metadata !"", metadata !312, i32 449, metadata !498, i1 false, i1 false, i32 0, i32 0, null, i32 256, i1 false, null, null, i32 0, metadata !89, i32 449} ; [ DW_TAG_subprogram ]
!498 = metadata !{i32 786453, i32 0, metadata !"", i32 0, i32 0, i64 0, i64 0, i64 0, i32 0, null, metadata !499, i32 0, i32 0} ; [ DW_TAG_subroutine_type ]
!499 = metadata !{null, metadata !392, metadata !500}
!500 = metadata !{i32 786448, null, null, null, i32 0, i64 0, i64 0, i64 0, i32 0, metadata !388} ; [ DW_TAG_reference_type ]
!501 = metadata !{i32 786478, i32 0, metadata !308, metadata !"basic_string", metadata !"basic_string", metadata !"", metadata !312, i32 456, metadata !502, i1 false, i1 false, i32 0, i32 0, null, i32 256, i1 false, null, null, i32 0, metadata !89, i32 456} ; [ DW_TAG_subprogram ]
!502 = metadata !{i32 786453, i32 0, metadata !"", i32 0, i32 0, i64 0, i64 0, i64 0, i32 0, null, metadata !503, i32 0, i32 0} ; [ DW_TAG_subroutine_type ]
!503 = metadata !{null, metadata !392, metadata !500, metadata !403, metadata !403}
!504 = metadata !{i32 786478, i32 0, metadata !308, metadata !"basic_string", metadata !"basic_string", metadata !"", metadata !312, i32 465, metadata !505, i1 false, i1 false, i32 0, i32 0, null, i32 256, i1 false, null, null, i32 0, metadata !89, i32 465} ; [ DW_TAG_subprogram ]
!505 = metadata !{i32 786453, i32 0, metadata !"", i32 0, i32 0, i64 0, i64 0, i64 0, i32 0, null, metadata !506, i32 0, i32 0} ; [ DW_TAG_subroutine_type ]
!506 = metadata !{null, metadata !392, metadata !500, metadata !403, metadata !403, metadata !374}
!507 = metadata !{i32 786478, i32 0, metadata !308, metadata !"basic_string", metadata !"basic_string", metadata !"", metadata !312, i32 477, metadata !508, i1 false, i1 false, i32 0, i32 0, null, i32 256, i1 false, null, null, i32 0, metadata !89, i32 477} ; [ DW_TAG_subprogram ]
!508 = metadata !{i32 786453, i32 0, metadata !"", i32 0, i32 0, i64 0, i64 0, i64 0, i32 0, null, metadata !509, i32 0, i32 0} ; [ DW_TAG_subroutine_type ]
!509 = metadata !{null, metadata !392, metadata !172, metadata !403, metadata !374}
!510 = metadata !{i32 786478, i32 0, metadata !308, metadata !"basic_string", metadata !"basic_string", metadata !"", metadata !312, i32 484, metadata !511, i1 false, i1 false, i32 0, i32 0, null, i32 256, i1 false, null, null, i32 0, metadata !89, i32 484} ; [ DW_TAG_subprogram ]
!511 = metadata !{i32 786453, i32 0, metadata !"", i32 0, i32 0, i64 0, i64 0, i64 0, i32 0, null, metadata !512, i32 0, i32 0} ; [ DW_TAG_subroutine_type ]
!512 = metadata !{null, metadata !392, metadata !172, metadata !374}
!513 = metadata !{i32 786478, i32 0, metadata !308, metadata !"basic_string", metadata !"basic_string", metadata !"", metadata !312, i32 491, metadata !514, i1 false, i1 false, i32 0, i32 0, null, i32 256, i1 false, null, null, i32 0, metadata !89, i32 491} ; [ DW_TAG_subprogram ]
!514 = metadata !{i32 786453, i32 0, metadata !"", i32 0, i32 0, i64 0, i64 0, i64 0, i32 0, null, metadata !515, i32 0, i32 0} ; [ DW_TAG_subroutine_type ]
!515 = metadata !{null, metadata !392, metadata !403, metadata !174, metadata !374}
!516 = metadata !{i32 786478, i32 0, metadata !308, metadata !"~basic_string", metadata !"~basic_string", metadata !"", metadata !312, i32 532, metadata !450, i1 false, i1 false, i32 0, i32 0, null, i32 256, i1 false, null, null, i32 0, metadata !89, i32 532} ; [ DW_TAG_subprogram ]
!517 = metadata !{i32 786478, i32 0, metadata !308, metadata !"operator=", metadata !"operator=", metadata !"_ZNSsaSERKSs", metadata !312, i32 540, metadata !518, i1 false, i1 false, i32 0, i32 0, null, i32 256, i1 false, null, null, i32 0, metadata !89, i32 540} ; [ DW_TAG_subprogram ]
!518 = metadata !{i32 786453, i32 0, metadata !"", i32 0, i32 0, i64 0, i64 0, i64 0, i32 0, null, metadata !519, i32 0, i32 0} ; [ DW_TAG_subroutine_type ]
!519 = metadata !{metadata !520, metadata !392, metadata !500}
!520 = metadata !{i32 786448, null, null, null, i32 0, i64 0, i64 0, i64 0, i32 0, metadata !308} ; [ DW_TAG_reference_type ]
!521 = metadata !{i32 786478, i32 0, metadata !308, metadata !"operator=", metadata !"operator=", metadata !"_ZNSsaSEPKc", metadata !312, i32 548, metadata !522, i1 false, i1 false, i32 0, i32 0, null, i32 256, i1 false, null, null, i32 0, metadata !89, i32 548} ; [ DW_TAG_subprogram ]
!522 = metadata !{i32 786453, i32 0, metadata !"", i32 0, i32 0, i64 0, i64 0, i64 0, i32 0, null, metadata !523, i32 0, i32 0} ; [ DW_TAG_subroutine_type ]
!523 = metadata !{metadata !520, metadata !392, metadata !172}
!524 = metadata !{i32 786478, i32 0, metadata !308, metadata !"operator=", metadata !"operator=", metadata !"_ZNSsaSEc", metadata !312, i32 559, metadata !525, i1 false, i1 false, i32 0, i32 0, null, i32 256, i1 false, null, null, i32 0, metadata !89, i32 559} ; [ DW_TAG_subprogram ]
!525 = metadata !{i32 786453, i32 0, metadata !"", i32 0, i32 0, i64 0, i64 0, i64 0, i32 0, null, metadata !526, i32 0, i32 0} ; [ DW_TAG_subroutine_type ]
!526 = metadata !{metadata !520, metadata !392, metadata !174}
!527 = metadata !{i32 786478, i32 0, metadata !308, metadata !"begin", metadata !"begin", metadata !"_ZNSs5beginEv", metadata !312, i32 599, metadata !528, i1 false, i1 false, i32 0, i32 0, null, i32 256, i1 false, null, null, i32 0, metadata !89, i32 599} ; [ DW_TAG_subprogram ]
!528 = metadata !{i32 786453, i32 0, metadata !"", i32 0, i32 0, i64 0, i64 0, i64 0, i32 0, null, metadata !529, i32 0, i32 0} ; [ DW_TAG_subroutine_type ]
!529 = metadata !{metadata !445, metadata !392}
!530 = metadata !{i32 786478, i32 0, metadata !308, metadata !"begin", metadata !"begin", metadata !"_ZNKSs5beginEv", metadata !312, i32 610, metadata !531, i1 false, i1 false, i32 0, i32 0, null, i32 256, i1 false, null, null, i32 0, metadata !89, i32 610} ; [ DW_TAG_subprogram ]
!531 = metadata !{i32 786453, i32 0, metadata !"", i32 0, i32 0, i64 0, i64 0, i64 0, i32 0, null, metadata !532, i32 0, i32 0} ; [ DW_TAG_subroutine_type ]
!532 = metadata !{metadata !477, metadata !387}
!533 = metadata !{i32 786478, i32 0, metadata !308, metadata !"end", metadata !"end", metadata !"_ZNSs3endEv", metadata !312, i32 618, metadata !528, i1 false, i1 false, i32 0, i32 0, null, i32 256, i1 false, null, null, i32 0, metadata !89, i32 618} ; [ DW_TAG_subprogram ]
!534 = metadata !{i32 786478, i32 0, metadata !308, metadata !"end", metadata !"end", metadata !"_ZNKSs3endEv", metadata !312, i32 629, metadata !531, i1 false, i1 false, i32 0, i32 0, null, i32 256, i1 false, null, null, i32 0, metadata !89, i32 629} ; [ DW_TAG_subprogram ]
!535 = metadata !{i32 786478, i32 0, metadata !308, metadata !"rbegin", metadata !"rbegin", metadata !"_ZNSs6rbeginEv", metadata !312, i32 638, metadata !536, i1 false, i1 false, i32 0, i32 0, null, i32 256, i1 false, null, null, i32 0, metadata !89, i32 638} ; [ DW_TAG_subprogram ]
!536 = metadata !{i32 786453, i32 0, metadata !"", i32 0, i32 0, i64 0, i64 0, i64 0, i32 0, null, metadata !537, i32 0, i32 0} ; [ DW_TAG_subroutine_type ]
!537 = metadata !{metadata !538, metadata !392}
!538 = metadata !{i32 786454, metadata !308, metadata !"reverse_iterator", metadata !309, i32 125, i64 0, i64 0, i64 0, i32 0, metadata !539} ; [ DW_TAG_typedef ]
!539 = metadata !{i32 786434, null, metadata !"reverse_iterator<__gnu_cxx::__normal_iterator<char *, std::basic_string<char> > >", metadata !447, i32 97, i32 0, i32 0, i32 0, i32 4, null, null, i32 0} ; [ DW_TAG_class_type ]
!540 = metadata !{i32 786478, i32 0, metadata !308, metadata !"rbegin", metadata !"rbegin", metadata !"_ZNKSs6rbeginEv", metadata !312, i32 647, metadata !541, i1 false, i1 false, i32 0, i32 0, null, i32 256, i1 false, null, null, i32 0, metadata !89, i32 647} ; [ DW_TAG_subprogram ]
!541 = metadata !{i32 786453, i32 0, metadata !"", i32 0, i32 0, i64 0, i64 0, i64 0, i32 0, null, metadata !542, i32 0, i32 0} ; [ DW_TAG_subroutine_type ]
!542 = metadata !{metadata !543, metadata !387}
!543 = metadata !{i32 786454, metadata !308, metadata !"const_reverse_iterator", metadata !309, i32 124, i64 0, i64 0, i64 0, i32 0, metadata !544} ; [ DW_TAG_typedef ]
!544 = metadata !{i32 786434, null, metadata !"reverse_iterator<__gnu_cxx::__normal_iterator<const char *, std::basic_string<char> > >", metadata !447, i32 97, i32 0, i32 0, i32 0, i32 4, null, null, i32 0} ; [ DW_TAG_class_type ]
!545 = metadata !{i32 786478, i32 0, metadata !308, metadata !"rend", metadata !"rend", metadata !"_ZNSs4rendEv", metadata !312, i32 656, metadata !536, i1 false, i1 false, i32 0, i32 0, null, i32 256, i1 false, null, null, i32 0, metadata !89, i32 656} ; [ DW_TAG_subprogram ]
!546 = metadata !{i32 786478, i32 0, metadata !308, metadata !"rend", metadata !"rend", metadata !"_ZNKSs4rendEv", metadata !312, i32 665, metadata !541, i1 false, i1 false, i32 0, i32 0, null, i32 256, i1 false, null, null, i32 0, metadata !89, i32 665} ; [ DW_TAG_subprogram ]
!547 = metadata !{i32 786478, i32 0, metadata !308, metadata !"size", metadata !"size", metadata !"_ZNKSs4sizeEv", metadata !312, i32 709, metadata !548, i1 false, i1 false, i32 0, i32 0, null, i32 256, i1 false, null, null, i32 0, metadata !89, i32 709} ; [ DW_TAG_subprogram ]
!548 = metadata !{i32 786453, i32 0, metadata !"", i32 0, i32 0, i64 0, i64 0, i64 0, i32 0, null, metadata !549, i32 0, i32 0} ; [ DW_TAG_subroutine_type ]
!549 = metadata !{metadata !403, metadata !387}
!550 = metadata !{i32 786478, i32 0, metadata !308, metadata !"length", metadata !"length", metadata !"_ZNKSs6lengthEv", metadata !312, i32 715, metadata !548, i1 false, i1 false, i32 0, i32 0, null, i32 256, i1 false, null, null, i32 0, metadata !89, i32 715} ; [ DW_TAG_subprogram ]
!551 = metadata !{i32 786478, i32 0, metadata !308, metadata !"max_size", metadata !"max_size", metadata !"_ZNKSs8max_sizeEv", metadata !312, i32 720, metadata !548, i1 false, i1 false, i32 0, i32 0, null, i32 256, i1 false, null, null, i32 0, metadata !89, i32 720} ; [ DW_TAG_subprogram ]
!552 = metadata !{i32 786478, i32 0, metadata !308, metadata !"resize", metadata !"resize", metadata !"_ZNSs6resizeEmc", metadata !312, i32 734, metadata !553, i1 false, i1 false, i32 0, i32 0, null, i32 256, i1 false, null, null, i32 0, metadata !89, i32 734} ; [ DW_TAG_subprogram ]
!553 = metadata !{i32 786453, i32 0, metadata !"", i32 0, i32 0, i64 0, i64 0, i64 0, i32 0, null, metadata !554, i32 0, i32 0} ; [ DW_TAG_subroutine_type ]
!554 = metadata !{null, metadata !392, metadata !403, metadata !174}
!555 = metadata !{i32 786478, i32 0, metadata !308, metadata !"resize", metadata !"resize", metadata !"_ZNSs6resizeEm", metadata !312, i32 747, metadata !556, i1 false, i1 false, i32 0, i32 0, null, i32 256, i1 false, null, null, i32 0, metadata !89, i32 747} ; [ DW_TAG_subprogram ]
!556 = metadata !{i32 786453, i32 0, metadata !"", i32 0, i32 0, i64 0, i64 0, i64 0, i32 0, null, metadata !557, i32 0, i32 0} ; [ DW_TAG_subroutine_type ]
!557 = metadata !{null, metadata !392, metadata !403}
!558 = metadata !{i32 786478, i32 0, metadata !308, metadata !"capacity", metadata !"capacity", metadata !"_ZNKSs8capacityEv", metadata !312, i32 767, metadata !548, i1 false, i1 false, i32 0, i32 0, null, i32 256, i1 false, null, null, i32 0, metadata !89, i32 767} ; [ DW_TAG_subprogram ]
!559 = metadata !{i32 786478, i32 0, metadata !308, metadata !"reserve", metadata !"reserve", metadata !"_ZNSs7reserveEm", metadata !312, i32 788, metadata !556, i1 false, i1 false, i32 0, i32 0, null, i32 256, i1 false, null, null, i32 0, metadata !89, i32 788} ; [ DW_TAG_subprogram ]
!560 = metadata !{i32 786478, i32 0, metadata !308, metadata !"clear", metadata !"clear", metadata !"_ZNSs5clearEv", metadata !312, i32 794, metadata !450, i1 false, i1 false, i32 0, i32 0, null, i32 256, i1 false, null, null, i32 0, metadata !89, i32 794} ; [ DW_TAG_subprogram ]
!561 = metadata !{i32 786478, i32 0, metadata !308, metadata !"empty", metadata !"empty", metadata !"_ZNKSs5emptyEv", metadata !312, i32 802, metadata !562, i1 false, i1 false, i32 0, i32 0, null, i32 256, i1 false, null, null, i32 0, metadata !89, i32 802} ; [ DW_TAG_subprogram ]
!562 = metadata !{i32 786453, i32 0, metadata !"", i32 0, i32 0, i64 0, i64 0, i64 0, i32 0, null, metadata !563, i32 0, i32 0} ; [ DW_TAG_subroutine_type ]
!563 = metadata !{metadata !238, metadata !387}
!564 = metadata !{i32 786478, i32 0, metadata !308, metadata !"operator[]", metadata !"operator[]", metadata !"_ZNKSsixEm", metadata !312, i32 817, metadata !565, i1 false, i1 false, i32 0, i32 0, null, i32 256, i1 false, null, null, i32 0, metadata !89, i32 817} ; [ DW_TAG_subprogram ]
!565 = metadata !{i32 786453, i32 0, metadata !"", i32 0, i32 0, i64 0, i64 0, i64 0, i32 0, null, metadata !566, i32 0, i32 0} ; [ DW_TAG_subroutine_type ]
!566 = metadata !{metadata !567, metadata !387, metadata !403}
!567 = metadata !{i32 786454, metadata !308, metadata !"const_reference", metadata !309, i32 118, i64 0, i64 0, i64 0, i32 0, metadata !568} ; [ DW_TAG_typedef ]
!568 = metadata !{i32 786454, metadata !316, metadata !"const_reference", metadata !309, i32 100, i64 0, i64 0, i64 0, i32 0, metadata !346} ; [ DW_TAG_typedef ]
!569 = metadata !{i32 786478, i32 0, metadata !308, metadata !"operator[]", metadata !"operator[]", metadata !"_ZNSsixEm", metadata !312, i32 834, metadata !570, i1 false, i1 false, i32 0, i32 0, null, i32 256, i1 false, null, null, i32 0, metadata !89, i32 834} ; [ DW_TAG_subprogram ]
!570 = metadata !{i32 786453, i32 0, metadata !"", i32 0, i32 0, i64 0, i64 0, i64 0, i32 0, null, metadata !571, i32 0, i32 0} ; [ DW_TAG_subroutine_type ]
!571 = metadata !{metadata !572, metadata !392, metadata !403}
!572 = metadata !{i32 786454, metadata !308, metadata !"reference", metadata !309, i32 117, i64 0, i64 0, i64 0, i32 0, metadata !573} ; [ DW_TAG_typedef ]
!573 = metadata !{i32 786454, metadata !316, metadata !"reference", metadata !309, i32 99, i64 0, i64 0, i64 0, i32 0, metadata !340} ; [ DW_TAG_typedef ]
!574 = metadata !{i32 786478, i32 0, metadata !308, metadata !"at", metadata !"at", metadata !"_ZNKSs2atEm", metadata !312, i32 855, metadata !565, i1 false, i1 false, i32 0, i32 0, null, i32 256, i1 false, null, null, i32 0, metadata !89, i32 855} ; [ DW_TAG_subprogram ]
!575 = metadata !{i32 786478, i32 0, metadata !308, metadata !"at", metadata !"at", metadata !"_ZNSs2atEm", metadata !312, i32 908, metadata !570, i1 false, i1 false, i32 0, i32 0, null, i32 256, i1 false, null, null, i32 0, metadata !89, i32 908} ; [ DW_TAG_subprogram ]
!576 = metadata !{i32 786478, i32 0, metadata !308, metadata !"operator+=", metadata !"operator+=", metadata !"_ZNSspLERKSs", metadata !312, i32 923, metadata !518, i1 false, i1 false, i32 0, i32 0, null, i32 256, i1 false, null, null, i32 0, metadata !89, i32 923} ; [ DW_TAG_subprogram ]
!577 = metadata !{i32 786478, i32 0, metadata !308, metadata !"operator+=", metadata !"operator+=", metadata !"_ZNSspLEPKc", metadata !312, i32 932, metadata !522, i1 false, i1 false, i32 0, i32 0, null, i32 256, i1 false, null, null, i32 0, metadata !89, i32 932} ; [ DW_TAG_subprogram ]
!578 = metadata !{i32 786478, i32 0, metadata !308, metadata !"operator+=", metadata !"operator+=", metadata !"_ZNSspLEc", metadata !312, i32 941, metadata !525, i1 false, i1 false, i32 0, i32 0, null, i32 256, i1 false, null, null, i32 0, metadata !89, i32 941} ; [ DW_TAG_subprogram ]
!579 = metadata !{i32 786478, i32 0, metadata !308, metadata !"append", metadata !"append", metadata !"_ZNSs6appendERKSs", metadata !312, i32 964, metadata !518, i1 false, i1 false, i32 0, i32 0, null, i32 256, i1 false, null, null, i32 0, metadata !89, i32 964} ; [ DW_TAG_subprogram ]
!580 = metadata !{i32 786478, i32 0, metadata !308, metadata !"append", metadata !"append", metadata !"_ZNSs6appendERKSsmm", metadata !312, i32 979, metadata !581, i1 false, i1 false, i32 0, i32 0, null, i32 256, i1 false, null, null, i32 0, metadata !89, i32 979} ; [ DW_TAG_subprogram ]
!581 = metadata !{i32 786453, i32 0, metadata !"", i32 0, i32 0, i64 0, i64 0, i64 0, i32 0, null, metadata !582, i32 0, i32 0} ; [ DW_TAG_subroutine_type ]
!582 = metadata !{metadata !520, metadata !392, metadata !500, metadata !403, metadata !403}
!583 = metadata !{i32 786478, i32 0, metadata !308, metadata !"append", metadata !"append", metadata !"_ZNSs6appendEPKcm", metadata !312, i32 988, metadata !584, i1 false, i1 false, i32 0, i32 0, null, i32 256, i1 false, null, null, i32 0, metadata !89, i32 988} ; [ DW_TAG_subprogram ]
!584 = metadata !{i32 786453, i32 0, metadata !"", i32 0, i32 0, i64 0, i64 0, i64 0, i32 0, null, metadata !585, i32 0, i32 0} ; [ DW_TAG_subroutine_type ]
!585 = metadata !{metadata !520, metadata !392, metadata !172, metadata !403}
!586 = metadata !{i32 786478, i32 0, metadata !308, metadata !"append", metadata !"append", metadata !"_ZNSs6appendEPKc", metadata !312, i32 996, metadata !522, i1 false, i1 false, i32 0, i32 0, null, i32 256, i1 false, null, null, i32 0, metadata !89, i32 996} ; [ DW_TAG_subprogram ]
!587 = metadata !{i32 786478, i32 0, metadata !308, metadata !"append", metadata !"append", metadata !"_ZNSs6appendEmc", metadata !312, i32 1011, metadata !588, i1 false, i1 false, i32 0, i32 0, null, i32 256, i1 false, null, null, i32 0, metadata !89, i32 1011} ; [ DW_TAG_subprogram ]
!588 = metadata !{i32 786453, i32 0, metadata !"", i32 0, i32 0, i64 0, i64 0, i64 0, i32 0, null, metadata !589, i32 0, i32 0} ; [ DW_TAG_subroutine_type ]
!589 = metadata !{metadata !520, metadata !392, metadata !403, metadata !174}
!590 = metadata !{i32 786478, i32 0, metadata !308, metadata !"push_back", metadata !"push_back", metadata !"_ZNSs9push_backEc", metadata !312, i32 1042, metadata !591, i1 false, i1 false, i32 0, i32 0, null, i32 256, i1 false, null, null, i32 0, metadata !89, i32 1042} ; [ DW_TAG_subprogram ]
!591 = metadata !{i32 786453, i32 0, metadata !"", i32 0, i32 0, i64 0, i64 0, i64 0, i32 0, null, metadata !592, i32 0, i32 0} ; [ DW_TAG_subroutine_type ]
!592 = metadata !{null, metadata !392, metadata !174}
!593 = metadata !{i32 786478, i32 0, metadata !308, metadata !"assign", metadata !"assign", metadata !"_ZNSs6assignERKSs", metadata !312, i32 1057, metadata !518, i1 false, i1 false, i32 0, i32 0, null, i32 256, i1 false, null, null, i32 0, metadata !89, i32 1057} ; [ DW_TAG_subprogram ]
!594 = metadata !{i32 786478, i32 0, metadata !308, metadata !"assign", metadata !"assign", metadata !"_ZNSs6assignERKSsmm", metadata !312, i32 1089, metadata !581, i1 false, i1 false, i32 0, i32 0, null, i32 256, i1 false, null, null, i32 0, metadata !89, i32 1089} ; [ DW_TAG_subprogram ]
!595 = metadata !{i32 786478, i32 0, metadata !308, metadata !"assign", metadata !"assign", metadata !"_ZNSs6assignEPKcm", metadata !312, i32 1105, metadata !584, i1 false, i1 false, i32 0, i32 0, null, i32 256, i1 false, null, null, i32 0, metadata !89, i32 1105} ; [ DW_TAG_subprogram ]
!596 = metadata !{i32 786478, i32 0, metadata !308, metadata !"assign", metadata !"assign", metadata !"_ZNSs6assignEPKc", metadata !312, i32 1117, metadata !522, i1 false, i1 false, i32 0, i32 0, null, i32 256, i1 false, null, null, i32 0, metadata !89, i32 1117} ; [ DW_TAG_subprogram ]
!597 = metadata !{i32 786478, i32 0, metadata !308, metadata !"assign", metadata !"assign", metadata !"_ZNSs6assignEmc", metadata !312, i32 1133, metadata !588, i1 false, i1 false, i32 0, i32 0, null, i32 256, i1 false, null, null, i32 0, metadata !89, i32 1133} ; [ DW_TAG_subprogram ]
!598 = metadata !{i32 786478, i32 0, metadata !308, metadata !"insert", metadata !"insert", metadata !"_ZNSs6insertEN9__gnu_cxx17__normal_iteratorIPcSsEEmc", metadata !312, i32 1173, metadata !599, i1 false, i1 false, i32 0, i32 0, null, i32 256, i1 false, null, null, i32 0, metadata !89, i32 1173} ; [ DW_TAG_subprogram ]
!599 = metadata !{i32 786453, i32 0, metadata !"", i32 0, i32 0, i64 0, i64 0, i64 0, i32 0, null, metadata !600, i32 0, i32 0} ; [ DW_TAG_subroutine_type ]
!600 = metadata !{null, metadata !392, metadata !445, metadata !403, metadata !174}
!601 = metadata !{i32 786478, i32 0, metadata !308, metadata !"insert", metadata !"insert", metadata !"_ZNSs6insertEmRKSs", metadata !312, i32 1219, metadata !602, i1 false, i1 false, i32 0, i32 0, null, i32 256, i1 false, null, null, i32 0, metadata !89, i32 1219} ; [ DW_TAG_subprogram ]
!602 = metadata !{i32 786453, i32 0, metadata !"", i32 0, i32 0, i64 0, i64 0, i64 0, i32 0, null, metadata !603, i32 0, i32 0} ; [ DW_TAG_subroutine_type ]
!603 = metadata !{metadata !520, metadata !392, metadata !403, metadata !500}
!604 = metadata !{i32 786478, i32 0, metadata !308, metadata !"insert", metadata !"insert", metadata !"_ZNSs6insertEmRKSsmm", metadata !312, i32 1241, metadata !605, i1 false, i1 false, i32 0, i32 0, null, i32 256, i1 false, null, null, i32 0, metadata !89, i32 1241} ; [ DW_TAG_subprogram ]
!605 = metadata !{i32 786453, i32 0, metadata !"", i32 0, i32 0, i64 0, i64 0, i64 0, i32 0, null, metadata !606, i32 0, i32 0} ; [ DW_TAG_subroutine_type ]
!606 = metadata !{metadata !520, metadata !392, metadata !403, metadata !500, metadata !403, metadata !403}
!607 = metadata !{i32 786478, i32 0, metadata !308, metadata !"insert", metadata !"insert", metadata !"_ZNSs6insertEmPKcm", metadata !312, i32 1264, metadata !608, i1 false, i1 false, i32 0, i32 0, null, i32 256, i1 false, null, null, i32 0, metadata !89, i32 1264} ; [ DW_TAG_subprogram ]
!608 = metadata !{i32 786453, i32 0, metadata !"", i32 0, i32 0, i64 0, i64 0, i64 0, i32 0, null, metadata !609, i32 0, i32 0} ; [ DW_TAG_subroutine_type ]
!609 = metadata !{metadata !520, metadata !392, metadata !403, metadata !172, metadata !403}
!610 = metadata !{i32 786478, i32 0, metadata !308, metadata !"insert", metadata !"insert", metadata !"_ZNSs6insertEmPKc", metadata !312, i32 1282, metadata !611, i1 false, i1 false, i32 0, i32 0, null, i32 256, i1 false, null, null, i32 0, metadata !89, i32 1282} ; [ DW_TAG_subprogram ]
!611 = metadata !{i32 786453, i32 0, metadata !"", i32 0, i32 0, i64 0, i64 0, i64 0, i32 0, null, metadata !612, i32 0, i32 0} ; [ DW_TAG_subroutine_type ]
!612 = metadata !{metadata !520, metadata !392, metadata !403, metadata !172}
!613 = metadata !{i32 786478, i32 0, metadata !308, metadata !"insert", metadata !"insert", metadata !"_ZNSs6insertEmmc", metadata !312, i32 1305, metadata !614, i1 false, i1 false, i32 0, i32 0, null, i32 256, i1 false, null, null, i32 0, metadata !89, i32 1305} ; [ DW_TAG_subprogram ]
!614 = metadata !{i32 786453, i32 0, metadata !"", i32 0, i32 0, i64 0, i64 0, i64 0, i32 0, null, metadata !615, i32 0, i32 0} ; [ DW_TAG_subroutine_type ]
!615 = metadata !{metadata !520, metadata !392, metadata !403, metadata !403, metadata !174}
!616 = metadata !{i32 786478, i32 0, metadata !308, metadata !"insert", metadata !"insert", metadata !"_ZNSs6insertEN9__gnu_cxx17__normal_iteratorIPcSsEEc", metadata !312, i32 1322, metadata !617, i1 false, i1 false, i32 0, i32 0, null, i32 256, i1 false, null, null, i32 0, metadata !89, i32 1322} ; [ DW_TAG_subprogram ]
!617 = metadata !{i32 786453, i32 0, metadata !"", i32 0, i32 0, i64 0, i64 0, i64 0, i32 0, null, metadata !618, i32 0, i32 0} ; [ DW_TAG_subroutine_type ]
!618 = metadata !{metadata !445, metadata !392, metadata !445, metadata !174}
!619 = metadata !{i32 786478, i32 0, metadata !308, metadata !"erase", metadata !"erase", metadata !"_ZNSs5eraseEmm", metadata !312, i32 1346, metadata !620, i1 false, i1 false, i32 0, i32 0, null, i32 256, i1 false, null, null, i32 0, metadata !89, i32 1346} ; [ DW_TAG_subprogram ]
!620 = metadata !{i32 786453, i32 0, metadata !"", i32 0, i32 0, i64 0, i64 0, i64 0, i32 0, null, metadata !621, i32 0, i32 0} ; [ DW_TAG_subroutine_type ]
!621 = metadata !{metadata !520, metadata !392, metadata !403, metadata !403}
!622 = metadata !{i32 786478, i32 0, metadata !308, metadata !"erase", metadata !"erase", metadata !"_ZNSs5eraseEN9__gnu_cxx17__normal_iteratorIPcSsEE", metadata !312, i32 1362, metadata !623, i1 false, i1 false, i32 0, i32 0, null, i32 256, i1 false, null, null, i32 0, metadata !89, i32 1362} ; [ DW_TAG_subprogram ]
!623 = metadata !{i32 786453, i32 0, metadata !"", i32 0, i32 0, i64 0, i64 0, i64 0, i32 0, null, metadata !624, i32 0, i32 0} ; [ DW_TAG_subroutine_type ]
!624 = metadata !{metadata !445, metadata !392, metadata !445}
!625 = metadata !{i32 786478, i32 0, metadata !308, metadata !"erase", metadata !"erase", metadata !"_ZNSs5eraseEN9__gnu_cxx17__normal_iteratorIPcSsEES2_", metadata !312, i32 1382, metadata !626, i1 false, i1 false, i32 0, i32 0, null, i32 256, i1 false, null, null, i32 0, metadata !89, i32 1382} ; [ DW_TAG_subprogram ]
!626 = metadata !{i32 786453, i32 0, metadata !"", i32 0, i32 0, i64 0, i64 0, i64 0, i32 0, null, metadata !627, i32 0, i32 0} ; [ DW_TAG_subroutine_type ]
!627 = metadata !{metadata !445, metadata !392, metadata !445, metadata !445}
!628 = metadata !{i32 786478, i32 0, metadata !308, metadata !"replace", metadata !"replace", metadata !"_ZNSs7replaceEmmRKSs", metadata !312, i32 1401, metadata !629, i1 false, i1 false, i32 0, i32 0, null, i32 256, i1 false, null, null, i32 0, metadata !89, i32 1401} ; [ DW_TAG_subprogram ]
!629 = metadata !{i32 786453, i32 0, metadata !"", i32 0, i32 0, i64 0, i64 0, i64 0, i32 0, null, metadata !630, i32 0, i32 0} ; [ DW_TAG_subroutine_type ]
!630 = metadata !{metadata !520, metadata !392, metadata !403, metadata !403, metadata !500}
!631 = metadata !{i32 786478, i32 0, metadata !308, metadata !"replace", metadata !"replace", metadata !"_ZNSs7replaceEmmRKSsmm", metadata !312, i32 1423, metadata !632, i1 false, i1 false, i32 0, i32 0, null, i32 256, i1 false, null, null, i32 0, metadata !89, i32 1423} ; [ DW_TAG_subprogram ]
!632 = metadata !{i32 786453, i32 0, metadata !"", i32 0, i32 0, i64 0, i64 0, i64 0, i32 0, null, metadata !633, i32 0, i32 0} ; [ DW_TAG_subroutine_type ]
!633 = metadata !{metadata !520, metadata !392, metadata !403, metadata !403, metadata !500, metadata !403, metadata !403}
!634 = metadata !{i32 786478, i32 0, metadata !308, metadata !"replace", metadata !"replace", metadata !"_ZNSs7replaceEmmPKcm", metadata !312, i32 1447, metadata !635, i1 false, i1 false, i32 0, i32 0, null, i32 256, i1 false, null, null, i32 0, metadata !89, i32 1447} ; [ DW_TAG_subprogram ]
!635 = metadata !{i32 786453, i32 0, metadata !"", i32 0, i32 0, i64 0, i64 0, i64 0, i32 0, null, metadata !636, i32 0, i32 0} ; [ DW_TAG_subroutine_type ]
!636 = metadata !{metadata !520, metadata !392, metadata !403, metadata !403, metadata !172, metadata !403}
!637 = metadata !{i32 786478, i32 0, metadata !308, metadata !"replace", metadata !"replace", metadata !"_ZNSs7replaceEmmPKc", metadata !312, i32 1466, metadata !638, i1 false, i1 false, i32 0, i32 0, null, i32 256, i1 false, null, null, i32 0, metadata !89, i32 1466} ; [ DW_TAG_subprogram ]
!638 = metadata !{i32 786453, i32 0, metadata !"", i32 0, i32 0, i64 0, i64 0, i64 0, i32 0, null, metadata !639, i32 0, i32 0} ; [ DW_TAG_subroutine_type ]
!639 = metadata !{metadata !520, metadata !392, metadata !403, metadata !403, metadata !172}
!640 = metadata !{i32 786478, i32 0, metadata !308, metadata !"replace", metadata !"replace", metadata !"_ZNSs7replaceEmmmc", metadata !312, i32 1489, metadata !641, i1 false, i1 false, i32 0, i32 0, null, i32 256, i1 false, null, null, i32 0, metadata !89, i32 1489} ; [ DW_TAG_subprogram ]
!641 = metadata !{i32 786453, i32 0, metadata !"", i32 0, i32 0, i64 0, i64 0, i64 0, i32 0, null, metadata !642, i32 0, i32 0} ; [ DW_TAG_subroutine_type ]
!642 = metadata !{metadata !520, metadata !392, metadata !403, metadata !403, metadata !403, metadata !174}
!643 = metadata !{i32 786478, i32 0, metadata !308, metadata !"replace", metadata !"replace", metadata !"_ZNSs7replaceEN9__gnu_cxx17__normal_iteratorIPcSsEES2_RKSs", metadata !312, i32 1507, metadata !644, i1 false, i1 false, i32 0, i32 0, null, i32 256, i1 false, null, null, i32 0, metadata !89, i32 1507} ; [ DW_TAG_subprogram ]
!644 = metadata !{i32 786453, i32 0, metadata !"", i32 0, i32 0, i64 0, i64 0, i64 0, i32 0, null, metadata !645, i32 0, i32 0} ; [ DW_TAG_subroutine_type ]
!645 = metadata !{metadata !520, metadata !392, metadata !445, metadata !445, metadata !500}
!646 = metadata !{i32 786478, i32 0, metadata !308, metadata !"replace", metadata !"replace", metadata !"_ZNSs7replaceEN9__gnu_cxx17__normal_iteratorIPcSsEES2_PKcm", metadata !312, i32 1525, metadata !647, i1 false, i1 false, i32 0, i32 0, null, i32 256, i1 false, null, null, i32 0, metadata !89, i32 1525} ; [ DW_TAG_subprogram ]
!647 = metadata !{i32 786453, i32 0, metadata !"", i32 0, i32 0, i64 0, i64 0, i64 0, i32 0, null, metadata !648, i32 0, i32 0} ; [ DW_TAG_subroutine_type ]
!648 = metadata !{metadata !520, metadata !392, metadata !445, metadata !445, metadata !172, metadata !403}
!649 = metadata !{i32 786478, i32 0, metadata !308, metadata !"replace", metadata !"replace", metadata !"_ZNSs7replaceEN9__gnu_cxx17__normal_iteratorIPcSsEES2_PKc", metadata !312, i32 1546, metadata !650, i1 false, i1 false, i32 0, i32 0, null, i32 256, i1 false, null, null, i32 0, metadata !89, i32 1546} ; [ DW_TAG_subprogram ]
!650 = metadata !{i32 786453, i32 0, metadata !"", i32 0, i32 0, i64 0, i64 0, i64 0, i32 0, null, metadata !651, i32 0, i32 0} ; [ DW_TAG_subroutine_type ]
!651 = metadata !{metadata !520, metadata !392, metadata !445, metadata !445, metadata !172}
!652 = metadata !{i32 786478, i32 0, metadata !308, metadata !"replace", metadata !"replace", metadata !"_ZNSs7replaceEN9__gnu_cxx17__normal_iteratorIPcSsEES2_mc", metadata !312, i32 1567, metadata !653, i1 false, i1 false, i32 0, i32 0, null, i32 256, i1 false, null, null, i32 0, metadata !89, i32 1567} ; [ DW_TAG_subprogram ]
!653 = metadata !{i32 786453, i32 0, metadata !"", i32 0, i32 0, i64 0, i64 0, i64 0, i32 0, null, metadata !654, i32 0, i32 0} ; [ DW_TAG_subroutine_type ]
!654 = metadata !{metadata !520, metadata !392, metadata !445, metadata !445, metadata !403, metadata !174}
!655 = metadata !{i32 786478, i32 0, metadata !308, metadata !"replace", metadata !"replace", metadata !"_ZNSs7replaceEN9__gnu_cxx17__normal_iteratorIPcSsEES2_S1_S1_", metadata !312, i32 1603, metadata !656, i1 false, i1 false, i32 0, i32 0, null, i32 256, i1 false, null, null, i32 0, metadata !89, i32 1603} ; [ DW_TAG_subprogram ]
!656 = metadata !{i32 786453, i32 0, metadata !"", i32 0, i32 0, i64 0, i64 0, i64 0, i32 0, null, metadata !657, i32 0, i32 0} ; [ DW_TAG_subroutine_type ]
!657 = metadata !{metadata !520, metadata !392, metadata !445, metadata !445, metadata !213, metadata !213}
!658 = metadata !{i32 786478, i32 0, metadata !308, metadata !"replace", metadata !"replace", metadata !"_ZNSs7replaceEN9__gnu_cxx17__normal_iteratorIPcSsEES2_PKcS4_", metadata !312, i32 1613, metadata !659, i1 false, i1 false, i32 0, i32 0, null, i32 256, i1 false, null, null, i32 0, metadata !89, i32 1613} ; [ DW_TAG_subprogram ]
!659 = metadata !{i32 786453, i32 0, metadata !"", i32 0, i32 0, i64 0, i64 0, i64 0, i32 0, null, metadata !660, i32 0, i32 0} ; [ DW_TAG_subroutine_type ]
!660 = metadata !{metadata !520, metadata !392, metadata !445, metadata !445, metadata !172, metadata !172}
!661 = metadata !{i32 786478, i32 0, metadata !308, metadata !"replace", metadata !"replace", metadata !"_ZNSs7replaceEN9__gnu_cxx17__normal_iteratorIPcSsEES2_S2_S2_", metadata !312, i32 1624, metadata !662, i1 false, i1 false, i32 0, i32 0, null, i32 256, i1 false, null, null, i32 0, metadata !89, i32 1624} ; [ DW_TAG_subprogram ]
!662 = metadata !{i32 786453, i32 0, metadata !"", i32 0, i32 0, i64 0, i64 0, i64 0, i32 0, null, metadata !663, i32 0, i32 0} ; [ DW_TAG_subroutine_type ]
!663 = metadata !{metadata !520, metadata !392, metadata !445, metadata !445, metadata !445, metadata !445}
!664 = metadata !{i32 786478, i32 0, metadata !308, metadata !"replace", metadata !"replace", metadata !"_ZNSs7replaceEN9__gnu_cxx17__normal_iteratorIPcSsEES2_NS0_IPKcSsEES5_", metadata !312, i32 1634, metadata !665, i1 false, i1 false, i32 0, i32 0, null, i32 256, i1 false, null, null, i32 0, metadata !89, i32 1634} ; [ DW_TAG_subprogram ]
!665 = metadata !{i32 786453, i32 0, metadata !"", i32 0, i32 0, i64 0, i64 0, i64 0, i32 0, null, metadata !666, i32 0, i32 0} ; [ DW_TAG_subroutine_type ]
!666 = metadata !{metadata !520, metadata !392, metadata !445, metadata !445, metadata !477, metadata !477}
!667 = metadata !{i32 786478, i32 0, metadata !308, metadata !"_M_replace_aux", metadata !"_M_replace_aux", metadata !"_ZNSs14_M_replace_auxEmmmc", metadata !312, i32 1676, metadata !641, i1 false, i1 false, i32 0, i32 0, null, i32 257, i1 false, null, null, i32 0, metadata !89, i32 1676} ; [ DW_TAG_subprogram ]
!668 = metadata !{i32 786478, i32 0, metadata !308, metadata !"_M_replace_safe", metadata !"_M_replace_safe", metadata !"_ZNSs15_M_replace_safeEmmPKcm", metadata !312, i32 1680, metadata !635, i1 false, i1 false, i32 0, i32 0, null, i32 257, i1 false, null, null, i32 0, metadata !89, i32 1680} ; [ DW_TAG_subprogram ]
!669 = metadata !{i32 786478, i32 0, metadata !308, metadata !"_S_construct_aux_2", metadata !"_S_construct_aux_2", metadata !"_ZNSs18_S_construct_aux_2EmcRKSaIcE", metadata !312, i32 1704, metadata !670, i1 false, i1 false, i32 0, i32 0, null, i32 257, i1 false, null, null, i32 0, metadata !89, i32 1704} ; [ DW_TAG_subprogram ]
!670 = metadata !{i32 786453, i32 0, metadata !"", i32 0, i32 0, i64 0, i64 0, i64 0, i32 0, null, metadata !671, i32 0, i32 0} ; [ DW_TAG_subroutine_type ]
!671 = metadata !{metadata !213, metadata !403, metadata !174, metadata !374}
!672 = metadata !{i32 786478, i32 0, metadata !308, metadata !"_S_construct", metadata !"_S_construct", metadata !"_ZNSs12_S_constructEmcRKSaIcE", metadata !312, i32 1729, metadata !670, i1 false, i1 false, i32 0, i32 0, null, i32 257, i1 false, null, null, i32 0, metadata !89, i32 1729} ; [ DW_TAG_subprogram ]
!673 = metadata !{i32 786478, i32 0, metadata !308, metadata !"copy", metadata !"copy", metadata !"_ZNKSs4copyEPcmm", metadata !312, i32 1745, metadata !674, i1 false, i1 false, i32 0, i32 0, null, i32 256, i1 false, null, null, i32 0, metadata !89, i32 1745} ; [ DW_TAG_subprogram ]
!674 = metadata !{i32 786453, i32 0, metadata !"", i32 0, i32 0, i64 0, i64 0, i64 0, i32 0, null, metadata !675, i32 0, i32 0} ; [ DW_TAG_subroutine_type ]
!675 = metadata !{metadata !403, metadata !387, metadata !213, metadata !403, metadata !403}
!676 = metadata !{i32 786478, i32 0, metadata !308, metadata !"swap", metadata !"swap", metadata !"_ZNSs4swapERSs", metadata !312, i32 1755, metadata !677, i1 false, i1 false, i32 0, i32 0, null, i32 256, i1 false, null, null, i32 0, metadata !89, i32 1755} ; [ DW_TAG_subprogram ]
!677 = metadata !{i32 786453, i32 0, metadata !"", i32 0, i32 0, i64 0, i64 0, i64 0, i32 0, null, metadata !678, i32 0, i32 0} ; [ DW_TAG_subroutine_type ]
!678 = metadata !{null, metadata !392, metadata !520}
!679 = metadata !{i32 786478, i32 0, metadata !308, metadata !"c_str", metadata !"c_str", metadata !"_ZNKSs5c_strEv", metadata !312, i32 1765, metadata !680, i1 false, i1 false, i32 0, i32 0, null, i32 256, i1 false, null, null, i32 0, metadata !89, i32 1765} ; [ DW_TAG_subprogram ]
!680 = metadata !{i32 786453, i32 0, metadata !"", i32 0, i32 0, i64 0, i64 0, i64 0, i32 0, null, metadata !681, i32 0, i32 0} ; [ DW_TAG_subroutine_type ]
!681 = metadata !{metadata !172, metadata !387}
!682 = metadata !{i32 786478, i32 0, metadata !308, metadata !"data", metadata !"data", metadata !"_ZNKSs4dataEv", metadata !312, i32 1775, metadata !680, i1 false, i1 false, i32 0, i32 0, null, i32 256, i1 false, null, null, i32 0, metadata !89, i32 1775} ; [ DW_TAG_subprogram ]
!683 = metadata !{i32 786478, i32 0, metadata !308, metadata !"get_allocator", metadata !"get_allocator", metadata !"_ZNKSs13get_allocatorEv", metadata !312, i32 1782, metadata !684, i1 false, i1 false, i32 0, i32 0, null, i32 256, i1 false, null, null, i32 0, metadata !89, i32 1782} ; [ DW_TAG_subprogram ]
!684 = metadata !{i32 786453, i32 0, metadata !"", i32 0, i32 0, i64 0, i64 0, i64 0, i32 0, null, metadata !685, i32 0, i32 0} ; [ DW_TAG_subroutine_type ]
!685 = metadata !{metadata !686, metadata !387}
!686 = metadata !{i32 786454, metadata !308, metadata !"allocator_type", metadata !309, i32 114, i64 0, i64 0, i64 0, i32 0, metadata !316} ; [ DW_TAG_typedef ]
!687 = metadata !{i32 786478, i32 0, metadata !308, metadata !"find", metadata !"find", metadata !"_ZNKSs4findEPKcmm", metadata !312, i32 1797, metadata !688, i1 false, i1 false, i32 0, i32 0, null, i32 256, i1 false, null, null, i32 0, metadata !89, i32 1797} ; [ DW_TAG_subprogram ]
!688 = metadata !{i32 786453, i32 0, metadata !"", i32 0, i32 0, i64 0, i64 0, i64 0, i32 0, null, metadata !689, i32 0, i32 0} ; [ DW_TAG_subroutine_type ]
!689 = metadata !{metadata !403, metadata !387, metadata !172, metadata !403, metadata !403}
!690 = metadata !{i32 786478, i32 0, metadata !308, metadata !"find", metadata !"find", metadata !"_ZNKSs4findERKSsm", metadata !312, i32 1810, metadata !691, i1 false, i1 false, i32 0, i32 0, null, i32 256, i1 false, null, null, i32 0, metadata !89, i32 1810} ; [ DW_TAG_subprogram ]
!691 = metadata !{i32 786453, i32 0, metadata !"", i32 0, i32 0, i64 0, i64 0, i64 0, i32 0, null, metadata !692, i32 0, i32 0} ; [ DW_TAG_subroutine_type ]
!692 = metadata !{metadata !403, metadata !387, metadata !500, metadata !403}
!693 = metadata !{i32 786478, i32 0, metadata !308, metadata !"find", metadata !"find", metadata !"_ZNKSs4findEPKcm", metadata !312, i32 1824, metadata !694, i1 false, i1 false, i32 0, i32 0, null, i32 256, i1 false, null, null, i32 0, metadata !89, i32 1824} ; [ DW_TAG_subprogram ]
!694 = metadata !{i32 786453, i32 0, metadata !"", i32 0, i32 0, i64 0, i64 0, i64 0, i32 0, null, metadata !695, i32 0, i32 0} ; [ DW_TAG_subroutine_type ]
!695 = metadata !{metadata !403, metadata !387, metadata !172, metadata !403}
!696 = metadata !{i32 786478, i32 0, metadata !308, metadata !"find", metadata !"find", metadata !"_ZNKSs4findEcm", metadata !312, i32 1841, metadata !697, i1 false, i1 false, i32 0, i32 0, null, i32 256, i1 false, null, null, i32 0, metadata !89, i32 1841} ; [ DW_TAG_subprogram ]
!697 = metadata !{i32 786453, i32 0, metadata !"", i32 0, i32 0, i64 0, i64 0, i64 0, i32 0, null, metadata !698, i32 0, i32 0} ; [ DW_TAG_subroutine_type ]
!698 = metadata !{metadata !403, metadata !387, metadata !174, metadata !403}
!699 = metadata !{i32 786478, i32 0, metadata !308, metadata !"rfind", metadata !"rfind", metadata !"_ZNKSs5rfindERKSsm", metadata !312, i32 1854, metadata !691, i1 false, i1 false, i32 0, i32 0, null, i32 256, i1 false, null, null, i32 0, metadata !89, i32 1854} ; [ DW_TAG_subprogram ]
!700 = metadata !{i32 786478, i32 0, metadata !308, metadata !"rfind", metadata !"rfind", metadata !"_ZNKSs5rfindEPKcmm", metadata !312, i32 1869, metadata !688, i1 false, i1 false, i32 0, i32 0, null, i32 256, i1 false, null, null, i32 0, metadata !89, i32 1869} ; [ DW_TAG_subprogram ]
!701 = metadata !{i32 786478, i32 0, metadata !308, metadata !"rfind", metadata !"rfind", metadata !"_ZNKSs5rfindEPKcm", metadata !312, i32 1882, metadata !694, i1 false, i1 false, i32 0, i32 0, null, i32 256, i1 false, null, null, i32 0, metadata !89, i32 1882} ; [ DW_TAG_subprogram ]
!702 = metadata !{i32 786478, i32 0, metadata !308, metadata !"rfind", metadata !"rfind", metadata !"_ZNKSs5rfindEcm", metadata !312, i32 1899, metadata !697, i1 false, i1 false, i32 0, i32 0, null, i32 256, i1 false, null, null, i32 0, metadata !89, i32 1899} ; [ DW_TAG_subprogram ]
!703 = metadata !{i32 786478, i32 0, metadata !308, metadata !"find_first_of", metadata !"find_first_of", metadata !"_ZNKSs13find_first_ofERKSsm", metadata !312, i32 1912, metadata !691, i1 false, i1 false, i32 0, i32 0, null, i32 256, i1 false, null, null, i32 0, metadata !89, i32 1912} ; [ DW_TAG_subprogram ]
!704 = metadata !{i32 786478, i32 0, metadata !308, metadata !"find_first_of", metadata !"find_first_of", metadata !"_ZNKSs13find_first_ofEPKcmm", metadata !312, i32 1927, metadata !688, i1 false, i1 false, i32 0, i32 0, null, i32 256, i1 false, null, null, i32 0, metadata !89, i32 1927} ; [ DW_TAG_subprogram ]
!705 = metadata !{i32 786478, i32 0, metadata !308, metadata !"find_first_of", metadata !"find_first_of", metadata !"_ZNKSs13find_first_ofEPKcm", metadata !312, i32 1940, metadata !694, i1 false, i1 false, i32 0, i32 0, null, i32 256, i1 false, null, null, i32 0, metadata !89, i32 1940} ; [ DW_TAG_subprogram ]
!706 = metadata !{i32 786478, i32 0, metadata !308, metadata !"find_first_of", metadata !"find_first_of", metadata !"_ZNKSs13find_first_ofEcm", metadata !312, i32 1959, metadata !697, i1 false, i1 false, i32 0, i32 0, null, i32 256, i1 false, null, null, i32 0, metadata !89, i32 1959} ; [ DW_TAG_subprogram ]
!707 = metadata !{i32 786478, i32 0, metadata !308, metadata !"find_last_of", metadata !"find_last_of", metadata !"_ZNKSs12find_last_ofERKSsm", metadata !312, i32 1973, metadata !691, i1 false, i1 false, i32 0, i32 0, null, i32 256, i1 false, null, null, i32 0, metadata !89, i32 1973} ; [ DW_TAG_subprogram ]
!708 = metadata !{i32 786478, i32 0, metadata !308, metadata !"find_last_of", metadata !"find_last_of", metadata !"_ZNKSs12find_last_ofEPKcmm", metadata !312, i32 1988, metadata !688, i1 false, i1 false, i32 0, i32 0, null, i32 256, i1 false, null, null, i32 0, metadata !89, i32 1988} ; [ DW_TAG_subprogram ]
!709 = metadata !{i32 786478, i32 0, metadata !308, metadata !"find_last_of", metadata !"find_last_of", metadata !"_ZNKSs12find_last_ofEPKcm", metadata !312, i32 2001, metadata !694, i1 false, i1 false, i32 0, i32 0, null, i32 256, i1 false, null, null, i32 0, metadata !89, i32 2001} ; [ DW_TAG_subprogram ]
!710 = metadata !{i32 786478, i32 0, metadata !308, metadata !"find_last_of", metadata !"find_last_of", metadata !"_ZNKSs12find_last_ofEcm", metadata !312, i32 2020, metadata !697, i1 false, i1 false, i32 0, i32 0, null, i32 256, i1 false, null, null, i32 0, metadata !89, i32 2020} ; [ DW_TAG_subprogram ]
!711 = metadata !{i32 786478, i32 0, metadata !308, metadata !"find_first_not_of", metadata !"find_first_not_of", metadata !"_ZNKSs17find_first_not_ofERKSsm", metadata !312, i32 2034, metadata !691, i1 false, i1 false, i32 0, i32 0, null, i32 256, i1 false, null, null, i32 0, metadata !89, i32 2034} ; [ DW_TAG_subprogram ]
!712 = metadata !{i32 786478, i32 0, metadata !308, metadata !"find_first_not_of", metadata !"find_first_not_of", metadata !"_ZNKSs17find_first_not_ofEPKcmm", metadata !312, i32 2049, metadata !688, i1 false, i1 false, i32 0, i32 0, null, i32 256, i1 false, null, null, i32 0, metadata !89, i32 2049} ; [ DW_TAG_subprogram ]
!713 = metadata !{i32 786478, i32 0, metadata !308, metadata !"find_first_not_of", metadata !"find_first_not_of", metadata !"_ZNKSs17find_first_not_ofEPKcm", metadata !312, i32 2063, metadata !694, i1 false, i1 false, i32 0, i32 0, null, i32 256, i1 false, null, null, i32 0, metadata !89, i32 2063} ; [ DW_TAG_subprogram ]
!714 = metadata !{i32 786478, i32 0, metadata !308, metadata !"find_first_not_of", metadata !"find_first_not_of", metadata !"_ZNKSs17find_first_not_ofEcm", metadata !312, i32 2080, metadata !697, i1 false, i1 false, i32 0, i32 0, null, i32 256, i1 false, null, null, i32 0, metadata !89, i32 2080} ; [ DW_TAG_subprogram ]
!715 = metadata !{i32 786478, i32 0, metadata !308, metadata !"find_last_not_of", metadata !"find_last_not_of", metadata !"_ZNKSs16find_last_not_ofERKSsm", metadata !312, i32 2093, metadata !691, i1 false, i1 false, i32 0, i32 0, null, i32 256, i1 false, null, null, i32 0, metadata !89, i32 2093} ; [ DW_TAG_subprogram ]
!716 = metadata !{i32 786478, i32 0, metadata !308, metadata !"find_last_not_of", metadata !"find_last_not_of", metadata !"_ZNKSs16find_last_not_ofEPKcmm", metadata !312, i32 2109, metadata !688, i1 false, i1 false, i32 0, i32 0, null, i32 256, i1 false, null, null, i32 0, metadata !89, i32 2109} ; [ DW_TAG_subprogram ]
!717 = metadata !{i32 786478, i32 0, metadata !308, metadata !"find_last_not_of", metadata !"find_last_not_of", metadata !"_ZNKSs16find_last_not_ofEPKcm", metadata !312, i32 2122, metadata !694, i1 false, i1 false, i32 0, i32 0, null, i32 256, i1 false, null, null, i32 0, metadata !89, i32 2122} ; [ DW_TAG_subprogram ]
!718 = metadata !{i32 786478, i32 0, metadata !308, metadata !"find_last_not_of", metadata !"find_last_not_of", metadata !"_ZNKSs16find_last_not_ofEcm", metadata !312, i32 2139, metadata !697, i1 false, i1 false, i32 0, i32 0, null, i32 256, i1 false, null, null, i32 0, metadata !89, i32 2139} ; [ DW_TAG_subprogram ]
!719 = metadata !{i32 786478, i32 0, metadata !308, metadata !"substr", metadata !"substr", metadata !"_ZNKSs6substrEmm", metadata !312, i32 2154, metadata !720, i1 false, i1 false, i32 0, i32 0, null, i32 256, i1 false, null, null, i32 0, metadata !89, i32 2154} ; [ DW_TAG_subprogram ]
!720 = metadata !{i32 786453, i32 0, metadata !"", i32 0, i32 0, i64 0, i64 0, i64 0, i32 0, null, metadata !721, i32 0, i32 0} ; [ DW_TAG_subroutine_type ]
!721 = metadata !{metadata !308, metadata !387, metadata !403, metadata !403}
!722 = metadata !{i32 786478, i32 0, metadata !308, metadata !"compare", metadata !"compare", metadata !"_ZNKSs7compareERKSs", metadata !312, i32 2172, metadata !723, i1 false, i1 false, i32 0, i32 0, null, i32 256, i1 false, null, null, i32 0, metadata !89, i32 2172} ; [ DW_TAG_subprogram ]
!723 = metadata !{i32 786453, i32 0, metadata !"", i32 0, i32 0, i64 0, i64 0, i64 0, i32 0, null, metadata !724, i32 0, i32 0} ; [ DW_TAG_subroutine_type ]
!724 = metadata !{metadata !56, metadata !387, metadata !500}
!725 = metadata !{i32 786478, i32 0, metadata !308, metadata !"compare", metadata !"compare", metadata !"_ZNKSs7compareEmmRKSs", metadata !312, i32 2202, metadata !726, i1 false, i1 false, i32 0, i32 0, null, i32 256, i1 false, null, null, i32 0, metadata !89, i32 2202} ; [ DW_TAG_subprogram ]
!726 = metadata !{i32 786453, i32 0, metadata !"", i32 0, i32 0, i64 0, i64 0, i64 0, i32 0, null, metadata !727, i32 0, i32 0} ; [ DW_TAG_subroutine_type ]
!727 = metadata !{metadata !56, metadata !387, metadata !403, metadata !403, metadata !500}
!728 = metadata !{i32 786478, i32 0, metadata !308, metadata !"compare", metadata !"compare", metadata !"_ZNKSs7compareEmmRKSsmm", metadata !312, i32 2226, metadata !729, i1 false, i1 false, i32 0, i32 0, null, i32 256, i1 false, null, null, i32 0, metadata !89, i32 2226} ; [ DW_TAG_subprogram ]
!729 = metadata !{i32 786453, i32 0, metadata !"", i32 0, i32 0, i64 0, i64 0, i64 0, i32 0, null, metadata !730, i32 0, i32 0} ; [ DW_TAG_subroutine_type ]
!730 = metadata !{metadata !56, metadata !387, metadata !403, metadata !403, metadata !500, metadata !403, metadata !403}
!731 = metadata !{i32 786478, i32 0, metadata !308, metadata !"compare", metadata !"compare", metadata !"_ZNKSs7compareEPKc", metadata !312, i32 2244, metadata !732, i1 false, i1 false, i32 0, i32 0, null, i32 256, i1 false, null, null, i32 0, metadata !89, i32 2244} ; [ DW_TAG_subprogram ]
!732 = metadata !{i32 786453, i32 0, metadata !"", i32 0, i32 0, i64 0, i64 0, i64 0, i32 0, null, metadata !733, i32 0, i32 0} ; [ DW_TAG_subroutine_type ]
!733 = metadata !{metadata !56, metadata !387, metadata !172}
!734 = metadata !{i32 786478, i32 0, metadata !308, metadata !"compare", metadata !"compare", metadata !"_ZNKSs7compareEmmPKc", metadata !312, i32 2267, metadata !735, i1 false, i1 false, i32 0, i32 0, null, i32 256, i1 false, null, null, i32 0, metadata !89, i32 2267} ; [ DW_TAG_subprogram ]
!735 = metadata !{i32 786453, i32 0, metadata !"", i32 0, i32 0, i64 0, i64 0, i64 0, i32 0, null, metadata !736, i32 0, i32 0} ; [ DW_TAG_subroutine_type ]
!736 = metadata !{metadata !56, metadata !387, metadata !403, metadata !403, metadata !172}
!737 = metadata !{i32 786478, i32 0, metadata !308, metadata !"compare", metadata !"compare", metadata !"_ZNKSs7compareEmmPKcm", metadata !312, i32 2292, metadata !738, i1 false, i1 false, i32 0, i32 0, null, i32 256, i1 false, null, null, i32 0, metadata !89, i32 2292} ; [ DW_TAG_subprogram ]
!738 = metadata !{i32 786453, i32 0, metadata !"", i32 0, i32 0, i64 0, i64 0, i64 0, i32 0, null, metadata !739, i32 0, i32 0} ; [ DW_TAG_subroutine_type ]
!739 = metadata !{metadata !56, metadata !387, metadata !403, metadata !403, metadata !172, metadata !403}
!740 = metadata !{metadata !741, metadata !742, metadata !795}
!741 = metadata !{i32 786479, null, metadata !"_CharT", metadata !174, null, i32 0, i32 0} ; [ DW_TAG_template_type_parameter ]
!742 = metadata !{i32 786479, null, metadata !"_Traits", metadata !743, null, i32 0, i32 0} ; [ DW_TAG_template_type_parameter ]
!743 = metadata !{i32 786434, metadata !744, metadata !"char_traits<char>", metadata !745, i32 234, i64 8, i64 8, i32 0, i32 0, null, metadata !746, i32 0, null, metadata !794} ; [ DW_TAG_class_type ]
!744 = metadata !{i32 786489, null, metadata !"std", metadata !745, i32 210} ; [ DW_TAG_namespace ]
!745 = metadata !{i32 786473, metadata !"/opt/Xilinx/SDSoC/2014.4/Vivado_HLS/2014.4/lnx64/tools/gcc/lib/gcc/x86_64-unknown-linux-gnu/4.6.3/../../../../include/c++/4.6.3/bits/char_traits.h", metadata !"/home/trungnguyen/SDSoC/thesis/SDRelease/_sds/vhls", null} ; [ DW_TAG_file_type ]
!746 = metadata !{metadata !747, metadata !754, metadata !757, metadata !758, metadata !762, metadata !765, metadata !768, metadata !772, metadata !773, metadata !776, metadata !782, metadata !785, metadata !788, metadata !791}
!747 = metadata !{i32 786478, i32 0, metadata !743, metadata !"assign", metadata !"assign", metadata !"_ZNSt11char_traitsIcE6assignERcRKc", metadata !745, i32 243, metadata !748, i1 false, i1 false, i32 0, i32 0, null, i32 256, i1 false, null, null, i32 0, metadata !89, i32 243} ; [ DW_TAG_subprogram ]
!748 = metadata !{i32 786453, i32 0, metadata !"", i32 0, i32 0, i64 0, i64 0, i64 0, i32 0, null, metadata !749, i32 0, i32 0} ; [ DW_TAG_subroutine_type ]
!749 = metadata !{null, metadata !750, metadata !752}
!750 = metadata !{i32 786448, null, null, null, i32 0, i64 0, i64 0, i64 0, i32 0, metadata !751} ; [ DW_TAG_reference_type ]
!751 = metadata !{i32 786454, metadata !743, metadata !"char_type", metadata !745, i32 236, i64 0, i64 0, i64 0, i32 0, metadata !174} ; [ DW_TAG_typedef ]
!752 = metadata !{i32 786448, null, null, null, i32 0, i64 0, i64 0, i64 0, i32 0, metadata !753} ; [ DW_TAG_reference_type ]
!753 = metadata !{i32 786470, null, metadata !"", null, i32 0, i64 0, i64 0, i64 0, i32 0, metadata !751} ; [ DW_TAG_const_type ]
!754 = metadata !{i32 786478, i32 0, metadata !743, metadata !"eq", metadata !"eq", metadata !"_ZNSt11char_traitsIcE2eqERKcS2_", metadata !745, i32 247, metadata !755, i1 false, i1 false, i32 0, i32 0, null, i32 256, i1 false, null, null, i32 0, metadata !89, i32 247} ; [ DW_TAG_subprogram ]
!755 = metadata !{i32 786453, i32 0, metadata !"", i32 0, i32 0, i64 0, i64 0, i64 0, i32 0, null, metadata !756, i32 0, i32 0} ; [ DW_TAG_subroutine_type ]
!756 = metadata !{metadata !238, metadata !752, metadata !752}
!757 = metadata !{i32 786478, i32 0, metadata !743, metadata !"lt", metadata !"lt", metadata !"_ZNSt11char_traitsIcE2ltERKcS2_", metadata !745, i32 251, metadata !755, i1 false, i1 false, i32 0, i32 0, null, i32 256, i1 false, null, null, i32 0, metadata !89, i32 251} ; [ DW_TAG_subprogram ]
!758 = metadata !{i32 786478, i32 0, metadata !743, metadata !"compare", metadata !"compare", metadata !"_ZNSt11char_traitsIcE7compareEPKcS2_m", metadata !745, i32 255, metadata !759, i1 false, i1 false, i32 0, i32 0, null, i32 256, i1 false, null, null, i32 0, metadata !89, i32 255} ; [ DW_TAG_subprogram ]
!759 = metadata !{i32 786453, i32 0, metadata !"", i32 0, i32 0, i64 0, i64 0, i64 0, i32 0, null, metadata !760, i32 0, i32 0} ; [ DW_TAG_subroutine_type ]
!760 = metadata !{metadata !56, metadata !761, metadata !761, metadata !139}
!761 = metadata !{i32 786447, null, metadata !"", null, i32 0, i64 64, i64 64, i64 0, i32 0, metadata !753} ; [ DW_TAG_pointer_type ]
!762 = metadata !{i32 786478, i32 0, metadata !743, metadata !"length", metadata !"length", metadata !"_ZNSt11char_traitsIcE6lengthEPKc", metadata !745, i32 259, metadata !763, i1 false, i1 false, i32 0, i32 0, null, i32 256, i1 false, null, null, i32 0, metadata !89, i32 259} ; [ DW_TAG_subprogram ]
!763 = metadata !{i32 786453, i32 0, metadata !"", i32 0, i32 0, i64 0, i64 0, i64 0, i32 0, null, metadata !764, i32 0, i32 0} ; [ DW_TAG_subroutine_type ]
!764 = metadata !{metadata !139, metadata !761}
!765 = metadata !{i32 786478, i32 0, metadata !743, metadata !"find", metadata !"find", metadata !"_ZNSt11char_traitsIcE4findEPKcmRS1_", metadata !745, i32 263, metadata !766, i1 false, i1 false, i32 0, i32 0, null, i32 256, i1 false, null, null, i32 0, metadata !89, i32 263} ; [ DW_TAG_subprogram ]
!766 = metadata !{i32 786453, i32 0, metadata !"", i32 0, i32 0, i64 0, i64 0, i64 0, i32 0, null, metadata !767, i32 0, i32 0} ; [ DW_TAG_subroutine_type ]
!767 = metadata !{metadata !761, metadata !761, metadata !139, metadata !752}
!768 = metadata !{i32 786478, i32 0, metadata !743, metadata !"move", metadata !"move", metadata !"_ZNSt11char_traitsIcE4moveEPcPKcm", metadata !745, i32 267, metadata !769, i1 false, i1 false, i32 0, i32 0, null, i32 256, i1 false, null, null, i32 0, metadata !89, i32 267} ; [ DW_TAG_subprogram ]
!769 = metadata !{i32 786453, i32 0, metadata !"", i32 0, i32 0, i64 0, i64 0, i64 0, i32 0, null, metadata !770, i32 0, i32 0} ; [ DW_TAG_subroutine_type ]
!770 = metadata !{metadata !771, metadata !771, metadata !761, metadata !139}
!771 = metadata !{i32 786447, null, metadata !"", null, i32 0, i64 64, i64 64, i64 0, i32 0, metadata !751} ; [ DW_TAG_pointer_type ]
!772 = metadata !{i32 786478, i32 0, metadata !743, metadata !"copy", metadata !"copy", metadata !"_ZNSt11char_traitsIcE4copyEPcPKcm", metadata !745, i32 271, metadata !769, i1 false, i1 false, i32 0, i32 0, null, i32 256, i1 false, null, null, i32 0, metadata !89, i32 271} ; [ DW_TAG_subprogram ]
!773 = metadata !{i32 786478, i32 0, metadata !743, metadata !"assign", metadata !"assign", metadata !"_ZNSt11char_traitsIcE6assignEPcmc", metadata !745, i32 275, metadata !774, i1 false, i1 false, i32 0, i32 0, null, i32 256, i1 false, null, null, i32 0, metadata !89, i32 275} ; [ DW_TAG_subprogram ]
!774 = metadata !{i32 786453, i32 0, metadata !"", i32 0, i32 0, i64 0, i64 0, i64 0, i32 0, null, metadata !775, i32 0, i32 0} ; [ DW_TAG_subroutine_type ]
!775 = metadata !{metadata !771, metadata !771, metadata !139, metadata !751}
!776 = metadata !{i32 786478, i32 0, metadata !743, metadata !"to_char_type", metadata !"to_char_type", metadata !"_ZNSt11char_traitsIcE12to_char_typeERKi", metadata !745, i32 279, metadata !777, i1 false, i1 false, i32 0, i32 0, null, i32 256, i1 false, null, null, i32 0, metadata !89, i32 279} ; [ DW_TAG_subprogram ]
!777 = metadata !{i32 786453, i32 0, metadata !"", i32 0, i32 0, i64 0, i64 0, i64 0, i32 0, null, metadata !778, i32 0, i32 0} ; [ DW_TAG_subroutine_type ]
!778 = metadata !{metadata !751, metadata !779}
!779 = metadata !{i32 786448, null, null, null, i32 0, i64 0, i64 0, i64 0, i32 0, metadata !780} ; [ DW_TAG_reference_type ]
!780 = metadata !{i32 786470, null, metadata !"", null, i32 0, i64 0, i64 0, i64 0, i32 0, metadata !781} ; [ DW_TAG_const_type ]
!781 = metadata !{i32 786454, metadata !743, metadata !"int_type", metadata !745, i32 237, i64 0, i64 0, i64 0, i32 0, metadata !56} ; [ DW_TAG_typedef ]
!782 = metadata !{i32 786478, i32 0, metadata !743, metadata !"to_int_type", metadata !"to_int_type", metadata !"_ZNSt11char_traitsIcE11to_int_typeERKc", metadata !745, i32 285, metadata !783, i1 false, i1 false, i32 0, i32 0, null, i32 256, i1 false, null, null, i32 0, metadata !89, i32 285} ; [ DW_TAG_subprogram ]
!783 = metadata !{i32 786453, i32 0, metadata !"", i32 0, i32 0, i64 0, i64 0, i64 0, i32 0, null, metadata !784, i32 0, i32 0} ; [ DW_TAG_subroutine_type ]
!784 = metadata !{metadata !781, metadata !752}
!785 = metadata !{i32 786478, i32 0, metadata !743, metadata !"eq_int_type", metadata !"eq_int_type", metadata !"_ZNSt11char_traitsIcE11eq_int_typeERKiS2_", metadata !745, i32 289, metadata !786, i1 false, i1 false, i32 0, i32 0, null, i32 256, i1 false, null, null, i32 0, metadata !89, i32 289} ; [ DW_TAG_subprogram ]
!786 = metadata !{i32 786453, i32 0, metadata !"", i32 0, i32 0, i64 0, i64 0, i64 0, i32 0, null, metadata !787, i32 0, i32 0} ; [ DW_TAG_subroutine_type ]
!787 = metadata !{metadata !238, metadata !779, metadata !779}
!788 = metadata !{i32 786478, i32 0, metadata !743, metadata !"eof", metadata !"eof", metadata !"_ZNSt11char_traitsIcE3eofEv", metadata !745, i32 293, metadata !789, i1 false, i1 false, i32 0, i32 0, null, i32 256, i1 false, null, null, i32 0, metadata !89, i32 293} ; [ DW_TAG_subprogram ]
!789 = metadata !{i32 786453, i32 0, metadata !"", i32 0, i32 0, i64 0, i64 0, i64 0, i32 0, null, metadata !790, i32 0, i32 0} ; [ DW_TAG_subroutine_type ]
!790 = metadata !{metadata !781}
!791 = metadata !{i32 786478, i32 0, metadata !743, metadata !"not_eof", metadata !"not_eof", metadata !"_ZNSt11char_traitsIcE7not_eofERKi", metadata !745, i32 297, metadata !792, i1 false, i1 false, i32 0, i32 0, null, i32 256, i1 false, null, null, i32 0, metadata !89, i32 297} ; [ DW_TAG_subprogram ]
!792 = metadata !{i32 786453, i32 0, metadata !"", i32 0, i32 0, i64 0, i64 0, i64 0, i32 0, null, metadata !793, i32 0, i32 0} ; [ DW_TAG_subroutine_type ]
!793 = metadata !{metadata !781, metadata !779}
!794 = metadata !{metadata !741}
!795 = metadata !{i32 786479, null, metadata !"_Alloc", metadata !316, null, i32 0, i32 0} ; [ DW_TAG_template_type_parameter ]
!796 = metadata !{i32 786447, i32 0, metadata !"", i32 0, i32 0, i64 64, i64 64, i64 0, i32 64, metadata !288} ; [ DW_TAG_pointer_type ]
!797 = metadata !{i32 786478, i32 0, metadata !115, metadata !"operator==", metadata !"operator==", metadata !"_ZNKSt6localeeqERKS_", metadata !117, i32 226, metadata !798, i1 false, i1 false, i32 0, i32 0, null, i32 256, i1 false, null, null, i32 0, metadata !89, i32 226} ; [ DW_TAG_subprogram ]
!798 = metadata !{i32 786453, i32 0, metadata !"", i32 0, i32 0, i64 0, i64 0, i64 0, i32 0, null, metadata !799, i32 0, i32 0} ; [ DW_TAG_subroutine_type ]
!799 = metadata !{metadata !238, metadata !796, metadata !287}
!800 = metadata !{i32 786478, i32 0, metadata !115, metadata !"operator!=", metadata !"operator!=", metadata !"_ZNKSt6localeneERKS_", metadata !117, i32 235, metadata !798, i1 false, i1 false, i32 0, i32 0, null, i32 256, i1 false, null, null, i32 0, metadata !89, i32 235} ; [ DW_TAG_subprogram ]
!801 = metadata !{i32 786478, i32 0, metadata !115, metadata !"global", metadata !"global", metadata !"_ZNSt6locale6globalERKS_", metadata !117, i32 270, metadata !802, i1 false, i1 false, i32 0, i32 0, null, i32 256, i1 false, null, null, i32 0, metadata !89, i32 270} ; [ DW_TAG_subprogram ]
!802 = metadata !{i32 786453, i32 0, metadata !"", i32 0, i32 0, i64 0, i64 0, i64 0, i32 0, null, metadata !803, i32 0, i32 0} ; [ DW_TAG_subroutine_type ]
!803 = metadata !{metadata !115, metadata !287}
!804 = metadata !{i32 786478, i32 0, metadata !115, metadata !"classic", metadata !"classic", metadata !"_ZNSt6locale7classicEv", metadata !117, i32 276, metadata !805, i1 false, i1 false, i32 0, i32 0, null, i32 256, i1 false, null, null, i32 0, metadata !89, i32 276} ; [ DW_TAG_subprogram ]
!805 = metadata !{i32 786453, i32 0, metadata !"", i32 0, i32 0, i64 0, i64 0, i64 0, i32 0, null, metadata !806, i32 0, i32 0} ; [ DW_TAG_subroutine_type ]
!806 = metadata !{metadata !287}
!807 = metadata !{i32 786478, i32 0, metadata !115, metadata !"locale", metadata !"locale", metadata !"", metadata !117, i32 311, metadata !808, i1 false, i1 false, i32 0, i32 0, null, i32 385, i1 false, null, null, i32 0, metadata !89, i32 311} ; [ DW_TAG_subprogram ]
!808 = metadata !{i32 786453, i32 0, metadata !"", i32 0, i32 0, i64 0, i64 0, i64 0, i32 0, null, metadata !809, i32 0, i32 0} ; [ DW_TAG_subroutine_type ]
!809 = metadata !{null, metadata !283, metadata !120}
!810 = metadata !{i32 786478, i32 0, metadata !115, metadata !"_S_initialize", metadata !"_S_initialize", metadata !"_ZNSt6locale13_S_initializeEv", metadata !117, i32 314, metadata !133, i1 false, i1 false, i32 0, i32 0, null, i32 257, i1 false, null, null, i32 0, metadata !89, i32 314} ; [ DW_TAG_subprogram ]
!811 = metadata !{i32 786478, i32 0, metadata !115, metadata !"_S_initialize_once", metadata !"_S_initialize_once", metadata !"_ZNSt6locale18_S_initialize_onceEv", metadata !117, i32 317, metadata !133, i1 false, i1 false, i32 0, i32 0, null, i32 257, i1 false, null, null, i32 0, metadata !89, i32 317} ; [ DW_TAG_subprogram ]
!812 = metadata !{i32 786478, i32 0, metadata !115, metadata !"_S_normalize_category", metadata !"_S_normalize_category", metadata !"_ZNSt6locale21_S_normalize_categoryEi", metadata !117, i32 320, metadata !813, i1 false, i1 false, i32 0, i32 0, null, i32 257, i1 false, null, null, i32 0, metadata !89, i32 320} ; [ DW_TAG_subprogram ]
!813 = metadata !{i32 786453, i32 0, metadata !"", i32 0, i32 0, i64 0, i64 0, i64 0, i32 0, null, metadata !814, i32 0, i32 0} ; [ DW_TAG_subroutine_type ]
!814 = metadata !{metadata !243, metadata !243}
!815 = metadata !{i32 786478, i32 0, metadata !115, metadata !"_M_coalesce", metadata !"_M_coalesce", metadata !"_ZNSt6locale11_M_coalesceERKS_S1_i", metadata !117, i32 323, metadata !296, i1 false, i1 false, i32 0, i32 0, null, i32 257, i1 false, null, null, i32 0, metadata !89, i32 323} ; [ DW_TAG_subprogram ]
!816 = metadata !{i32 786474, metadata !115, null, metadata !117, i32 0, i64 0, i64 0, i64 0, i32 0, metadata !121} ; [ DW_TAG_friend ]
!817 = metadata !{i32 786474, metadata !115, null, metadata !117, i32 0, i64 0, i64 0, i64 0, i32 0, metadata !128} ; [ DW_TAG_friend ]
!818 = metadata !{i32 786478, i32 0, metadata !49, metadata !"register_callback", metadata !"register_callback", metadata !"_ZNSt8ios_base17register_callbackEPFvNS_5eventERS_iEi", metadata !5, i32 450, metadata !819, i1 false, i1 false, i32 0, i32 0, null, i32 256, i1 false, null, null, i32 0, metadata !89, i32 450} ; [ DW_TAG_subprogram ]
!819 = metadata !{i32 786453, i32 0, metadata !"", i32 0, i32 0, i64 0, i64 0, i64 0, i32 0, null, metadata !820, i32 0, i32 0} ; [ DW_TAG_subroutine_type ]
!820 = metadata !{null, metadata !821, metadata !77, metadata !56}
!821 = metadata !{i32 786447, i32 0, metadata !"", i32 0, i32 0, i64 64, i64 64, i64 0, i32 64, metadata !49} ; [ DW_TAG_pointer_type ]
!822 = metadata !{i32 786478, i32 0, metadata !49, metadata !"_M_call_callbacks", metadata !"_M_call_callbacks", metadata !"_ZNSt8ios_base17_M_call_callbacksENS_5eventE", metadata !5, i32 494, metadata !823, i1 false, i1 false, i32 0, i32 0, null, i32 258, i1 false, null, null, i32 0, metadata !89, i32 494} ; [ DW_TAG_subprogram ]
!823 = metadata !{i32 786453, i32 0, metadata !"", i32 0, i32 0, i64 0, i64 0, i64 0, i32 0, null, metadata !824, i32 0, i32 0} ; [ DW_TAG_subroutine_type ]
!824 = metadata !{null, metadata !821, metadata !48}
!825 = metadata !{i32 786478, i32 0, metadata !49, metadata !"_M_dispose_callbacks", metadata !"_M_dispose_callbacks", metadata !"_ZNSt8ios_base20_M_dispose_callbacksEv", metadata !5, i32 497, metadata !826, i1 false, i1 false, i32 0, i32 0, null, i32 258, i1 false, null, null, i32 0, metadata !89, i32 497} ; [ DW_TAG_subprogram ]
!826 = metadata !{i32 786453, i32 0, metadata !"", i32 0, i32 0, i64 0, i64 0, i64 0, i32 0, null, metadata !827, i32 0, i32 0} ; [ DW_TAG_subroutine_type ]
!827 = metadata !{null, metadata !821}
!828 = metadata !{i32 786478, i32 0, metadata !49, metadata !"_M_grow_words", metadata !"_M_grow_words", metadata !"_ZNSt8ios_base13_M_grow_wordsEib", metadata !5, i32 520, metadata !829, i1 false, i1 false, i32 0, i32 0, null, i32 258, i1 false, null, null, i32 0, metadata !89, i32 520} ; [ DW_TAG_subprogram ]
!829 = metadata !{i32 786453, i32 0, metadata !"", i32 0, i32 0, i64 0, i64 0, i64 0, i32 0, null, metadata !830, i32 0, i32 0} ; [ DW_TAG_subroutine_type ]
!830 = metadata !{metadata !831, metadata !821, metadata !56, metadata !238}
!831 = metadata !{i32 786448, null, null, null, i32 0, i64 0, i64 0, i64 0, i32 0, metadata !98} ; [ DW_TAG_reference_type ]
!832 = metadata !{i32 786478, i32 0, metadata !49, metadata !"_M_init", metadata !"_M_init", metadata !"_ZNSt8ios_base7_M_initEv", metadata !5, i32 526, metadata !826, i1 false, i1 false, i32 0, i32 0, null, i32 258, i1 false, null, null, i32 0, metadata !89, i32 526} ; [ DW_TAG_subprogram ]
!833 = metadata !{i32 786478, i32 0, metadata !49, metadata !"flags", metadata !"flags", metadata !"_ZNKSt8ios_base5flagsEv", metadata !5, i32 552, metadata !834, i1 false, i1 false, i32 0, i32 0, null, i32 256, i1 false, null, null, i32 0, metadata !89, i32 552} ; [ DW_TAG_subprogram ]
!834 = metadata !{i32 786453, i32 0, metadata !"", i32 0, i32 0, i64 0, i64 0, i64 0, i32 0, null, metadata !835, i32 0, i32 0} ; [ DW_TAG_subroutine_type ]
!835 = metadata !{metadata !67, metadata !836}
!836 = metadata !{i32 786447, i32 0, metadata !"", i32 0, i32 0, i64 64, i64 64, i64 0, i32 64, metadata !837} ; [ DW_TAG_pointer_type ]
!837 = metadata !{i32 786470, null, metadata !"", null, i32 0, i64 0, i64 0, i64 0, i32 0, metadata !49} ; [ DW_TAG_const_type ]
!838 = metadata !{i32 786478, i32 0, metadata !49, metadata !"flags", metadata !"flags", metadata !"_ZNSt8ios_base5flagsESt13_Ios_Fmtflags", metadata !5, i32 563, metadata !839, i1 false, i1 false, i32 0, i32 0, null, i32 256, i1 false, null, null, i32 0, metadata !89, i32 563} ; [ DW_TAG_subprogram ]
!839 = metadata !{i32 786453, i32 0, metadata !"", i32 0, i32 0, i64 0, i64 0, i64 0, i32 0, null, metadata !840, i32 0, i32 0} ; [ DW_TAG_subroutine_type ]
!840 = metadata !{metadata !67, metadata !821, metadata !67}
!841 = metadata !{i32 786478, i32 0, metadata !49, metadata !"setf", metadata !"setf", metadata !"_ZNSt8ios_base4setfESt13_Ios_Fmtflags", metadata !5, i32 579, metadata !839, i1 false, i1 false, i32 0, i32 0, null, i32 256, i1 false, null, null, i32 0, metadata !89, i32 579} ; [ DW_TAG_subprogram ]
!842 = metadata !{i32 786478, i32 0, metadata !49, metadata !"setf", metadata !"setf", metadata !"_ZNSt8ios_base4setfESt13_Ios_FmtflagsS0_", metadata !5, i32 596, metadata !843, i1 false, i1 false, i32 0, i32 0, null, i32 256, i1 false, null, null, i32 0, metadata !89, i32 596} ; [ DW_TAG_subprogram ]
!843 = metadata !{i32 786453, i32 0, metadata !"", i32 0, i32 0, i64 0, i64 0, i64 0, i32 0, null, metadata !844, i32 0, i32 0} ; [ DW_TAG_subroutine_type ]
!844 = metadata !{metadata !67, metadata !821, metadata !67, metadata !67}
!845 = metadata !{i32 786478, i32 0, metadata !49, metadata !"unsetf", metadata !"unsetf", metadata !"_ZNSt8ios_base6unsetfESt13_Ios_Fmtflags", metadata !5, i32 611, metadata !846, i1 false, i1 false, i32 0, i32 0, null, i32 256, i1 false, null, null, i32 0, metadata !89, i32 611} ; [ DW_TAG_subprogram ]
!846 = metadata !{i32 786453, i32 0, metadata !"", i32 0, i32 0, i64 0, i64 0, i64 0, i32 0, null, metadata !847, i32 0, i32 0} ; [ DW_TAG_subroutine_type ]
!847 = metadata !{null, metadata !821, metadata !67}
!848 = metadata !{i32 786478, i32 0, metadata !49, metadata !"precision", metadata !"precision", metadata !"_ZNKSt8ios_base9precisionEv", metadata !5, i32 622, metadata !849, i1 false, i1 false, i32 0, i32 0, null, i32 256, i1 false, null, null, i32 0, metadata !89, i32 622} ; [ DW_TAG_subprogram ]
!849 = metadata !{i32 786453, i32 0, metadata !"", i32 0, i32 0, i64 0, i64 0, i64 0, i32 0, null, metadata !850, i32 0, i32 0} ; [ DW_TAG_subroutine_type ]
!850 = metadata !{metadata !58, metadata !836}
!851 = metadata !{i32 786478, i32 0, metadata !49, metadata !"precision", metadata !"precision", metadata !"_ZNSt8ios_base9precisionEl", metadata !5, i32 631, metadata !852, i1 false, i1 false, i32 0, i32 0, null, i32 256, i1 false, null, null, i32 0, metadata !89, i32 631} ; [ DW_TAG_subprogram ]
!852 = metadata !{i32 786453, i32 0, metadata !"", i32 0, i32 0, i64 0, i64 0, i64 0, i32 0, null, metadata !853, i32 0, i32 0} ; [ DW_TAG_subroutine_type ]
!853 = metadata !{metadata !58, metadata !821, metadata !58}
!854 = metadata !{i32 786478, i32 0, metadata !49, metadata !"width", metadata !"width", metadata !"_ZNKSt8ios_base5widthEv", metadata !5, i32 645, metadata !849, i1 false, i1 false, i32 0, i32 0, null, i32 256, i1 false, null, null, i32 0, metadata !89, i32 645} ; [ DW_TAG_subprogram ]
!855 = metadata !{i32 786478, i32 0, metadata !49, metadata !"width", metadata !"width", metadata !"_ZNSt8ios_base5widthEl", metadata !5, i32 654, metadata !852, i1 false, i1 false, i32 0, i32 0, null, i32 256, i1 false, null, null, i32 0, metadata !89, i32 654} ; [ DW_TAG_subprogram ]
!856 = metadata !{i32 786478, i32 0, metadata !49, metadata !"sync_with_stdio", metadata !"sync_with_stdio", metadata !"_ZNSt8ios_base15sync_with_stdioEb", metadata !5, i32 673, metadata !857, i1 false, i1 false, i32 0, i32 0, null, i32 256, i1 false, null, null, i32 0, metadata !89, i32 673} ; [ DW_TAG_subprogram ]
!857 = metadata !{i32 786453, i32 0, metadata !"", i32 0, i32 0, i64 0, i64 0, i64 0, i32 0, null, metadata !858, i32 0, i32 0} ; [ DW_TAG_subroutine_type ]
!858 = metadata !{metadata !238, metadata !238}
!859 = metadata !{i32 786478, i32 0, metadata !49, metadata !"imbue", metadata !"imbue", metadata !"_ZNSt8ios_base5imbueERKSt6locale", metadata !5, i32 685, metadata !860, i1 false, i1 false, i32 0, i32 0, null, i32 256, i1 false, null, null, i32 0, metadata !89, i32 685} ; [ DW_TAG_subprogram ]
!860 = metadata !{i32 786453, i32 0, metadata !"", i32 0, i32 0, i64 0, i64 0, i64 0, i32 0, null, metadata !861, i32 0, i32 0} ; [ DW_TAG_subroutine_type ]
!861 = metadata !{metadata !115, metadata !821, metadata !287}
!862 = metadata !{i32 786478, i32 0, metadata !49, metadata !"getloc", metadata !"getloc", metadata !"_ZNKSt8ios_base6getlocEv", metadata !5, i32 696, metadata !863, i1 false, i1 false, i32 0, i32 0, null, i32 256, i1 false, null, null, i32 0, metadata !89, i32 696} ; [ DW_TAG_subprogram ]
!863 = metadata !{i32 786453, i32 0, metadata !"", i32 0, i32 0, i64 0, i64 0, i64 0, i32 0, null, metadata !864, i32 0, i32 0} ; [ DW_TAG_subroutine_type ]
!864 = metadata !{metadata !115, metadata !836}
!865 = metadata !{i32 786478, i32 0, metadata !49, metadata !"_M_getloc", metadata !"_M_getloc", metadata !"_ZNKSt8ios_base9_M_getlocEv", metadata !5, i32 707, metadata !866, i1 false, i1 false, i32 0, i32 0, null, i32 256, i1 false, null, null, i32 0, metadata !89, i32 707} ; [ DW_TAG_subprogram ]
!866 = metadata !{i32 786453, i32 0, metadata !"", i32 0, i32 0, i64 0, i64 0, i64 0, i32 0, null, metadata !867, i32 0, i32 0} ; [ DW_TAG_subroutine_type ]
!867 = metadata !{metadata !287, metadata !836}
!868 = metadata !{i32 786478, i32 0, metadata !49, metadata !"xalloc", metadata !"xalloc", metadata !"_ZNSt8ios_base6xallocEv", metadata !5, i32 726, metadata !54, i1 false, i1 false, i32 0, i32 0, null, i32 256, i1 false, null, null, i32 0, metadata !89, i32 726} ; [ DW_TAG_subprogram ]
!869 = metadata !{i32 786478, i32 0, metadata !49, metadata !"iword", metadata !"iword", metadata !"_ZNSt8ios_base5iwordEi", metadata !5, i32 742, metadata !870, i1 false, i1 false, i32 0, i32 0, null, i32 256, i1 false, null, null, i32 0, metadata !89, i32 742} ; [ DW_TAG_subprogram ]
!870 = metadata !{i32 786453, i32 0, metadata !"", i32 0, i32 0, i64 0, i64 0, i64 0, i32 0, null, metadata !871, i32 0, i32 0} ; [ DW_TAG_subroutine_type ]
!871 = metadata !{metadata !872, metadata !821, metadata !56}
!872 = metadata !{i32 786448, null, null, null, i32 0, i64 0, i64 0, i64 0, i32 0, metadata !64} ; [ DW_TAG_reference_type ]
!873 = metadata !{i32 786478, i32 0, metadata !49, metadata !"pword", metadata !"pword", metadata !"_ZNSt8ios_base5pwordEi", metadata !5, i32 763, metadata !874, i1 false, i1 false, i32 0, i32 0, null, i32 256, i1 false, null, null, i32 0, metadata !89, i32 763} ; [ DW_TAG_subprogram ]
!874 = metadata !{i32 786453, i32 0, metadata !"", i32 0, i32 0, i64 0, i64 0, i64 0, i32 0, null, metadata !875, i32 0, i32 0} ; [ DW_TAG_subroutine_type ]
!875 = metadata !{metadata !876, metadata !821, metadata !56}
!876 = metadata !{i32 786448, null, null, null, i32 0, i64 0, i64 0, i64 0, i32 0, metadata !101} ; [ DW_TAG_reference_type ]
!877 = metadata !{i32 786478, i32 0, metadata !49, metadata !"~ios_base", metadata !"~ios_base", metadata !"", metadata !5, i32 779, metadata !826, i1 false, i1 false, i32 1, i32 0, metadata !49, i32 256, i1 false, null, null, i32 0, metadata !89, i32 779} ; [ DW_TAG_subprogram ]
!878 = metadata !{i32 786478, i32 0, metadata !49, metadata !"ios_base", metadata !"ios_base", metadata !"", metadata !5, i32 782, metadata !826, i1 false, i1 false, i32 0, i32 0, null, i32 258, i1 false, null, null, i32 0, metadata !89, i32 782} ; [ DW_TAG_subprogram ]
!879 = metadata !{i32 786478, i32 0, metadata !49, metadata !"ios_base", metadata !"ios_base", metadata !"", metadata !5, i32 787, metadata !880, i1 false, i1 false, i32 0, i32 0, null, i32 257, i1 false, null, null, i32 0, metadata !89, i32 787} ; [ DW_TAG_subprogram ]
!880 = metadata !{i32 786453, i32 0, metadata !"", i32 0, i32 0, i64 0, i64 0, i64 0, i32 0, null, metadata !881, i32 0, i32 0} ; [ DW_TAG_subroutine_type ]
!881 = metadata !{null, metadata !821, metadata !882}
!882 = metadata !{i32 786448, null, null, null, i32 0, i64 0, i64 0, i64 0, i32 0, metadata !837} ; [ DW_TAG_reference_type ]
!883 = metadata !{i32 786478, i32 0, metadata !49, metadata !"operator=", metadata !"operator=", metadata !"_ZNSt8ios_baseaSERKS_", metadata !5, i32 790, metadata !884, i1 false, i1 false, i32 0, i32 0, null, i32 257, i1 false, null, null, i32 0, metadata !89, i32 790} ; [ DW_TAG_subprogram ]
!884 = metadata !{i32 786453, i32 0, metadata !"", i32 0, i32 0, i64 0, i64 0, i64 0, i32 0, null, metadata !885, i32 0, i32 0} ; [ DW_TAG_subroutine_type ]
!885 = metadata !{metadata !81, metadata !821, metadata !882}
!886 = metadata !{metadata !887, metadata !888, metadata !889}
!887 = metadata !{i32 786472, metadata !"erase_event", i64 0} ; [ DW_TAG_enumerator ]
!888 = metadata !{i32 786472, metadata !"imbue_event", i64 1} ; [ DW_TAG_enumerator ]
!889 = metadata !{i32 786472, metadata !"copyfmt_event", i64 2} ; [ DW_TAG_enumerator ]
!890 = metadata !{i32 786436, null, metadata !"BaseMode", metadata !891, i32 603, i64 5, i64 8, i32 0, i32 0, null, metadata !892, i32 0, i32 0} ; [ DW_TAG_enumeration_type ]
!891 = metadata !{i32 786473, metadata !"/opt/Xilinx/SDSoC/2014.4/Vivado_HLS/2014.4/common/technology/autopilot/ap_int_syn.h", metadata !"/home/trungnguyen/SDSoC/thesis/SDRelease/_sds/vhls", null} ; [ DW_TAG_file_type ]
!892 = metadata !{metadata !893, metadata !894, metadata !895, metadata !896}
!893 = metadata !{i32 786472, metadata !"SC_BIN", i64 2} ; [ DW_TAG_enumerator ]
!894 = metadata !{i32 786472, metadata !"SC_OCT", i64 8} ; [ DW_TAG_enumerator ]
!895 = metadata !{i32 786472, metadata !"SC_DEC", i64 10} ; [ DW_TAG_enumerator ]
!896 = metadata !{i32 786472, metadata !"SC_HEX", i64 16} ; [ DW_TAG_enumerator ]
!897 = metadata !{i32 786436, null, metadata !"ap_q_mode", metadata !891, i32 657, i64 3, i64 4, i32 0, i32 0, null, metadata !898, i32 0, i32 0} ; [ DW_TAG_enumeration_type ]
!898 = metadata !{metadata !899, metadata !900, metadata !901, metadata !902, metadata !903, metadata !904, metadata !905}
!899 = metadata !{i32 786472, metadata !"SC_RND", i64 0} ; [ DW_TAG_enumerator ]
!900 = metadata !{i32 786472, metadata !"SC_RND_ZERO", i64 1} ; [ DW_TAG_enumerator ]
!901 = metadata !{i32 786472, metadata !"SC_RND_MIN_INF", i64 2} ; [ DW_TAG_enumerator ]
!902 = metadata !{i32 786472, metadata !"SC_RND_INF", i64 3} ; [ DW_TAG_enumerator ]
!903 = metadata !{i32 786472, metadata !"SC_RND_CONV", i64 4} ; [ DW_TAG_enumerator ]
!904 = metadata !{i32 786472, metadata !"SC_TRN", i64 5} ; [ DW_TAG_enumerator ]
!905 = metadata !{i32 786472, metadata !"SC_TRN_ZERO", i64 6} ; [ DW_TAG_enumerator ]
!906 = metadata !{i32 786436, null, metadata !"ap_o_mode", metadata !891, i32 667, i64 3, i64 4, i32 0, i32 0, null, metadata !907, i32 0, i32 0} ; [ DW_TAG_enumeration_type ]
!907 = metadata !{metadata !908, metadata !909, metadata !910, metadata !911, metadata !912}
!908 = metadata !{i32 786472, metadata !"SC_SAT", i64 0} ; [ DW_TAG_enumerator ]
!909 = metadata !{i32 786472, metadata !"SC_SAT_ZERO", i64 1} ; [ DW_TAG_enumerator ]
!910 = metadata !{i32 786472, metadata !"SC_SAT_SYM", i64 2} ; [ DW_TAG_enumerator ]
!911 = metadata !{i32 786472, metadata !"SC_WRAP", i64 3} ; [ DW_TAG_enumerator ]
!912 = metadata !{i32 786472, metadata !"SC_WRAP_SM", i64 4} ; [ DW_TAG_enumerator ]
!913 = metadata !{i32 786436, metadata !914, metadata !"result", metadata !916, i32 49, i64 2, i64 2, i32 0, i32 0, null, metadata !918, i32 0, i32 0} ; [ DW_TAG_enumeration_type ]
!914 = metadata !{i32 786434, metadata !915, metadata !"codecvt_base", metadata !916, i32 46, i64 8, i64 8, i32 0, i32 0, null, metadata !917, i32 0, null, null} ; [ DW_TAG_class_type ]
!915 = metadata !{i32 786489, null, metadata !"std", metadata !916, i32 41} ; [ DW_TAG_namespace ]
!916 = metadata !{i32 786473, metadata !"/opt/Xilinx/SDSoC/2014.4/Vivado_HLS/2014.4/lnx64/tools/gcc/lib/gcc/x86_64-unknown-linux-gnu/4.6.3/../../../../include/c++/4.6.3/bits/codecvt.h", metadata !"/home/trungnguyen/SDSoC/thesis/SDRelease/_sds/vhls", null} ; [ DW_TAG_file_type ]
!917 = metadata !{i32 0}
!918 = metadata !{metadata !919, metadata !920, metadata !921, metadata !922}
!919 = metadata !{i32 786472, metadata !"ok", i64 0} ; [ DW_TAG_enumerator ]
!920 = metadata !{i32 786472, metadata !"partial", i64 1} ; [ DW_TAG_enumerator ]
!921 = metadata !{i32 786472, metadata !"error", i64 2} ; [ DW_TAG_enumerator ]
!922 = metadata !{i32 786472, metadata !"noconv", i64 3} ; [ DW_TAG_enumerator ]
!923 = metadata !{metadata !917}
!924 = metadata !{metadata !925}
!925 = metadata !{metadata !926, metadata !932, metadata !1295, metadata !1296, metadata !1297, metadata !5782, metadata !5783, metadata !5784, metadata !5785, metadata !5791, metadata !5792, metadata !5793, metadata !5794, metadata !5795, metadata !5796, metadata !5797, metadata !5798, metadata !5799, metadata !5800, metadata !5801, metadata !5802, metadata !5803, metadata !5804, metadata !5805, metadata !5806, metadata !5807, metadata !5808, metadata !5809, metadata !5810, metadata !5811, metadata !5812, metadata !5813, metadata !5814, metadata !5815, metadata !6154, metadata !6155, metadata !6156, metadata !6157, metadata !6158, metadata !6759, metadata !6760, metadata !6761, metadata !6762, metadata !6763, metadata !7105, metadata !7106, metadata !7107, metadata !7108, metadata !7450, metadata !7451, metadata !7452, metadata !7453, metadata !7528, metadata !7529, metadata !7530, metadata !7531, metadata !7532, metadata !7533, metadata !7534, metadata !7535, metadata !7536, metadata !7537, metadata !7876, metadata !7877, metadata !7878, metadata !7879, metadata !8222, metadata !8223, metadata !8224, metadata !8225, metadata !8568, metadata !8569, metadata !8570, metadata !8571, metadata !8914, metadata !8915, metadata !8916, metadata !8917, metadata !9534, metadata !9535, metadata !9536, metadata !9537, metadata !10125, metadata !10126, metadata !10127, metadata !10423, metadata !10424, metadata !10425, metadata !10778, metadata !10779, metadata !10780, metadata !10781, metadata !11093, metadata !11094, metadata !11095, metadata !11096, metadata !11473, metadata !11474, metadata !11475, metadata !11476, metadata !12306, metadata !12307, metadata !12308, metadata !12309, metadata !12605, metadata !12606, metadata !12607, metadata !12608, metadata !12609, metadata !12610, metadata !12611, metadata !12618, metadata !12619}
!926 = metadata !{i32 786478, i32 0, metadata !927, metadata !"correlation_accel_v1", metadata !"correlation_accel_v1", metadata !"_Z20correlation_accel_v1iiPfS_", metadata !927, i32 25, metadata !928, i1 false, i1 true, i32 0, i32 0, null, i32 256, i1 false, i32 (i32, i32, float*, float*)* @correlation_accel_v1, null, null, metadata !89, i32 32} ; [ DW_TAG_subprogram ]
!927 = metadata !{i32 786473, metadata !"/home/trungnguyen/SDSoC/thesis/SDRelease/_sds/vhls/src/correlation_accel_v1.cpp", metadata !"/home/trungnguyen/SDSoC/thesis/SDRelease/_sds/vhls", null} ; [ DW_TAG_file_type ]
!928 = metadata !{i32 786453, i32 0, metadata !"", i32 0, i32 0, i64 0, i64 0, i64 0, i32 0, null, metadata !929, i32 0, i32 0} ; [ DW_TAG_subroutine_type ]
!929 = metadata !{metadata !56, metadata !56, metadata !56, metadata !930, metadata !930}
!930 = metadata !{i32 786447, null, metadata !"", null, i32 0, i64 64, i64 64, i64 0, i32 0, metadata !931} ; [ DW_TAG_pointer_type ]
!931 = metadata !{i32 786468, null, metadata !"float", null, i32 0, i64 32, i64 32, i64 0, i32 0, i32 4} ; [ DW_TAG_base_type ]
!932 = metadata !{i32 786478, i32 0, null, metadata !"ap_fixed", metadata !"ap_fixed", metadata !"_ZN8ap_fixedILi15ELi0EL9ap_q_mode5EL9ap_o_mode3ELi0EEC1Ed", metadata !933, i32 374, metadata !934, i1 false, i1 true, i32 0, i32 0, null, i32 256, i1 false, null, null, metadata !1274, metadata !89, i32 374} ; [ DW_TAG_subprogram ]
!933 = metadata !{i32 786473, metadata !"/opt/Xilinx/SDSoC/2014.4/Vivado_HLS/2014.4/common/technology/autopilot/ap_int.h", metadata !"/home/trungnguyen/SDSoC/thesis/SDRelease/_sds/vhls", null} ; [ DW_TAG_file_type ]
!934 = metadata !{i32 786453, i32 0, metadata !"", i32 0, i32 0, i64 0, i64 0, i64 0, i32 0, null, metadata !935, i32 0, i32 0} ; [ DW_TAG_subroutine_type ]
!935 = metadata !{null, metadata !936, metadata !1038}
!936 = metadata !{i32 786447, i32 0, metadata !"", i32 0, i32 0, i64 64, i64 64, i64 0, i32 64, metadata !937} ; [ DW_TAG_pointer_type ]
!937 = metadata !{i32 786434, null, metadata !"ap_fixed<15, 0, 5, 3, 0>", metadata !933, i32 287, i64 16, i64 16, i32 0, i32 0, null, metadata !938, i32 0, null, metadata !1294} ; [ DW_TAG_class_type ]
!938 = metadata !{metadata !939, metadata !1225, metadata !1228, metadata !1234, metadata !1235, metadata !1238, metadata !1241, metadata !1244, metadata !1247, metadata !1250, metadata !1253, metadata !1256, metadata !1259, metadata !1262, metadata !1265, metadata !1268, metadata !1271, metadata !1274, metadata !1275, metadata !1278, metadata !1281, metadata !1285, metadata !1286, metadata !1291, metadata !1292, metadata !1293}
!939 = metadata !{i32 786460, metadata !937, null, metadata !933, i32 0, i64 0, i64 0, i64 0, i32 0, metadata !940} ; [ DW_TAG_inheritance ]
!940 = metadata !{i32 786434, null, metadata !"ap_fixed_base<15, 0, true, 5, 3, 0>", metadata !941, i32 510, i64 16, i64 16, i32 0, i32 0, null, metadata !942, i32 0, null, metadata !1219} ; [ DW_TAG_class_type ]
!941 = metadata !{i32 786473, metadata !"/opt/Xilinx/SDSoC/2014.4/Vivado_HLS/2014.4/common/technology/autopilot/ap_fixed_syn.h", metadata !"/home/trungnguyen/SDSoC/thesis/SDRelease/_sds/vhls", null} ; [ DW_TAG_file_type ]
!942 = metadata !{metadata !943, metadata !961, metadata !965, metadata !968, metadata !971, metadata !983, metadata !984, metadata !987, metadata !990, metadata !994, metadata !998, metadata !1002, metadata !1005, metadata !1008, metadata !1012, metadata !1015, metadata !1018, metadata !1023, metadata !1028, metadata !1031, metadata !1034, metadata !1039, metadata !1042, metadata !1045, metadata !1048, metadata !1051, metadata !1055, metadata !1056, metadata !1061, metadata !1062, metadata !1065, metadata !1068, metadata !1072, metadata !1075, metadata !1078, metadata !1081, metadata !1084, metadata !1087, metadata !1090, metadata !1091, metadata !1092, metadata !1095, metadata !1098, metadata !1101, metadata !1104, metadata !1107, metadata !1108, metadata !1109, metadata !1112, metadata !1115, metadata !1118, metadata !1121, metadata !1122, metadata !1125, metadata !1128, metadata !1129, metadata !1132, metadata !1133, metadata !1136, metadata !1140, metadata !1141, metadata !1144, metadata !1147, metadata !1150, metadata !1153, metadata !1154, metadata !1155, metadata !1158, metadata !1161, metadata !1162, metadata !1163, metadata !1166, metadata !1167, metadata !1168, metadata !1169, metadata !1170, metadata !1171, metadata !1175, metadata !1178, metadata !1179, metadata !1180, metadata !1183, metadata !1186, metadata !1190, metadata !1191, metadata !1194, metadata !1195, metadata !1198, metadata !1201, metadata !1202, metadata !1203, metadata !1204, metadata !1205, metadata !1208, metadata !1211, metadata !1212, metadata !1215, metadata !1218}
!943 = metadata !{i32 786460, metadata !940, null, metadata !941, i32 0, i64 0, i64 0, i64 0, i32 0, metadata !944} ; [ DW_TAG_inheritance ]
!944 = metadata !{i32 786434, null, metadata !"ssdm_int<15 + 1024 * 0, true>", metadata !945, i32 17, i64 16, i64 16, i32 0, i32 0, null, metadata !946, i32 0, null, metadata !958} ; [ DW_TAG_class_type ]
!945 = metadata !{i32 786473, metadata !"/opt/Xilinx/SDSoC/2014.4/Vivado_HLS/2014.4/common/technology/autopilot/etc/autopilot_dt.def", metadata !"/home/trungnguyen/SDSoC/thesis/SDRelease/_sds/vhls", null} ; [ DW_TAG_file_type ]
!946 = metadata !{metadata !947, metadata !949, metadata !953}
!947 = metadata !{i32 786445, metadata !944, metadata !"V", metadata !945, i32 17, i64 15, i64 16, i64 0, i32 0, metadata !948} ; [ DW_TAG_member ]
!948 = metadata !{i32 786468, null, metadata !"int15", null, i32 0, i64 15, i64 16, i64 0, i32 0, i32 5} ; [ DW_TAG_base_type ]
!949 = metadata !{i32 786478, i32 0, metadata !944, metadata !"ssdm_int", metadata !"ssdm_int", metadata !"", metadata !945, i32 17, metadata !950, i1 false, i1 false, i32 0, i32 0, null, i32 256, i1 false, null, null, i32 0, metadata !89, i32 17} ; [ DW_TAG_subprogram ]
!950 = metadata !{i32 786453, i32 0, metadata !"", i32 0, i32 0, i64 0, i64 0, i64 0, i32 0, null, metadata !951, i32 0, i32 0} ; [ DW_TAG_subroutine_type ]
!951 = metadata !{null, metadata !952}
!952 = metadata !{i32 786447, i32 0, metadata !"", i32 0, i32 0, i64 64, i64 64, i64 0, i32 64, metadata !944} ; [ DW_TAG_pointer_type ]
!953 = metadata !{i32 786478, i32 0, metadata !944, metadata !"ssdm_int", metadata !"ssdm_int", metadata !"", metadata !945, i32 17, metadata !954, i1 false, i1 false, i32 0, i32 0, null, i32 320, i1 false, null, null, i32 0, metadata !89, i32 17} ; [ DW_TAG_subprogram ]
!954 = metadata !{i32 786453, i32 0, metadata !"", i32 0, i32 0, i64 0, i64 0, i64 0, i32 0, null, metadata !955, i32 0, i32 0} ; [ DW_TAG_subroutine_type ]
!955 = metadata !{null, metadata !952, metadata !956}
!956 = metadata !{i32 786448, null, null, null, i32 0, i64 0, i64 0, i64 0, i32 0, metadata !957} ; [ DW_TAG_reference_type ]
!957 = metadata !{i32 786470, null, metadata !"", null, i32 0, i64 0, i64 0, i64 0, i32 0, metadata !944} ; [ DW_TAG_const_type ]
!958 = metadata !{metadata !959, metadata !960}
!959 = metadata !{i32 786480, null, metadata !"_AP_N", metadata !56, i64 15, null, i32 0, i32 0} ; [ DW_TAG_template_value_parameter ]
!960 = metadata !{i32 786480, null, metadata !"_AP_S", metadata !238, i64 1, null, i32 0, i32 0} ; [ DW_TAG_template_value_parameter ]
!961 = metadata !{i32 786478, i32 0, metadata !940, metadata !"overflow_adjust", metadata !"overflow_adjust", metadata !"_ZN13ap_fixed_baseILi15ELi0ELb1EL9ap_q_mode5EL9ap_o_mode3ELi0EE15overflow_adjustEbbbb", metadata !941, i32 520, metadata !962, i1 false, i1 false, i32 0, i32 0, null, i32 256, i1 false, null, null, i32 0, metadata !89, i32 520} ; [ DW_TAG_subprogram ]
!962 = metadata !{i32 786453, i32 0, metadata !"", i32 0, i32 0, i64 0, i64 0, i64 0, i32 0, null, metadata !963, i32 0, i32 0} ; [ DW_TAG_subroutine_type ]
!963 = metadata !{null, metadata !964, metadata !238, metadata !238, metadata !238, metadata !238}
!964 = metadata !{i32 786447, i32 0, metadata !"", i32 0, i32 0, i64 64, i64 64, i64 0, i32 64, metadata !940} ; [ DW_TAG_pointer_type ]
!965 = metadata !{i32 786478, i32 0, metadata !940, metadata !"quantization_adjust", metadata !"quantization_adjust", metadata !"_ZN13ap_fixed_baseILi15ELi0ELb1EL9ap_q_mode5EL9ap_o_mode3ELi0EE19quantization_adjustEbbb", metadata !941, i32 593, metadata !966, i1 false, i1 false, i32 0, i32 0, null, i32 256, i1 false, null, null, i32 0, metadata !89, i32 593} ; [ DW_TAG_subprogram ]
!966 = metadata !{i32 786453, i32 0, metadata !"", i32 0, i32 0, i64 0, i64 0, i64 0, i32 0, null, metadata !967, i32 0, i32 0} ; [ DW_TAG_subroutine_type ]
!967 = metadata !{metadata !238, metadata !964, metadata !238, metadata !238, metadata !238}
!968 = metadata !{i32 786478, i32 0, metadata !940, metadata !"ap_fixed_base", metadata !"ap_fixed_base", metadata !"", metadata !941, i32 651, metadata !969, i1 false, i1 false, i32 0, i32 0, null, i32 256, i1 false, null, null, i32 0, metadata !89, i32 651} ; [ DW_TAG_subprogram ]
!969 = metadata !{i32 786453, i32 0, metadata !"", i32 0, i32 0, i64 0, i64 0, i64 0, i32 0, null, metadata !970, i32 0, i32 0} ; [ DW_TAG_subroutine_type ]
!970 = metadata !{null, metadata !964}
!971 = metadata !{i32 786478, i32 0, metadata !940, metadata !"ap_fixed_base<15, 0, true, 5, 3, 0>", metadata !"ap_fixed_base<15, 0, true, 5, 3, 0>", metadata !"", metadata !941, i32 661, metadata !972, i1 false, i1 false, i32 0, i32 0, null, i32 256, i1 false, null, metadata !976, i32 0, metadata !89, i32 661} ; [ DW_TAG_subprogram ]
!972 = metadata !{i32 786453, i32 0, metadata !"", i32 0, i32 0, i64 0, i64 0, i64 0, i32 0, null, metadata !973, i32 0, i32 0} ; [ DW_TAG_subroutine_type ]
!973 = metadata !{null, metadata !964, metadata !974}
!974 = metadata !{i32 786448, null, null, null, i32 0, i64 0, i64 0, i64 0, i32 0, metadata !975} ; [ DW_TAG_reference_type ]
!975 = metadata !{i32 786470, null, metadata !"", null, i32 0, i64 0, i64 0, i64 0, i32 0, metadata !940} ; [ DW_TAG_const_type ]
!976 = metadata !{metadata !977, metadata !978, metadata !979, metadata !980, metadata !981, metadata !982}
!977 = metadata !{i32 786480, null, metadata !"_AP_W2", metadata !56, i64 15, null, i32 0, i32 0} ; [ DW_TAG_template_value_parameter ]
!978 = metadata !{i32 786480, null, metadata !"_AP_I2", metadata !56, i64 0, null, i32 0, i32 0} ; [ DW_TAG_template_value_parameter ]
!979 = metadata !{i32 786480, null, metadata !"_AP_S2", metadata !238, i64 1, null, i32 0, i32 0} ; [ DW_TAG_template_value_parameter ]
!980 = metadata !{i32 786480, null, metadata !"_AP_Q2", metadata !897, i64 5, null, i32 0, i32 0} ; [ DW_TAG_template_value_parameter ]
!981 = metadata !{i32 786480, null, metadata !"_AP_O2", metadata !906, i64 3, null, i32 0, i32 0} ; [ DW_TAG_template_value_parameter ]
!982 = metadata !{i32 786480, null, metadata !"_AP_N2", metadata !56, i64 0, null, i32 0, i32 0} ; [ DW_TAG_template_value_parameter ]
!983 = metadata !{i32 786478, i32 0, metadata !940, metadata !"ap_fixed_base<15, 0, true, 5, 3, 0>", metadata !"ap_fixed_base<15, 0, true, 5, 3, 0>", metadata !"", metadata !941, i32 775, metadata !972, i1 false, i1 false, i32 0, i32 0, null, i32 256, i1 false, null, metadata !976, i32 0, metadata !89, i32 775} ; [ DW_TAG_subprogram ]
!984 = metadata !{i32 786478, i32 0, metadata !940, metadata !"ap_fixed_base", metadata !"ap_fixed_base", metadata !"", metadata !941, i32 787, metadata !985, i1 false, i1 false, i32 0, i32 0, null, i32 256, i1 false, null, null, i32 0, metadata !89, i32 787} ; [ DW_TAG_subprogram ]
!985 = metadata !{i32 786453, i32 0, metadata !"", i32 0, i32 0, i64 0, i64 0, i64 0, i32 0, null, metadata !986, i32 0, i32 0} ; [ DW_TAG_subroutine_type ]
!986 = metadata !{null, metadata !964, metadata !238}
!987 = metadata !{i32 786478, i32 0, metadata !940, metadata !"ap_fixed_base", metadata !"ap_fixed_base", metadata !"", metadata !941, i32 788, metadata !988, i1 false, i1 false, i32 0, i32 0, null, i32 256, i1 false, null, null, i32 0, metadata !89, i32 788} ; [ DW_TAG_subprogram ]
!988 = metadata !{i32 786453, i32 0, metadata !"", i32 0, i32 0, i64 0, i64 0, i64 0, i32 0, null, metadata !989, i32 0, i32 0} ; [ DW_TAG_subroutine_type ]
!989 = metadata !{null, metadata !964, metadata !174}
!990 = metadata !{i32 786478, i32 0, metadata !940, metadata !"ap_fixed_base", metadata !"ap_fixed_base", metadata !"", metadata !941, i32 789, metadata !991, i1 false, i1 false, i32 0, i32 0, null, i32 256, i1 false, null, null, i32 0, metadata !89, i32 789} ; [ DW_TAG_subprogram ]
!991 = metadata !{i32 786453, i32 0, metadata !"", i32 0, i32 0, i64 0, i64 0, i64 0, i32 0, null, metadata !992, i32 0, i32 0} ; [ DW_TAG_subroutine_type ]
!992 = metadata !{null, metadata !964, metadata !993}
!993 = metadata !{i32 786468, null, metadata !"signed char", null, i32 0, i64 8, i64 8, i64 0, i32 0, i32 6} ; [ DW_TAG_base_type ]
!994 = metadata !{i32 786478, i32 0, metadata !940, metadata !"ap_fixed_base", metadata !"ap_fixed_base", metadata !"", metadata !941, i32 790, metadata !995, i1 false, i1 false, i32 0, i32 0, null, i32 256, i1 false, null, null, i32 0, metadata !89, i32 790} ; [ DW_TAG_subprogram ]
!995 = metadata !{i32 786453, i32 0, metadata !"", i32 0, i32 0, i64 0, i64 0, i64 0, i32 0, null, metadata !996, i32 0, i32 0} ; [ DW_TAG_subroutine_type ]
!996 = metadata !{null, metadata !964, metadata !997}
!997 = metadata !{i32 786468, null, metadata !"unsigned char", null, i32 0, i64 8, i64 8, i64 0, i32 0, i32 8} ; [ DW_TAG_base_type ]
!998 = metadata !{i32 786478, i32 0, metadata !940, metadata !"ap_fixed_base", metadata !"ap_fixed_base", metadata !"", metadata !941, i32 791, metadata !999, i1 false, i1 false, i32 0, i32 0, null, i32 256, i1 false, null, null, i32 0, metadata !89, i32 791} ; [ DW_TAG_subprogram ]
!999 = metadata !{i32 786453, i32 0, metadata !"", i32 0, i32 0, i64 0, i64 0, i64 0, i32 0, null, metadata !1000, i32 0, i32 0} ; [ DW_TAG_subroutine_type ]
!1000 = metadata !{null, metadata !964, metadata !1001}
!1001 = metadata !{i32 786468, null, metadata !"short", null, i32 0, i64 16, i64 16, i64 0, i32 0, i32 5} ; [ DW_TAG_base_type ]
!1002 = metadata !{i32 786478, i32 0, metadata !940, metadata !"ap_fixed_base", metadata !"ap_fixed_base", metadata !"", metadata !941, i32 792, metadata !1003, i1 false, i1 false, i32 0, i32 0, null, i32 256, i1 false, null, null, i32 0, metadata !89, i32 792} ; [ DW_TAG_subprogram ]
!1003 = metadata !{i32 786453, i32 0, metadata !"", i32 0, i32 0, i64 0, i64 0, i64 0, i32 0, null, metadata !1004, i32 0, i32 0} ; [ DW_TAG_subroutine_type ]
!1004 = metadata !{null, metadata !964, metadata !165}
!1005 = metadata !{i32 786478, i32 0, metadata !940, metadata !"ap_fixed_base", metadata !"ap_fixed_base", metadata !"", metadata !941, i32 793, metadata !1006, i1 false, i1 false, i32 0, i32 0, null, i32 256, i1 false, null, null, i32 0, metadata !89, i32 793} ; [ DW_TAG_subprogram ]
!1006 = metadata !{i32 786453, i32 0, metadata !"", i32 0, i32 0, i64 0, i64 0, i64 0, i32 0, null, metadata !1007, i32 0, i32 0} ; [ DW_TAG_subroutine_type ]
!1007 = metadata !{null, metadata !964, metadata !56}
!1008 = metadata !{i32 786478, i32 0, metadata !940, metadata !"ap_fixed_base", metadata !"ap_fixed_base", metadata !"", metadata !941, i32 794, metadata !1009, i1 false, i1 false, i32 0, i32 0, null, i32 256, i1 false, null, null, i32 0, metadata !89, i32 794} ; [ DW_TAG_subprogram ]
!1009 = metadata !{i32 786453, i32 0, metadata !"", i32 0, i32 0, i64 0, i64 0, i64 0, i32 0, null, metadata !1010, i32 0, i32 0} ; [ DW_TAG_subroutine_type ]
!1010 = metadata !{null, metadata !964, metadata !1011}
!1011 = metadata !{i32 786468, null, metadata !"unsigned int", null, i32 0, i64 32, i64 32, i64 0, i32 0, i32 7} ; [ DW_TAG_base_type ]
!1012 = metadata !{i32 786478, i32 0, metadata !940, metadata !"ap_fixed_base", metadata !"ap_fixed_base", metadata !"", metadata !941, i32 796, metadata !1013, i1 false, i1 false, i32 0, i32 0, null, i32 256, i1 false, null, null, i32 0, metadata !89, i32 796} ; [ DW_TAG_subprogram ]
!1013 = metadata !{i32 786453, i32 0, metadata !"", i32 0, i32 0, i64 0, i64 0, i64 0, i32 0, null, metadata !1014, i32 0, i32 0} ; [ DW_TAG_subroutine_type ]
!1014 = metadata !{null, metadata !964, metadata !64}
!1015 = metadata !{i32 786478, i32 0, metadata !940, metadata !"ap_fixed_base", metadata !"ap_fixed_base", metadata !"", metadata !941, i32 797, metadata !1016, i1 false, i1 false, i32 0, i32 0, null, i32 256, i1 false, null, null, i32 0, metadata !89, i32 797} ; [ DW_TAG_subprogram ]
!1016 = metadata !{i32 786453, i32 0, metadata !"", i32 0, i32 0, i64 0, i64 0, i64 0, i32 0, null, metadata !1017, i32 0, i32 0} ; [ DW_TAG_subroutine_type ]
!1017 = metadata !{null, metadata !964, metadata !140}
!1018 = metadata !{i32 786478, i32 0, metadata !940, metadata !"ap_fixed_base", metadata !"ap_fixed_base", metadata !"", metadata !941, i32 802, metadata !1019, i1 false, i1 false, i32 0, i32 0, null, i32 256, i1 false, null, null, i32 0, metadata !89, i32 802} ; [ DW_TAG_subprogram ]
!1019 = metadata !{i32 786453, i32 0, metadata !"", i32 0, i32 0, i64 0, i64 0, i64 0, i32 0, null, metadata !1020, i32 0, i32 0} ; [ DW_TAG_subroutine_type ]
!1020 = metadata !{null, metadata !964, metadata !1021}
!1021 = metadata !{i32 786454, null, metadata !"ap_slong", metadata !891, i32 112, i64 0, i64 0, i64 0, i32 0, metadata !1022} ; [ DW_TAG_typedef ]
!1022 = metadata !{i32 786468, null, metadata !"long long int", null, i32 0, i64 64, i64 64, i64 0, i32 0, i32 5} ; [ DW_TAG_base_type ]
!1023 = metadata !{i32 786478, i32 0, metadata !940, metadata !"ap_fixed_base", metadata !"ap_fixed_base", metadata !"", metadata !941, i32 803, metadata !1024, i1 false, i1 false, i32 0, i32 0, null, i32 256, i1 false, null, null, i32 0, metadata !89, i32 803} ; [ DW_TAG_subprogram ]
!1024 = metadata !{i32 786453, i32 0, metadata !"", i32 0, i32 0, i64 0, i64 0, i64 0, i32 0, null, metadata !1025, i32 0, i32 0} ; [ DW_TAG_subroutine_type ]
!1025 = metadata !{null, metadata !964, metadata !1026}
!1026 = metadata !{i32 786454, null, metadata !"ap_ulong", metadata !891, i32 111, i64 0, i64 0, i64 0, i32 0, metadata !1027} ; [ DW_TAG_typedef ]
!1027 = metadata !{i32 786468, null, metadata !"long long unsigned int", null, i32 0, i64 64, i64 64, i64 0, i32 0, i32 7} ; [ DW_TAG_base_type ]
!1028 = metadata !{i32 786478, i32 0, metadata !940, metadata !"ap_fixed_base", metadata !"ap_fixed_base", metadata !"", metadata !941, i32 804, metadata !1029, i1 false, i1 false, i32 0, i32 0, null, i32 256, i1 false, null, null, i32 0, metadata !89, i32 804} ; [ DW_TAG_subprogram ]
!1029 = metadata !{i32 786453, i32 0, metadata !"", i32 0, i32 0, i64 0, i64 0, i64 0, i32 0, null, metadata !1030, i32 0, i32 0} ; [ DW_TAG_subroutine_type ]
!1030 = metadata !{null, metadata !964, metadata !172}
!1031 = metadata !{i32 786478, i32 0, metadata !940, metadata !"ap_fixed_base", metadata !"ap_fixed_base", metadata !"", metadata !941, i32 811, metadata !1032, i1 false, i1 false, i32 0, i32 0, null, i32 256, i1 false, null, null, i32 0, metadata !89, i32 811} ; [ DW_TAG_subprogram ]
!1032 = metadata !{i32 786453, i32 0, metadata !"", i32 0, i32 0, i64 0, i64 0, i64 0, i32 0, null, metadata !1033, i32 0, i32 0} ; [ DW_TAG_subroutine_type ]
!1033 = metadata !{null, metadata !964, metadata !172, metadata !993}
!1034 = metadata !{i32 786478, i32 0, metadata !940, metadata !"doubleToRawBits", metadata !"doubleToRawBits", metadata !"_ZNK13ap_fixed_baseILi15ELi0ELb1EL9ap_q_mode5EL9ap_o_mode3ELi0EE15doubleToRawBitsEd", metadata !941, i32 847, metadata !1035, i1 false, i1 false, i32 0, i32 0, null, i32 256, i1 false, null, null, i32 0, metadata !89, i32 847} ; [ DW_TAG_subprogram ]
!1035 = metadata !{i32 786453, i32 0, metadata !"", i32 0, i32 0, i64 0, i64 0, i64 0, i32 0, null, metadata !1036, i32 0, i32 0} ; [ DW_TAG_subroutine_type ]
!1036 = metadata !{metadata !1027, metadata !1037, metadata !1038}
!1037 = metadata !{i32 786447, i32 0, metadata !"", i32 0, i32 0, i64 64, i64 64, i64 0, i32 64, metadata !975} ; [ DW_TAG_pointer_type ]
!1038 = metadata !{i32 786468, null, metadata !"double", null, i32 0, i64 64, i64 64, i64 0, i32 0, i32 4} ; [ DW_TAG_base_type ]
!1039 = metadata !{i32 786478, i32 0, metadata !940, metadata !"floatToRawBits", metadata !"floatToRawBits", metadata !"_ZNK13ap_fixed_baseILi15ELi0ELb1EL9ap_q_mode5EL9ap_o_mode3ELi0EE14floatToRawBitsEf", metadata !941, i32 855, metadata !1040, i1 false, i1 false, i32 0, i32 0, null, i32 256, i1 false, null, null, i32 0, metadata !89, i32 855} ; [ DW_TAG_subprogram ]
!1040 = metadata !{i32 786453, i32 0, metadata !"", i32 0, i32 0, i64 0, i64 0, i64 0, i32 0, null, metadata !1041, i32 0, i32 0} ; [ DW_TAG_subroutine_type ]
!1041 = metadata !{metadata !1011, metadata !1037, metadata !931}
!1042 = metadata !{i32 786478, i32 0, metadata !940, metadata !"rawBitsToDouble", metadata !"rawBitsToDouble", metadata !"_ZNK13ap_fixed_baseILi15ELi0ELb1EL9ap_q_mode5EL9ap_o_mode3ELi0EE15rawBitsToDoubleEy", metadata !941, i32 864, metadata !1043, i1 false, i1 false, i32 0, i32 0, null, i32 256, i1 false, null, null, i32 0, metadata !89, i32 864} ; [ DW_TAG_subprogram ]
!1043 = metadata !{i32 786453, i32 0, metadata !"", i32 0, i32 0, i64 0, i64 0, i64 0, i32 0, null, metadata !1044, i32 0, i32 0} ; [ DW_TAG_subroutine_type ]
!1044 = metadata !{metadata !1038, metadata !1037, metadata !1027}
!1045 = metadata !{i32 786478, i32 0, metadata !940, metadata !"rawBitsToFloat", metadata !"rawBitsToFloat", metadata !"_ZNK13ap_fixed_baseILi15ELi0ELb1EL9ap_q_mode5EL9ap_o_mode3ELi0EE14rawBitsToFloatEj", metadata !941, i32 873, metadata !1046, i1 false, i1 false, i32 0, i32 0, null, i32 256, i1 false, null, null, i32 0, metadata !89, i32 873} ; [ DW_TAG_subprogram ]
!1046 = metadata !{i32 786453, i32 0, metadata !"", i32 0, i32 0, i64 0, i64 0, i64 0, i32 0, null, metadata !1047, i32 0, i32 0} ; [ DW_TAG_subroutine_type ]
!1047 = metadata !{metadata !931, metadata !1037, metadata !1011}
!1048 = metadata !{i32 786478, i32 0, metadata !940, metadata !"ap_fixed_base", metadata !"ap_fixed_base", metadata !"", metadata !941, i32 882, metadata !1049, i1 false, i1 false, i32 0, i32 0, null, i32 256, i1 false, null, null, i32 0, metadata !89, i32 882} ; [ DW_TAG_subprogram ]
!1049 = metadata !{i32 786453, i32 0, metadata !"", i32 0, i32 0, i64 0, i64 0, i64 0, i32 0, null, metadata !1050, i32 0, i32 0} ; [ DW_TAG_subroutine_type ]
!1050 = metadata !{null, metadata !964, metadata !1038}
!1051 = metadata !{i32 786478, i32 0, metadata !940, metadata !"operator=", metadata !"operator=", metadata !"_ZN13ap_fixed_baseILi15ELi0ELb1EL9ap_q_mode5EL9ap_o_mode3ELi0EEaSERKS2_", metadata !941, i32 995, metadata !1052, i1 false, i1 false, i32 0, i32 0, null, i32 256, i1 false, null, null, i32 0, metadata !89, i32 995} ; [ DW_TAG_subprogram ]
!1052 = metadata !{i32 786453, i32 0, metadata !"", i32 0, i32 0, i64 0, i64 0, i64 0, i32 0, null, metadata !1053, i32 0, i32 0} ; [ DW_TAG_subroutine_type ]
!1053 = metadata !{metadata !1054, metadata !964, metadata !974}
!1054 = metadata !{i32 786448, null, null, null, i32 0, i64 0, i64 0, i64 0, i32 0, metadata !940} ; [ DW_TAG_reference_type ]
!1055 = metadata !{i32 786478, i32 0, metadata !940, metadata !"operator=", metadata !"operator=", metadata !"_ZN13ap_fixed_baseILi15ELi0ELb1EL9ap_q_mode5EL9ap_o_mode3ELi0EEaSERVKS2_", metadata !941, i32 1002, metadata !1052, i1 false, i1 false, i32 0, i32 0, null, i32 256, i1 false, null, null, i32 0, metadata !89, i32 1002} ; [ DW_TAG_subprogram ]
!1056 = metadata !{i32 786478, i32 0, metadata !940, metadata !"operator=", metadata !"operator=", metadata !"_ZNV13ap_fixed_baseILi15ELi0ELb1EL9ap_q_mode5EL9ap_o_mode3ELi0EEaSERKS2_", metadata !941, i32 1009, metadata !1057, i1 false, i1 false, i32 0, i32 0, null, i32 256, i1 false, null, null, i32 0, metadata !89, i32 1009} ; [ DW_TAG_subprogram ]
!1057 = metadata !{i32 786453, i32 0, metadata !"", i32 0, i32 0, i64 0, i64 0, i64 0, i32 0, null, metadata !1058, i32 0, i32 0} ; [ DW_TAG_subroutine_type ]
!1058 = metadata !{null, metadata !1059, metadata !974}
!1059 = metadata !{i32 786447, i32 0, metadata !"", i32 0, i32 0, i64 64, i64 64, i64 0, i32 64, metadata !1060} ; [ DW_TAG_pointer_type ]
!1060 = metadata !{i32 786485, null, metadata !"", null, i32 0, i64 0, i64 0, i64 0, i32 0, metadata !940} ; [ DW_TAG_volatile_type ]
!1061 = metadata !{i32 786478, i32 0, metadata !940, metadata !"operator=", metadata !"operator=", metadata !"_ZNV13ap_fixed_baseILi15ELi0ELb1EL9ap_q_mode5EL9ap_o_mode3ELi0EEaSERVKS2_", metadata !941, i32 1015, metadata !1057, i1 false, i1 false, i32 0, i32 0, null, i32 256, i1 false, null, null, i32 0, metadata !89, i32 1015} ; [ DW_TAG_subprogram ]
!1062 = metadata !{i32 786478, i32 0, metadata !940, metadata !"setBits", metadata !"setBits", metadata !"_ZN13ap_fixed_baseILi15ELi0ELb1EL9ap_q_mode5EL9ap_o_mode3ELi0EE7setBitsEy", metadata !941, i32 1024, metadata !1063, i1 false, i1 false, i32 0, i32 0, null, i32 256, i1 false, null, null, i32 0, metadata !89, i32 1024} ; [ DW_TAG_subprogram ]
!1063 = metadata !{i32 786453, i32 0, metadata !"", i32 0, i32 0, i64 0, i64 0, i64 0, i32 0, null, metadata !1064, i32 0, i32 0} ; [ DW_TAG_subroutine_type ]
!1064 = metadata !{metadata !1054, metadata !964, metadata !1027}
!1065 = metadata !{i32 786478, i32 0, metadata !940, metadata !"bitsToFixed", metadata !"bitsToFixed", metadata !"_ZN13ap_fixed_baseILi15ELi0ELb1EL9ap_q_mode5EL9ap_o_mode3ELi0EE11bitsToFixedEy", metadata !941, i32 1030, metadata !1066, i1 false, i1 false, i32 0, i32 0, null, i32 256, i1 false, null, null, i32 0, metadata !89, i32 1030} ; [ DW_TAG_subprogram ]
!1066 = metadata !{i32 786453, i32 0, metadata !"", i32 0, i32 0, i64 0, i64 0, i64 0, i32 0, null, metadata !1067, i32 0, i32 0} ; [ DW_TAG_subroutine_type ]
!1067 = metadata !{metadata !940, metadata !1027}
!1068 = metadata !{i32 786478, i32 0, metadata !940, metadata !"to_ap_int_base", metadata !"to_ap_int_base", metadata !"_ZNK13ap_fixed_baseILi15ELi0ELb1EL9ap_q_mode5EL9ap_o_mode3ELi0EE14to_ap_int_baseEb", metadata !941, i32 1039, metadata !1069, i1 false, i1 false, i32 0, i32 0, null, i32 256, i1 false, null, null, i32 0, metadata !89, i32 1039} ; [ DW_TAG_subprogram ]
!1069 = metadata !{i32 786453, i32 0, metadata !"", i32 0, i32 0, i64 0, i64 0, i64 0, i32 0, null, metadata !1070, i32 0, i32 0} ; [ DW_TAG_subroutine_type ]
!1070 = metadata !{metadata !1071, metadata !1037, metadata !238}
!1071 = metadata !{i32 786434, null, metadata !"ap_int_base<1, true, true>", metadata !891, i32 651, i32 0, i32 0, i32 0, i32 4, null, null, i32 0} ; [ DW_TAG_class_type ]
!1072 = metadata !{i32 786478, i32 0, metadata !940, metadata !"to_int", metadata !"to_int", metadata !"_ZNK13ap_fixed_baseILi15ELi0ELb1EL9ap_q_mode5EL9ap_o_mode3ELi0EE6to_intEv", metadata !941, i32 1074, metadata !1073, i1 false, i1 false, i32 0, i32 0, null, i32 256, i1 false, null, null, i32 0, metadata !89, i32 1074} ; [ DW_TAG_subprogram ]
!1073 = metadata !{i32 786453, i32 0, metadata !"", i32 0, i32 0, i64 0, i64 0, i64 0, i32 0, null, metadata !1074, i32 0, i32 0} ; [ DW_TAG_subroutine_type ]
!1074 = metadata !{metadata !56, metadata !1037}
!1075 = metadata !{i32 786478, i32 0, metadata !940, metadata !"to_uint", metadata !"to_uint", metadata !"_ZNK13ap_fixed_baseILi15ELi0ELb1EL9ap_q_mode5EL9ap_o_mode3ELi0EE7to_uintEv", metadata !941, i32 1077, metadata !1076, i1 false, i1 false, i32 0, i32 0, null, i32 256, i1 false, null, null, i32 0, metadata !89, i32 1077} ; [ DW_TAG_subprogram ]
!1076 = metadata !{i32 786453, i32 0, metadata !"", i32 0, i32 0, i64 0, i64 0, i64 0, i32 0, null, metadata !1077, i32 0, i32 0} ; [ DW_TAG_subroutine_type ]
!1077 = metadata !{metadata !1011, metadata !1037}
!1078 = metadata !{i32 786478, i32 0, metadata !940, metadata !"to_int64", metadata !"to_int64", metadata !"_ZNK13ap_fixed_baseILi15ELi0ELb1EL9ap_q_mode5EL9ap_o_mode3ELi0EE8to_int64Ev", metadata !941, i32 1080, metadata !1079, i1 false, i1 false, i32 0, i32 0, null, i32 256, i1 false, null, null, i32 0, metadata !89, i32 1080} ; [ DW_TAG_subprogram ]
!1079 = metadata !{i32 786453, i32 0, metadata !"", i32 0, i32 0, i64 0, i64 0, i64 0, i32 0, null, metadata !1080, i32 0, i32 0} ; [ DW_TAG_subroutine_type ]
!1080 = metadata !{metadata !1021, metadata !1037}
!1081 = metadata !{i32 786478, i32 0, metadata !940, metadata !"to_uint64", metadata !"to_uint64", metadata !"_ZNK13ap_fixed_baseILi15ELi0ELb1EL9ap_q_mode5EL9ap_o_mode3ELi0EE9to_uint64Ev", metadata !941, i32 1083, metadata !1082, i1 false, i1 false, i32 0, i32 0, null, i32 256, i1 false, null, null, i32 0, metadata !89, i32 1083} ; [ DW_TAG_subprogram ]
!1082 = metadata !{i32 786453, i32 0, metadata !"", i32 0, i32 0, i64 0, i64 0, i64 0, i32 0, null, metadata !1083, i32 0, i32 0} ; [ DW_TAG_subroutine_type ]
!1083 = metadata !{metadata !1026, metadata !1037}
!1084 = metadata !{i32 786478, i32 0, metadata !940, metadata !"to_double", metadata !"to_double", metadata !"_ZNK13ap_fixed_baseILi15ELi0ELb1EL9ap_q_mode5EL9ap_o_mode3ELi0EE9to_doubleEv", metadata !941, i32 1086, metadata !1085, i1 false, i1 false, i32 0, i32 0, null, i32 256, i1 false, null, null, i32 0, metadata !89, i32 1086} ; [ DW_TAG_subprogram ]
!1085 = metadata !{i32 786453, i32 0, metadata !"", i32 0, i32 0, i64 0, i64 0, i64 0, i32 0, null, metadata !1086, i32 0, i32 0} ; [ DW_TAG_subroutine_type ]
!1086 = metadata !{metadata !1038, metadata !1037}
!1087 = metadata !{i32 786478, i32 0, metadata !940, metadata !"to_float", metadata !"to_float", metadata !"_ZNK13ap_fixed_baseILi15ELi0ELb1EL9ap_q_mode5EL9ap_o_mode3ELi0EE8to_floatEv", metadata !941, i32 1139, metadata !1088, i1 false, i1 false, i32 0, i32 0, null, i32 256, i1 false, null, null, i32 0, metadata !89, i32 1139} ; [ DW_TAG_subprogram ]
!1088 = metadata !{i32 786453, i32 0, metadata !"", i32 0, i32 0, i64 0, i64 0, i64 0, i32 0, null, metadata !1089, i32 0, i32 0} ; [ DW_TAG_subroutine_type ]
!1089 = metadata !{metadata !931, metadata !1037}
!1090 = metadata !{i32 786478, i32 0, metadata !940, metadata !"operator double", metadata !"operator double", metadata !"_ZNK13ap_fixed_baseILi15ELi0ELb1EL9ap_q_mode5EL9ap_o_mode3ELi0EEcvdEv", metadata !941, i32 1190, metadata !1085, i1 false, i1 false, i32 0, i32 0, null, i32 256, i1 false, null, null, i32 0, metadata !89, i32 1190} ; [ DW_TAG_subprogram ]
!1091 = metadata !{i32 786478, i32 0, metadata !940, metadata !"operator float", metadata !"operator float", metadata !"_ZNK13ap_fixed_baseILi15ELi0ELb1EL9ap_q_mode5EL9ap_o_mode3ELi0EEcvfEv", metadata !941, i32 1194, metadata !1088, i1 false, i1 false, i32 0, i32 0, null, i32 256, i1 false, null, null, i32 0, metadata !89, i32 1194} ; [ DW_TAG_subprogram ]
!1092 = metadata !{i32 786478, i32 0, metadata !940, metadata !"operator char", metadata !"operator char", metadata !"_ZNK13ap_fixed_baseILi15ELi0ELb1EL9ap_q_mode5EL9ap_o_mode3ELi0EEcvcEv", metadata !941, i32 1198, metadata !1093, i1 false, i1 false, i32 0, i32 0, null, i32 256, i1 false, null, null, i32 0, metadata !89, i32 1198} ; [ DW_TAG_subprogram ]
!1093 = metadata !{i32 786453, i32 0, metadata !"", i32 0, i32 0, i64 0, i64 0, i64 0, i32 0, null, metadata !1094, i32 0, i32 0} ; [ DW_TAG_subroutine_type ]
!1094 = metadata !{metadata !174, metadata !1037}
!1095 = metadata !{i32 786478, i32 0, metadata !940, metadata !"operator signed char", metadata !"operator signed char", metadata !"_ZNK13ap_fixed_baseILi15ELi0ELb1EL9ap_q_mode5EL9ap_o_mode3ELi0EEcvaEv", metadata !941, i32 1202, metadata !1096, i1 false, i1 false, i32 0, i32 0, null, i32 256, i1 false, null, null, i32 0, metadata !89, i32 1202} ; [ DW_TAG_subprogram ]
!1096 = metadata !{i32 786453, i32 0, metadata !"", i32 0, i32 0, i64 0, i64 0, i64 0, i32 0, null, metadata !1097, i32 0, i32 0} ; [ DW_TAG_subroutine_type ]
!1097 = metadata !{metadata !993, metadata !1037}
!1098 = metadata !{i32 786478, i32 0, metadata !940, metadata !"operator unsigned char", metadata !"operator unsigned char", metadata !"_ZNK13ap_fixed_baseILi15ELi0ELb1EL9ap_q_mode5EL9ap_o_mode3ELi0EEcvhEv", metadata !941, i32 1206, metadata !1099, i1 false, i1 false, i32 0, i32 0, null, i32 256, i1 false, null, null, i32 0, metadata !89, i32 1206} ; [ DW_TAG_subprogram ]
!1099 = metadata !{i32 786453, i32 0, metadata !"", i32 0, i32 0, i64 0, i64 0, i64 0, i32 0, null, metadata !1100, i32 0, i32 0} ; [ DW_TAG_subroutine_type ]
!1100 = metadata !{metadata !997, metadata !1037}
!1101 = metadata !{i32 786478, i32 0, metadata !940, metadata !"operator short", metadata !"operator short", metadata !"_ZNK13ap_fixed_baseILi15ELi0ELb1EL9ap_q_mode5EL9ap_o_mode3ELi0EEcvsEv", metadata !941, i32 1210, metadata !1102, i1 false, i1 false, i32 0, i32 0, null, i32 256, i1 false, null, null, i32 0, metadata !89, i32 1210} ; [ DW_TAG_subprogram ]
!1102 = metadata !{i32 786453, i32 0, metadata !"", i32 0, i32 0, i64 0, i64 0, i64 0, i32 0, null, metadata !1103, i32 0, i32 0} ; [ DW_TAG_subroutine_type ]
!1103 = metadata !{metadata !1001, metadata !1037}
!1104 = metadata !{i32 786478, i32 0, metadata !940, metadata !"operator unsigned short", metadata !"operator unsigned short", metadata !"_ZNK13ap_fixed_baseILi15ELi0ELb1EL9ap_q_mode5EL9ap_o_mode3ELi0EEcvtEv", metadata !941, i32 1214, metadata !1105, i1 false, i1 false, i32 0, i32 0, null, i32 256, i1 false, null, null, i32 0, metadata !89, i32 1214} ; [ DW_TAG_subprogram ]
!1105 = metadata !{i32 786453, i32 0, metadata !"", i32 0, i32 0, i64 0, i64 0, i64 0, i32 0, null, metadata !1106, i32 0, i32 0} ; [ DW_TAG_subroutine_type ]
!1106 = metadata !{metadata !165, metadata !1037}
!1107 = metadata !{i32 786478, i32 0, metadata !940, metadata !"operator int", metadata !"operator int", metadata !"_ZNK13ap_fixed_baseILi15ELi0ELb1EL9ap_q_mode5EL9ap_o_mode3ELi0EEcviEv", metadata !941, i32 1219, metadata !1073, i1 false, i1 false, i32 0, i32 0, null, i32 256, i1 false, null, null, i32 0, metadata !89, i32 1219} ; [ DW_TAG_subprogram ]
!1108 = metadata !{i32 786478, i32 0, metadata !940, metadata !"operator unsigned int", metadata !"operator unsigned int", metadata !"_ZNK13ap_fixed_baseILi15ELi0ELb1EL9ap_q_mode5EL9ap_o_mode3ELi0EEcvjEv", metadata !941, i32 1223, metadata !1076, i1 false, i1 false, i32 0, i32 0, null, i32 256, i1 false, null, null, i32 0, metadata !89, i32 1223} ; [ DW_TAG_subprogram ]
!1109 = metadata !{i32 786478, i32 0, metadata !940, metadata !"operator long", metadata !"operator long", metadata !"_ZNK13ap_fixed_baseILi15ELi0ELb1EL9ap_q_mode5EL9ap_o_mode3ELi0EEcvlEv", metadata !941, i32 1228, metadata !1110, i1 false, i1 false, i32 0, i32 0, null, i32 256, i1 false, null, null, i32 0, metadata !89, i32 1228} ; [ DW_TAG_subprogram ]
!1110 = metadata !{i32 786453, i32 0, metadata !"", i32 0, i32 0, i64 0, i64 0, i64 0, i32 0, null, metadata !1111, i32 0, i32 0} ; [ DW_TAG_subroutine_type ]
!1111 = metadata !{metadata !64, metadata !1037}
!1112 = metadata !{i32 786478, i32 0, metadata !940, metadata !"operator unsigned long", metadata !"operator unsigned long", metadata !"_ZNK13ap_fixed_baseILi15ELi0ELb1EL9ap_q_mode5EL9ap_o_mode3ELi0EEcvmEv", metadata !941, i32 1232, metadata !1113, i1 false, i1 false, i32 0, i32 0, null, i32 256, i1 false, null, null, i32 0, metadata !89, i32 1232} ; [ DW_TAG_subprogram ]
!1113 = metadata !{i32 786453, i32 0, metadata !"", i32 0, i32 0, i64 0, i64 0, i64 0, i32 0, null, metadata !1114, i32 0, i32 0} ; [ DW_TAG_subroutine_type ]
!1114 = metadata !{metadata !140, metadata !1037}
!1115 = metadata !{i32 786478, i32 0, metadata !940, metadata !"operator unsigned long long", metadata !"operator unsigned long long", metadata !"_ZNK13ap_fixed_baseILi15ELi0ELb1EL9ap_q_mode5EL9ap_o_mode3ELi0EEcvyEv", metadata !941, i32 1245, metadata !1116, i1 false, i1 false, i32 0, i32 0, null, i32 256, i1 false, null, null, i32 0, metadata !89, i32 1245} ; [ DW_TAG_subprogram ]
!1116 = metadata !{i32 786453, i32 0, metadata !"", i32 0, i32 0, i64 0, i64 0, i64 0, i32 0, null, metadata !1117, i32 0, i32 0} ; [ DW_TAG_subroutine_type ]
!1117 = metadata !{metadata !1027, metadata !1037}
!1118 = metadata !{i32 786478, i32 0, metadata !940, metadata !"operator long long", metadata !"operator long long", metadata !"_ZNK13ap_fixed_baseILi15ELi0ELb1EL9ap_q_mode5EL9ap_o_mode3ELi0EEcvxEv", metadata !941, i32 1249, metadata !1119, i1 false, i1 false, i32 0, i32 0, null, i32 256, i1 false, null, null, i32 0, metadata !89, i32 1249} ; [ DW_TAG_subprogram ]
!1119 = metadata !{i32 786453, i32 0, metadata !"", i32 0, i32 0, i64 0, i64 0, i64 0, i32 0, null, metadata !1120, i32 0, i32 0} ; [ DW_TAG_subroutine_type ]
!1120 = metadata !{metadata !1022, metadata !1037}
!1121 = metadata !{i32 786478, i32 0, metadata !940, metadata !"length", metadata !"length", metadata !"_ZNK13ap_fixed_baseILi15ELi0ELb1EL9ap_q_mode5EL9ap_o_mode3ELi0EE6lengthEv", metadata !941, i32 1253, metadata !1073, i1 false, i1 false, i32 0, i32 0, null, i32 256, i1 false, null, null, i32 0, metadata !89, i32 1253} ; [ DW_TAG_subprogram ]
!1122 = metadata !{i32 786478, i32 0, metadata !940, metadata !"countLeadingZeros", metadata !"countLeadingZeros", metadata !"_ZN13ap_fixed_baseILi15ELi0ELb1EL9ap_q_mode5EL9ap_o_mode3ELi0EE17countLeadingZerosEv", metadata !941, i32 1257, metadata !1123, i1 false, i1 false, i32 0, i32 0, null, i32 256, i1 false, null, null, i32 0, metadata !89, i32 1257} ; [ DW_TAG_subprogram ]
!1123 = metadata !{i32 786453, i32 0, metadata !"", i32 0, i32 0, i64 0, i64 0, i64 0, i32 0, null, metadata !1124, i32 0, i32 0} ; [ DW_TAG_subroutine_type ]
!1124 = metadata !{metadata !56, metadata !964}
!1125 = metadata !{i32 786478, i32 0, metadata !940, metadata !"operator++", metadata !"operator++", metadata !"_ZN13ap_fixed_baseILi15ELi0ELb1EL9ap_q_mode5EL9ap_o_mode3ELi0EEppEv", metadata !941, i32 1358, metadata !1126, i1 false, i1 false, i32 0, i32 0, null, i32 256, i1 false, null, null, i32 0, metadata !89, i32 1358} ; [ DW_TAG_subprogram ]
!1126 = metadata !{i32 786453, i32 0, metadata !"", i32 0, i32 0, i64 0, i64 0, i64 0, i32 0, null, metadata !1127, i32 0, i32 0} ; [ DW_TAG_subroutine_type ]
!1127 = metadata !{metadata !1054, metadata !964}
!1128 = metadata !{i32 786478, i32 0, metadata !940, metadata !"operator--", metadata !"operator--", metadata !"_ZN13ap_fixed_baseILi15ELi0ELb1EL9ap_q_mode5EL9ap_o_mode3ELi0EEmmEv", metadata !941, i32 1362, metadata !1126, i1 false, i1 false, i32 0, i32 0, null, i32 256, i1 false, null, null, i32 0, metadata !89, i32 1362} ; [ DW_TAG_subprogram ]
!1129 = metadata !{i32 786478, i32 0, metadata !940, metadata !"operator++", metadata !"operator++", metadata !"_ZN13ap_fixed_baseILi15ELi0ELb1EL9ap_q_mode5EL9ap_o_mode3ELi0EEppEi", metadata !941, i32 1370, metadata !1130, i1 false, i1 false, i32 0, i32 0, null, i32 256, i1 false, null, null, i32 0, metadata !89, i32 1370} ; [ DW_TAG_subprogram ]
!1130 = metadata !{i32 786453, i32 0, metadata !"", i32 0, i32 0, i64 0, i64 0, i64 0, i32 0, null, metadata !1131, i32 0, i32 0} ; [ DW_TAG_subroutine_type ]
!1131 = metadata !{metadata !975, metadata !964, metadata !56}
!1132 = metadata !{i32 786478, i32 0, metadata !940, metadata !"operator--", metadata !"operator--", metadata !"_ZN13ap_fixed_baseILi15ELi0ELb1EL9ap_q_mode5EL9ap_o_mode3ELi0EEmmEi", metadata !941, i32 1376, metadata !1130, i1 false, i1 false, i32 0, i32 0, null, i32 256, i1 false, null, null, i32 0, metadata !89, i32 1376} ; [ DW_TAG_subprogram ]
!1133 = metadata !{i32 786478, i32 0, metadata !940, metadata !"operator+", metadata !"operator+", metadata !"_ZN13ap_fixed_baseILi15ELi0ELb1EL9ap_q_mode5EL9ap_o_mode3ELi0EEpsEv", metadata !941, i32 1384, metadata !1134, i1 false, i1 false, i32 0, i32 0, null, i32 256, i1 false, null, null, i32 0, metadata !89, i32 1384} ; [ DW_TAG_subprogram ]
